Archive member included because of file (symbol)

/home/bseip/MentorGraphics/Sourcery_CodeBench_Lite_for_ARM_EABI/lib/gcc/arm-none-eabi/4.8.1/libgcc.a(_udivsi3.o)
                              build/fatfs/ff.o (__aeabi_uidiv)
/home/bseip/MentorGraphics/Sourcery_CodeBench_Lite_for_ARM_EABI/lib/gcc/arm-none-eabi/4.8.1/libgcc.a(_divsi3.o)
                              build/gapi/window.o (__aeabi_idiv)
/home/bseip/MentorGraphics/Sourcery_CodeBench_Lite_for_ARM_EABI/lib/gcc/arm-none-eabi/4.8.1/libgcc.a(_dvmd_tls.o)
                              /home/bseip/MentorGraphics/Sourcery_CodeBench_Lite_for_ARM_EABI/lib/gcc/arm-none-eabi/4.8.1/libgcc.a(_udivsi3.o) (__aeabi_idiv0)
/home/bseip/MentorGraphics/Sourcery_CodeBench_Lite_for_ARM_EABI/lib/gcc/arm-none-eabi/4.8.1/libgcc.a(unwind-arm.o)
                              build/bcm2835.o (__aeabi_unwind_cpp_pr0)
/home/bseip/MentorGraphics/Sourcery_CodeBench_Lite_for_ARM_EABI/lib/gcc/arm-none-eabi/4.8.1/libgcc.a(libunwind.o)
                              /home/bseip/MentorGraphics/Sourcery_CodeBench_Lite_for_ARM_EABI/lib/gcc/arm-none-eabi/4.8.1/libgcc.a(unwind-arm.o) (restore_core_regs)
/home/bseip/MentorGraphics/Sourcery_CodeBench_Lite_for_ARM_EABI/lib/gcc/arm-none-eabi/4.8.1/libgcc.a(pr-support.o)
                              /home/bseip/MentorGraphics/Sourcery_CodeBench_Lite_for_ARM_EABI/lib/gcc/arm-none-eabi/4.8.1/libgcc.a(unwind-arm.o) (__gnu_unwind_execute)
/home/bseip/MentorGraphics/Sourcery_CodeBench_Lite_for_ARM_EABI/arm-none-eabi/lib/libc.a(lib_a-aeabi_atexit.o)
                              build/gapi/common.o (__aeabi_atexit)
/home/bseip/MentorGraphics/Sourcery_CodeBench_Lite_for_ARM_EABI/arm-none-eabi/lib/libc.a(lib_a-assert.o)
                              build/gapi/memory_tracking.o (__assert_func)
/home/bseip/MentorGraphics/Sourcery_CodeBench_Lite_for_ARM_EABI/arm-none-eabi/lib/libc.a(lib_a-cxa_atexit.o)
                              /home/bseip/MentorGraphics/Sourcery_CodeBench_Lite_for_ARM_EABI/arm-none-eabi/lib/libc.a(lib_a-aeabi_atexit.o) (__cxa_atexit)
/home/bseip/MentorGraphics/Sourcery_CodeBench_Lite_for_ARM_EABI/arm-none-eabi/lib/libc.a(lib_a-fiprintf.o)
                              /home/bseip/MentorGraphics/Sourcery_CodeBench_Lite_for_ARM_EABI/arm-none-eabi/lib/libc.a(lib_a-assert.o) (fiprintf)
/home/bseip/MentorGraphics/Sourcery_CodeBench_Lite_for_ARM_EABI/arm-none-eabi/lib/libc.a(lib_a-fprintf.o)
                              build/main.o (fprintf)
/home/bseip/MentorGraphics/Sourcery_CodeBench_Lite_for_ARM_EABI/arm-none-eabi/lib/libc.a(lib_a-impure.o)
                              build/main.o (_impure_ptr)
/home/bseip/MentorGraphics/Sourcery_CodeBench_Lite_for_ARM_EABI/arm-none-eabi/lib/libc.a(lib_a-malloc.o)
                              build/main.o (malloc)
/home/bseip/MentorGraphics/Sourcery_CodeBench_Lite_for_ARM_EABI/arm-none-eabi/lib/libc.a(lib_a-mallocr.o)
                              /home/bseip/MentorGraphics/Sourcery_CodeBench_Lite_for_ARM_EABI/arm-none-eabi/lib/libc.a(lib_a-malloc.o) (_malloc_r)
/home/bseip/MentorGraphics/Sourcery_CodeBench_Lite_for_ARM_EABI/arm-none-eabi/lib/libc.a(lib_a-memcpy-stub.o)
                              build/mmc/emmc.o (memcpy)
/home/bseip/MentorGraphics/Sourcery_CodeBench_Lite_for_ARM_EABI/arm-none-eabi/lib/libc.a(lib_a-memmove.o)
                              build/gapi/common.o (memmove)
/home/bseip/MentorGraphics/Sourcery_CodeBench_Lite_for_ARM_EABI/arm-none-eabi/lib/libc.a(lib_a-memset.o)
                              build/gapi/bitmap.o (memset)
/home/bseip/MentorGraphics/Sourcery_CodeBench_Lite_for_ARM_EABI/arm-none-eabi/lib/libc.a(lib_a-mlock.o)
                              /home/bseip/MentorGraphics/Sourcery_CodeBench_Lite_for_ARM_EABI/arm-none-eabi/lib/libc.a(lib_a-mallocr.o) (__malloc_lock)
/home/bseip/MentorGraphics/Sourcery_CodeBench_Lite_for_ARM_EABI/arm-none-eabi/lib/libc.a(lib_a-printf.o)
                              build/main.o (printf)
/home/bseip/MentorGraphics/Sourcery_CodeBench_Lite_for_ARM_EABI/arm-none-eabi/lib/libc.a(lib_a-reent.o)
                              build/syscalls.o (errno)
/home/bseip/MentorGraphics/Sourcery_CodeBench_Lite_for_ARM_EABI/arm-none-eabi/lib/libc.a(lib_a-sbrkr.o)
                              /home/bseip/MentorGraphics/Sourcery_CodeBench_Lite_for_ARM_EABI/arm-none-eabi/lib/libc.a(lib_a-mallocr.o) (_sbrk_r)
/home/bseip/MentorGraphics/Sourcery_CodeBench_Lite_for_ARM_EABI/arm-none-eabi/lib/libc.a(lib_a-sprintf.o)
                              build/main.o (sprintf)
/home/bseip/MentorGraphics/Sourcery_CodeBench_Lite_for_ARM_EABI/arm-none-eabi/lib/libc.a(lib_a-sscanf.o)
                              build/main.o (sscanf)
/home/bseip/MentorGraphics/Sourcery_CodeBench_Lite_for_ARM_EABI/arm-none-eabi/lib/libc.a(lib_a-stdio.o)
                              /home/bseip/MentorGraphics/Sourcery_CodeBench_Lite_for_ARM_EABI/arm-none-eabi/lib/libc.a(lib_a-sscanf.o) (__seofread)
/home/bseip/MentorGraphics/Sourcery_CodeBench_Lite_for_ARM_EABI/arm-none-eabi/lib/libc.a(lib_a-strlen.o)
                              /home/bseip/MentorGraphics/Sourcery_CodeBench_Lite_for_ARM_EABI/arm-none-eabi/lib/libc.a(lib_a-sscanf.o) (strlen)
/home/bseip/MentorGraphics/Sourcery_CodeBench_Lite_for_ARM_EABI/arm-none-eabi/lib/libc.a(lib_a-strncpy.o)
                              build/gapi/screenraspi.o (strncpy)
/home/bseip/MentorGraphics/Sourcery_CodeBench_Lite_for_ARM_EABI/arm-none-eabi/lib/libc.a(lib_a-svfprintf.o)
                              /home/bseip/MentorGraphics/Sourcery_CodeBench_Lite_for_ARM_EABI/arm-none-eabi/lib/libc.a(lib_a-sprintf.o) (_svfprintf_r)
/home/bseip/MentorGraphics/Sourcery_CodeBench_Lite_for_ARM_EABI/arm-none-eabi/lib/libc.a(lib_a-svfscanf.o)
                              /home/bseip/MentorGraphics/Sourcery_CodeBench_Lite_for_ARM_EABI/arm-none-eabi/lib/libc.a(lib_a-sscanf.o) (__ssvfscanf_r)
/home/bseip/MentorGraphics/Sourcery_CodeBench_Lite_for_ARM_EABI/arm-none-eabi/lib/libc.a(lib_a-toupper.o)
                              build/main.o (toupper)
/home/bseip/MentorGraphics/Sourcery_CodeBench_Lite_for_ARM_EABI/arm-none-eabi/lib/libc.a(lib_a-vfiprintf.o)
                              /home/bseip/MentorGraphics/Sourcery_CodeBench_Lite_for_ARM_EABI/arm-none-eabi/lib/libc.a(lib_a-fiprintf.o) (_vfiprintf_r)
/home/bseip/MentorGraphics/Sourcery_CodeBench_Lite_for_ARM_EABI/arm-none-eabi/lib/libc.a(lib_a-vfprintf.o)
                              /home/bseip/MentorGraphics/Sourcery_CodeBench_Lite_for_ARM_EABI/arm-none-eabi/lib/libc.a(lib_a-fprintf.o) (_vfprintf_r)
/home/bseip/MentorGraphics/Sourcery_CodeBench_Lite_for_ARM_EABI/arm-none-eabi/lib/libc.a(lib_a-writer.o)
                              /home/bseip/MentorGraphics/Sourcery_CodeBench_Lite_for_ARM_EABI/arm-none-eabi/lib/libc.a(lib_a-stdio.o) (_write_r)
/home/bseip/MentorGraphics/Sourcery_CodeBench_Lite_for_ARM_EABI/arm-none-eabi/lib/libc.a(lib_a-wsetup.o)
                              /home/bseip/MentorGraphics/Sourcery_CodeBench_Lite_for_ARM_EABI/arm-none-eabi/lib/libc.a(lib_a-vfiprintf.o) (__swsetup_r)
/home/bseip/MentorGraphics/Sourcery_CodeBench_Lite_for_ARM_EABI/arm-none-eabi/lib/libc.a(lib_a-__atexit.o)
                              /home/bseip/MentorGraphics/Sourcery_CodeBench_Lite_for_ARM_EABI/arm-none-eabi/lib/libc.a(lib_a-cxa_atexit.o) (__register_exitproc)
/home/bseip/MentorGraphics/Sourcery_CodeBench_Lite_for_ARM_EABI/arm-none-eabi/lib/libc.a(lib_a-closer.o)
                              /home/bseip/MentorGraphics/Sourcery_CodeBench_Lite_for_ARM_EABI/arm-none-eabi/lib/libc.a(lib_a-stdio.o) (_close_r)
/home/bseip/MentorGraphics/Sourcery_CodeBench_Lite_for_ARM_EABI/arm-none-eabi/lib/libc.a(lib_a-ctype_.o)
                              /home/bseip/MentorGraphics/Sourcery_CodeBench_Lite_for_ARM_EABI/arm-none-eabi/lib/libc.a(lib_a-svfscanf.o) (__ctype_ptr__)
/home/bseip/MentorGraphics/Sourcery_CodeBench_Lite_for_ARM_EABI/arm-none-eabi/lib/libc.a(lib_a-dtoa.o)
                              /home/bseip/MentorGraphics/Sourcery_CodeBench_Lite_for_ARM_EABI/arm-none-eabi/lib/libc.a(lib_a-svfprintf.o) (_dtoa_r)
/home/bseip/MentorGraphics/Sourcery_CodeBench_Lite_for_ARM_EABI/arm-none-eabi/lib/libc.a(lib_a-fflush.o)
                              /home/bseip/MentorGraphics/Sourcery_CodeBench_Lite_for_ARM_EABI/arm-none-eabi/lib/libc.a(lib_a-vfiprintf.o) (_fflush_r)
/home/bseip/MentorGraphics/Sourcery_CodeBench_Lite_for_ARM_EABI/arm-none-eabi/lib/libc.a(lib_a-findfp.o)
                              /home/bseip/MentorGraphics/Sourcery_CodeBench_Lite_for_ARM_EABI/arm-none-eabi/lib/libc.a(lib_a-vfiprintf.o) (__sinit)
/home/bseip/MentorGraphics/Sourcery_CodeBench_Lite_for_ARM_EABI/arm-none-eabi/lib/libc.a(lib_a-fputwc.o)
                              /home/bseip/MentorGraphics/Sourcery_CodeBench_Lite_for_ARM_EABI/arm-none-eabi/lib/libc.a(lib_a-vfiprintf.o) (_fputwc_r)
/home/bseip/MentorGraphics/Sourcery_CodeBench_Lite_for_ARM_EABI/arm-none-eabi/lib/libc.a(lib_a-freer.o)
                              /home/bseip/MentorGraphics/Sourcery_CodeBench_Lite_for_ARM_EABI/arm-none-eabi/lib/libc.a(lib_a-malloc.o) (_free_r)
/home/bseip/MentorGraphics/Sourcery_CodeBench_Lite_for_ARM_EABI/arm-none-eabi/lib/libc.a(lib_a-fvwrite.o)
                              /home/bseip/MentorGraphics/Sourcery_CodeBench_Lite_for_ARM_EABI/arm-none-eabi/lib/libc.a(lib_a-vfiprintf.o) (__sfvwrite_r)
/home/bseip/MentorGraphics/Sourcery_CodeBench_Lite_for_ARM_EABI/arm-none-eabi/lib/libc.a(lib_a-fwalk.o)
                              /home/bseip/MentorGraphics/Sourcery_CodeBench_Lite_for_ARM_EABI/arm-none-eabi/lib/libc.a(lib_a-findfp.o) (_fwalk)
/home/bseip/MentorGraphics/Sourcery_CodeBench_Lite_for_ARM_EABI/arm-none-eabi/lib/libc.a(lib_a-iswspace.o)
                              /home/bseip/MentorGraphics/Sourcery_CodeBench_Lite_for_ARM_EABI/arm-none-eabi/lib/libc.a(lib_a-svfscanf.o) (iswspace)
/home/bseip/MentorGraphics/Sourcery_CodeBench_Lite_for_ARM_EABI/arm-none-eabi/lib/libc.a(lib_a-locale.o)
                              /home/bseip/MentorGraphics/Sourcery_CodeBench_Lite_for_ARM_EABI/arm-none-eabi/lib/libc.a(lib_a-svfscanf.o) (__locale_mb_cur_max)
/home/bseip/MentorGraphics/Sourcery_CodeBench_Lite_for_ARM_EABI/arm-none-eabi/lib/libc.a(lib_a-lseekr.o)
                              /home/bseip/MentorGraphics/Sourcery_CodeBench_Lite_for_ARM_EABI/arm-none-eabi/lib/libc.a(lib_a-stdio.o) (_lseek_r)
/home/bseip/MentorGraphics/Sourcery_CodeBench_Lite_for_ARM_EABI/arm-none-eabi/lib/libc.a(lib_a-makebuf.o)
                              /home/bseip/MentorGraphics/Sourcery_CodeBench_Lite_for_ARM_EABI/arm-none-eabi/lib/libc.a(lib_a-wsetup.o) (__smakebuf_r)
/home/bseip/MentorGraphics/Sourcery_CodeBench_Lite_for_ARM_EABI/arm-none-eabi/lib/libc.a(lib_a-mbrtowc.o)
                              /home/bseip/MentorGraphics/Sourcery_CodeBench_Lite_for_ARM_EABI/arm-none-eabi/lib/libc.a(lib_a-svfscanf.o) (_mbrtowc_r)
/home/bseip/MentorGraphics/Sourcery_CodeBench_Lite_for_ARM_EABI/arm-none-eabi/lib/libc.a(lib_a-mbtowc_r.o)
                              /home/bseip/MentorGraphics/Sourcery_CodeBench_Lite_for_ARM_EABI/arm-none-eabi/lib/libc.a(lib_a-mbrtowc.o) (__mbtowc)
/home/bseip/MentorGraphics/Sourcery_CodeBench_Lite_for_ARM_EABI/arm-none-eabi/lib/libc.a(lib_a-memchr-stub.o)
                              /home/bseip/MentorGraphics/Sourcery_CodeBench_Lite_for_ARM_EABI/arm-none-eabi/lib/libc.a(lib_a-svfprintf.o) (memchr)
/home/bseip/MentorGraphics/Sourcery_CodeBench_Lite_for_ARM_EABI/arm-none-eabi/lib/libc.a(lib_a-mprec.o)
                              /home/bseip/MentorGraphics/Sourcery_CodeBench_Lite_for_ARM_EABI/arm-none-eabi/lib/libc.a(lib_a-dtoa.o) (_Balloc)
/home/bseip/MentorGraphics/Sourcery_CodeBench_Lite_for_ARM_EABI/arm-none-eabi/lib/libc.a(lib_a-readr.o)
                              /home/bseip/MentorGraphics/Sourcery_CodeBench_Lite_for_ARM_EABI/arm-none-eabi/lib/libc.a(lib_a-stdio.o) (_read_r)
/home/bseip/MentorGraphics/Sourcery_CodeBench_Lite_for_ARM_EABI/arm-none-eabi/lib/libc.a(lib_a-reallocr.o)
                              /home/bseip/MentorGraphics/Sourcery_CodeBench_Lite_for_ARM_EABI/arm-none-eabi/lib/libc.a(lib_a-fvwrite.o) (_realloc_r)
/home/bseip/MentorGraphics/Sourcery_CodeBench_Lite_for_ARM_EABI/arm-none-eabi/lib/libc.a(lib_a-s_fpclassify.o)
                              /home/bseip/MentorGraphics/Sourcery_CodeBench_Lite_for_ARM_EABI/arm-none-eabi/lib/libc.a(lib_a-svfprintf.o) (__fpclassifyd)
/home/bseip/MentorGraphics/Sourcery_CodeBench_Lite_for_ARM_EABI/arm-none-eabi/lib/libc.a(lib_a-sccl.o)
                              /home/bseip/MentorGraphics/Sourcery_CodeBench_Lite_for_ARM_EABI/arm-none-eabi/lib/libc.a(lib_a-svfscanf.o) (__sccl)
/home/bseip/MentorGraphics/Sourcery_CodeBench_Lite_for_ARM_EABI/arm-none-eabi/lib/libc.a(lib_a-sf_nan.o)
                              /home/bseip/MentorGraphics/Sourcery_CodeBench_Lite_for_ARM_EABI/arm-none-eabi/lib/libc.a(lib_a-svfscanf.o) (nanf)
/home/bseip/MentorGraphics/Sourcery_CodeBench_Lite_for_ARM_EABI/arm-none-eabi/lib/libc.a(lib_a-strcmp.o)
                              /home/bseip/MentorGraphics/Sourcery_CodeBench_Lite_for_ARM_EABI/arm-none-eabi/lib/libc.a(lib_a-locale.o) (strcmp)
/home/bseip/MentorGraphics/Sourcery_CodeBench_Lite_for_ARM_EABI/arm-none-eabi/lib/libc.a(lib_a-strtod.o)
                              /home/bseip/MentorGraphics/Sourcery_CodeBench_Lite_for_ARM_EABI/arm-none-eabi/lib/libc.a(lib_a-svfscanf.o) (_strtod_r)
/home/bseip/MentorGraphics/Sourcery_CodeBench_Lite_for_ARM_EABI/arm-none-eabi/lib/libc.a(lib_a-strtol.o)
                              /home/bseip/MentorGraphics/Sourcery_CodeBench_Lite_for_ARM_EABI/arm-none-eabi/lib/libc.a(lib_a-svfscanf.o) (_strtol_r)
/home/bseip/MentorGraphics/Sourcery_CodeBench_Lite_for_ARM_EABI/arm-none-eabi/lib/libc.a(lib_a-strtoll_r.o)
                              /home/bseip/MentorGraphics/Sourcery_CodeBench_Lite_for_ARM_EABI/arm-none-eabi/lib/libc.a(lib_a-svfscanf.o) (_strtoll_r)
/home/bseip/MentorGraphics/Sourcery_CodeBench_Lite_for_ARM_EABI/arm-none-eabi/lib/libc.a(lib_a-strtoul.o)
                              /home/bseip/MentorGraphics/Sourcery_CodeBench_Lite_for_ARM_EABI/arm-none-eabi/lib/libc.a(lib_a-svfscanf.o) (_strtoul_r)
/home/bseip/MentorGraphics/Sourcery_CodeBench_Lite_for_ARM_EABI/arm-none-eabi/lib/libc.a(lib_a-strtoull_r.o)
                              /home/bseip/MentorGraphics/Sourcery_CodeBench_Lite_for_ARM_EABI/arm-none-eabi/lib/libc.a(lib_a-svfscanf.o) (_strtoull_r)
/home/bseip/MentorGraphics/Sourcery_CodeBench_Lite_for_ARM_EABI/arm-none-eabi/lib/libc.a(lib_a-svfiprintf.o)
                              /home/bseip/MentorGraphics/Sourcery_CodeBench_Lite_for_ARM_EABI/arm-none-eabi/lib/libc.a(lib_a-svfprintf.o) (__ssprint_r)
/home/bseip/MentorGraphics/Sourcery_CodeBench_Lite_for_ARM_EABI/arm-none-eabi/lib/libc.a(lib_a-svfiscanf.o)
                              /home/bseip/MentorGraphics/Sourcery_CodeBench_Lite_for_ARM_EABI/arm-none-eabi/lib/libc.a(lib_a-svfscanf.o) (_sungetc_r)
/home/bseip/MentorGraphics/Sourcery_CodeBench_Lite_for_ARM_EABI/arm-none-eabi/lib/libc.a(lib_a-ungetc.o)
                              /home/bseip/MentorGraphics/Sourcery_CodeBench_Lite_for_ARM_EABI/arm-none-eabi/lib/libc.a(lib_a-svfiscanf.o) (__submore)
/home/bseip/MentorGraphics/Sourcery_CodeBench_Lite_for_ARM_EABI/arm-none-eabi/lib/libc.a(lib_a-wbuf.o)
                              /home/bseip/MentorGraphics/Sourcery_CodeBench_Lite_for_ARM_EABI/arm-none-eabi/lib/libc.a(lib_a-fputwc.o) (__swbuf_r)
/home/bseip/MentorGraphics/Sourcery_CodeBench_Lite_for_ARM_EABI/arm-none-eabi/lib/libc.a(lib_a-wcrtomb.o)
                              /home/bseip/MentorGraphics/Sourcery_CodeBench_Lite_for_ARM_EABI/arm-none-eabi/lib/libc.a(lib_a-fputwc.o) (_wcrtomb_r)
/home/bseip/MentorGraphics/Sourcery_CodeBench_Lite_for_ARM_EABI/arm-none-eabi/lib/libc.a(lib_a-wctomb_r.o)
                              /home/bseip/MentorGraphics/Sourcery_CodeBench_Lite_for_ARM_EABI/arm-none-eabi/lib/libc.a(lib_a-wcrtomb.o) (__wctomb)
/home/bseip/MentorGraphics/Sourcery_CodeBench_Lite_for_ARM_EABI/arm-none-eabi/lib/libc.a(lib_a-callocr.o)
                              /home/bseip/MentorGraphics/Sourcery_CodeBench_Lite_for_ARM_EABI/arm-none-eabi/lib/libc.a(lib_a-mprec.o) (_calloc_r)
/home/bseip/MentorGraphics/Sourcery_CodeBench_Lite_for_ARM_EABI/arm-none-eabi/lib/libc.a(lib_a-fclose.o)
                              /home/bseip/MentorGraphics/Sourcery_CodeBench_Lite_for_ARM_EABI/arm-none-eabi/lib/libc.a(lib_a-findfp.o) (fclose)
/home/bseip/MentorGraphics/Sourcery_CodeBench_Lite_for_ARM_EABI/arm-none-eabi/lib/libc.a(lib_a-fstatr.o)
                              /home/bseip/MentorGraphics/Sourcery_CodeBench_Lite_for_ARM_EABI/arm-none-eabi/lib/libc.a(lib_a-makebuf.o) (_fstat_r)
/home/bseip/MentorGraphics/Sourcery_CodeBench_Lite_for_ARM_EABI/arm-none-eabi/lib/libc.a(lib_a-gdtoa-gethex.o)
                              /home/bseip/MentorGraphics/Sourcery_CodeBench_Lite_for_ARM_EABI/arm-none-eabi/lib/libc.a(lib_a-strtod.o) (__gethex)
/home/bseip/MentorGraphics/Sourcery_CodeBench_Lite_for_ARM_EABI/arm-none-eabi/lib/libc.a(lib_a-gdtoa-hexnan.o)
                              /home/bseip/MentorGraphics/Sourcery_CodeBench_Lite_for_ARM_EABI/arm-none-eabi/lib/libc.a(lib_a-strtod.o) (__hexnan)
/home/bseip/MentorGraphics/Sourcery_CodeBench_Lite_for_ARM_EABI/arm-none-eabi/lib/libc.a(lib_a-isattyr.o)
                              /home/bseip/MentorGraphics/Sourcery_CodeBench_Lite_for_ARM_EABI/arm-none-eabi/lib/libc.a(lib_a-makebuf.o) (_isatty_r)
/home/bseip/MentorGraphics/Sourcery_CodeBench_Lite_for_ARM_EABI/arm-none-eabi/lib/libc.a(lib_a-strncmp.o)
                              /home/bseip/MentorGraphics/Sourcery_CodeBench_Lite_for_ARM_EABI/arm-none-eabi/lib/libc.a(lib_a-strtod.o) (strncmp)
/home/bseip/MentorGraphics/Sourcery_CodeBench_Lite_for_ARM_EABI/arm-none-eabi/lib/libstdc++.a(eh_catch.o)
                              build/gapi/common.o (__cxa_begin_catch)
/home/bseip/MentorGraphics/Sourcery_CodeBench_Lite_for_ARM_EABI/arm-none-eabi/lib/libstdc++.a(si_class_type_info.o)
                              build/gapi/controlbutton.o (vtable for __cxxabiv1::__si_class_type_info)
/home/bseip/MentorGraphics/Sourcery_CodeBench_Lite_for_ARM_EABI/arm-none-eabi/lib/libstdc++.a(eh_terminate.o)
                              /home/bseip/MentorGraphics/Sourcery_CodeBench_Lite_for_ARM_EABI/arm-none-eabi/lib/libstdc++.a(eh_catch.o) (std::terminate())
/home/bseip/MentorGraphics/Sourcery_CodeBench_Lite_for_ARM_EABI/arm-none-eabi/lib/libstdc++.a(tinfo.o)
                              /home/bseip/MentorGraphics/Sourcery_CodeBench_Lite_for_ARM_EABI/arm-none-eabi/lib/libstdc++.a(si_class_type_info.o) (std::type_info::__is_pointer_p() const)
/home/bseip/MentorGraphics/Sourcery_CodeBench_Lite_for_ARM_EABI/arm-none-eabi/lib/libstdc++.a(eh_alloc.o)
                              build/gapi/memory_tracking.o (__cxa_allocate_exception)
/home/bseip/MentorGraphics/Sourcery_CodeBench_Lite_for_ARM_EABI/arm-none-eabi/lib/libstdc++.a(eh_personality.o)
                              build/main.o (__gxx_personality_v0)
/home/bseip/MentorGraphics/Sourcery_CodeBench_Lite_for_ARM_EABI/arm-none-eabi/lib/libstdc++.a(eh_arm.o)
                              build/main.o (__cxa_end_cleanup)
/home/bseip/MentorGraphics/Sourcery_CodeBench_Lite_for_ARM_EABI/arm-none-eabi/lib/libstdc++.a(eh_exception.o)
                              /home/bseip/MentorGraphics/Sourcery_CodeBench_Lite_for_ARM_EABI/arm-none-eabi/lib/libstdc++.a(eh_arm.o) (typeinfo for __cxxabiv1::__forced_unwind)
/home/bseip/MentorGraphics/Sourcery_CodeBench_Lite_for_ARM_EABI/arm-none-eabi/lib/libstdc++.a(eh_globals.o)
                              /home/bseip/MentorGraphics/Sourcery_CodeBench_Lite_for_ARM_EABI/arm-none-eabi/lib/libstdc++.a(eh_catch.o) (__cxa_get_globals_fast)
/home/bseip/MentorGraphics/Sourcery_CodeBench_Lite_for_ARM_EABI/arm-none-eabi/lib/libstdc++.a(eh_call.o)
                              /home/bseip/MentorGraphics/Sourcery_CodeBench_Lite_for_ARM_EABI/arm-none-eabi/lib/libstdc++.a(eh_personality.o) (__cxa_call_terminate)
/home/bseip/MentorGraphics/Sourcery_CodeBench_Lite_for_ARM_EABI/arm-none-eabi/lib/libstdc++.a(eh_throw.o)
                              build/gapi/memory_tracking.o (__cxa_throw)
/home/bseip/MentorGraphics/Sourcery_CodeBench_Lite_for_ARM_EABI/arm-none-eabi/lib/libstdc++.a(bad_alloc.o)
                              build/gapi/memory_tracking.o (std::bad_alloc::~bad_alloc())
/home/bseip/MentorGraphics/Sourcery_CodeBench_Lite_for_ARM_EABI/arm-none-eabi/lib/libstdc++.a(eh_unex_handler.o)
                              /home/bseip/MentorGraphics/Sourcery_CodeBench_Lite_for_ARM_EABI/arm-none-eabi/lib/libstdc++.a(eh_terminate.o) (__cxxabiv1::__unexpected_handler)
/home/bseip/MentorGraphics/Sourcery_CodeBench_Lite_for_ARM_EABI/arm-none-eabi/lib/libstdc++.a(class_type_info.o)
                              /home/bseip/MentorGraphics/Sourcery_CodeBench_Lite_for_ARM_EABI/arm-none-eabi/lib/libstdc++.a(si_class_type_info.o) (__cxxabiv1::__class_type_info::__do_upcast(__cxxabiv1::__class_type_info const*, void**) const)
/home/bseip/MentorGraphics/Sourcery_CodeBench_Lite_for_ARM_EABI/arm-none-eabi/lib/libstdc++.a(eh_term_handler.o)
                              /home/bseip/MentorGraphics/Sourcery_CodeBench_Lite_for_ARM_EABI/arm-none-eabi/lib/libstdc++.a(eh_terminate.o) (__cxxabiv1::__terminate_handler)
/home/bseip/MentorGraphics/Sourcery_CodeBench_Lite_for_ARM_EABI/arm-none-eabi/lib/libstdc++.a(pure.o)
                              /home/bseip/MentorGraphics/Sourcery_CodeBench_Lite_for_ARM_EABI/arm-none-eabi/lib/libstdc++.a(eh_exception.o) (__cxa_pure_virtual)
/home/bseip/MentorGraphics/Sourcery_CodeBench_Lite_for_ARM_EABI/arm-none-eabi/lib/libstdc++.a(tree.o)
                              build/gapi/memory_tracking.o (std::_Rb_tree_increment(std::_Rb_tree_node_base*))
/home/bseip/MentorGraphics/Sourcery_CodeBench_Lite_for_ARM_EABI/arm-none-eabi/lib/libstdc++.a(functexcept.o)
                              build/gapi/common.o (std::__throw_bad_alloc())
/home/bseip/MentorGraphics/Sourcery_CodeBench_Lite_for_ARM_EABI/arm-none-eabi/lib/libstdc++.a(string-inst.o)
                              /home/bseip/MentorGraphics/Sourcery_CodeBench_Lite_for_ARM_EABI/arm-none-eabi/lib/libstdc++.a(functexcept.o) (std::string::_Rep::_M_dispose(std::allocator<char> const&))
/home/bseip/MentorGraphics/Sourcery_CodeBench_Lite_for_ARM_EABI/arm-none-eabi/lib/libstdc++.a(future.o)
                              /home/bseip/MentorGraphics/Sourcery_CodeBench_Lite_for_ARM_EABI/arm-none-eabi/lib/libstdc++.a(functexcept.o) (std::future_error::~future_error())
/home/bseip/MentorGraphics/Sourcery_CodeBench_Lite_for_ARM_EABI/arm-none-eabi/lib/libstdc++.a(functional.o)
                              /home/bseip/MentorGraphics/Sourcery_CodeBench_Lite_for_ARM_EABI/arm-none-eabi/lib/libstdc++.a(functexcept.o) (std::bad_function_call::~bad_function_call())
/home/bseip/MentorGraphics/Sourcery_CodeBench_Lite_for_ARM_EABI/arm-none-eabi/lib/libstdc++.a(regex.o)
                              /home/bseip/MentorGraphics/Sourcery_CodeBench_Lite_for_ARM_EABI/arm-none-eabi/lib/libstdc++.a(functexcept.o) (std::regex_error::~regex_error())
/home/bseip/MentorGraphics/Sourcery_CodeBench_Lite_for_ARM_EABI/arm-none-eabi/lib/libstdc++.a(bad_cast.o)
                              /home/bseip/MentorGraphics/Sourcery_CodeBench_Lite_for_ARM_EABI/arm-none-eabi/lib/libstdc++.a(functexcept.o) (std::bad_cast::~bad_cast())
/home/bseip/MentorGraphics/Sourcery_CodeBench_Lite_for_ARM_EABI/arm-none-eabi/lib/libstdc++.a(bad_typeid.o)
                              /home/bseip/MentorGraphics/Sourcery_CodeBench_Lite_for_ARM_EABI/arm-none-eabi/lib/libstdc++.a(functexcept.o) (std::bad_typeid::~bad_typeid())
/home/bseip/MentorGraphics/Sourcery_CodeBench_Lite_for_ARM_EABI/arm-none-eabi/lib/libstdc++.a(guard.o)
                              /home/bseip/MentorGraphics/Sourcery_CodeBench_Lite_for_ARM_EABI/arm-none-eabi/lib/libstdc++.a(future.o) (__cxa_guard_acquire)
/home/bseip/MentorGraphics/Sourcery_CodeBench_Lite_for_ARM_EABI/arm-none-eabi/lib/libstdc++.a(vterminate.o)
                              /home/bseip/MentorGraphics/Sourcery_CodeBench_Lite_for_ARM_EABI/arm-none-eabi/lib/libstdc++.a(eh_term_handler.o) (__gnu_cxx::__verbose_terminate_handler())
/home/bseip/MentorGraphics/Sourcery_CodeBench_Lite_for_ARM_EABI/arm-none-eabi/lib/libstdc++.a(cp-demangle.o)
                              /home/bseip/MentorGraphics/Sourcery_CodeBench_Lite_for_ARM_EABI/arm-none-eabi/lib/libstdc++.a(vterminate.o) (__cxa_demangle)
/home/bseip/MentorGraphics/Sourcery_CodeBench_Lite_for_ARM_EABI/arm-none-eabi/lib/libstdc++.a(eh_type.o)
                              /home/bseip/MentorGraphics/Sourcery_CodeBench_Lite_for_ARM_EABI/arm-none-eabi/lib/libstdc++.a(vterminate.o) (__cxa_current_exception_type)
/home/bseip/MentorGraphics/Sourcery_CodeBench_Lite_for_ARM_EABI/arm-none-eabi/lib/libstdc++.a(ios_failure.o)
                              /home/bseip/MentorGraphics/Sourcery_CodeBench_Lite_for_ARM_EABI/arm-none-eabi/lib/libstdc++.a(functexcept.o) (std::ios_base::failure::~failure())
/home/bseip/MentorGraphics/Sourcery_CodeBench_Lite_for_ARM_EABI/arm-none-eabi/lib/libstdc++.a(stdexcept.o)
                              /home/bseip/MentorGraphics/Sourcery_CodeBench_Lite_for_ARM_EABI/arm-none-eabi/lib/libstdc++.a(regex.o) (std::runtime_error::what() const)
/home/bseip/MentorGraphics/Sourcery_CodeBench_Lite_for_ARM_EABI/arm-none-eabi/lib/libstdc++.a(system_error.o)
                              /home/bseip/MentorGraphics/Sourcery_CodeBench_Lite_for_ARM_EABI/arm-none-eabi/lib/libstdc++.a(future.o) (std::error_category::~error_category())
/home/bseip/MentorGraphics/Sourcery_CodeBench_Lite_for_ARM_EABI/arm-none-eabi/lib/libstdc++.a(guard_error.o)
                              /home/bseip/MentorGraphics/Sourcery_CodeBench_Lite_for_ARM_EABI/arm-none-eabi/lib/libstdc++.a(guard.o) (__gnu_cxx::recursive_init_error::~recursive_init_error())
/home/bseip/MentorGraphics/Sourcery_CodeBench_Lite_for_ARM_EABI/lib/gcc/arm-none-eabi/4.8.1/libgcc.a(_arm_addsubdf3.o)
                              /home/bseip/MentorGraphics/Sourcery_CodeBench_Lite_for_ARM_EABI/arm-none-eabi/lib/libc.a(lib_a-dtoa.o) (__aeabi_dsub)
/home/bseip/MentorGraphics/Sourcery_CodeBench_Lite_for_ARM_EABI/lib/gcc/arm-none-eabi/4.8.1/libgcc.a(_arm_muldivdf3.o)
                              /home/bseip/MentorGraphics/Sourcery_CodeBench_Lite_for_ARM_EABI/arm-none-eabi/lib/libc.a(lib_a-dtoa.o) (__aeabi_dmul)
/home/bseip/MentorGraphics/Sourcery_CodeBench_Lite_for_ARM_EABI/lib/gcc/arm-none-eabi/4.8.1/libgcc.a(_arm_cmpdf2.o)
                              /home/bseip/MentorGraphics/Sourcery_CodeBench_Lite_for_ARM_EABI/arm-none-eabi/lib/libc.a(lib_a-svfprintf.o) (__aeabi_dcmpeq)
/home/bseip/MentorGraphics/Sourcery_CodeBench_Lite_for_ARM_EABI/lib/gcc/arm-none-eabi/4.8.1/libgcc.a(_arm_fixdfsi.o)
                              /home/bseip/MentorGraphics/Sourcery_CodeBench_Lite_for_ARM_EABI/arm-none-eabi/lib/libc.a(lib_a-dtoa.o) (__aeabi_d2iz)
/home/bseip/MentorGraphics/Sourcery_CodeBench_Lite_for_ARM_EABI/lib/gcc/arm-none-eabi/4.8.1/libgcc.a(_arm_fixunsdfsi.o)
                              /home/bseip/MentorGraphics/Sourcery_CodeBench_Lite_for_ARM_EABI/arm-none-eabi/lib/libc.a(lib_a-strtod.o) (__aeabi_d2uiz)
/home/bseip/MentorGraphics/Sourcery_CodeBench_Lite_for_ARM_EABI/lib/gcc/arm-none-eabi/4.8.1/libgcc.a(_arm_truncdfsf2.o)
                              /home/bseip/MentorGraphics/Sourcery_CodeBench_Lite_for_ARM_EABI/arm-none-eabi/lib/libc.a(lib_a-svfscanf.o) (__aeabi_d2f)
/home/bseip/MentorGraphics/Sourcery_CodeBench_Lite_for_ARM_EABI/lib/gcc/arm-none-eabi/4.8.1/libgcc.a(_arm_cmpsf2.o)
                              /home/bseip/MentorGraphics/Sourcery_CodeBench_Lite_for_ARM_EABI/arm-none-eabi/lib/libc.a(lib_a-strtod.o) (__aeabi_fcmpeq)
/home/bseip/MentorGraphics/Sourcery_CodeBench_Lite_for_ARM_EABI/lib/gcc/arm-none-eabi/4.8.1/libgcc.a(_aeabi_uldivmod.o)
                              /home/bseip/MentorGraphics/Sourcery_CodeBench_Lite_for_ARM_EABI/arm-none-eabi/lib/libc.a(lib_a-svfprintf.o) (__aeabi_uldivmod)
/home/bseip/MentorGraphics/Sourcery_CodeBench_Lite_for_ARM_EABI/lib/gcc/arm-none-eabi/4.8.1/libgcc.a(bpabi.o)
                              /home/bseip/MentorGraphics/Sourcery_CodeBench_Lite_for_ARM_EABI/lib/gcc/arm-none-eabi/4.8.1/libgcc.a(_aeabi_uldivmod.o) (__gnu_uldivmod_helper)
/home/bseip/MentorGraphics/Sourcery_CodeBench_Lite_for_ARM_EABI/lib/gcc/arm-none-eabi/4.8.1/libgcc.a(_divdi3.o)
                              /home/bseip/MentorGraphics/Sourcery_CodeBench_Lite_for_ARM_EABI/lib/gcc/arm-none-eabi/4.8.1/libgcc.a(bpabi.o) (__divdi3)
/home/bseip/MentorGraphics/Sourcery_CodeBench_Lite_for_ARM_EABI/lib/gcc/arm-none-eabi/4.8.1/libgcc.a(_udivdi3.o)
                              /home/bseip/MentorGraphics/Sourcery_CodeBench_Lite_for_ARM_EABI/lib/gcc/arm-none-eabi/4.8.1/libgcc.a(bpabi.o) (__udivdi3)
/home/bseip/MentorGraphics/Sourcery_CodeBench_Lite_for_ARM_EABI/lib/gcc/arm-none-eabi/4.8.1/libgcc.a(_clzsi2.o)
                              /home/bseip/MentorGraphics/Sourcery_CodeBench_Lite_for_ARM_EABI/lib/gcc/arm-none-eabi/4.8.1/libgcc.a(_divdi3.o) (__clzsi2)
/home/bseip/MentorGraphics/Sourcery_CodeBench_Lite_for_ARM_EABI/arm-none-eabi/lib/libc.a(lib_a-fputc.o)
                              /home/bseip/MentorGraphics/Sourcery_CodeBench_Lite_for_ARM_EABI/arm-none-eabi/lib/libstdc++.a(vterminate.o) (fputc)
/home/bseip/MentorGraphics/Sourcery_CodeBench_Lite_for_ARM_EABI/arm-none-eabi/lib/libc.a(lib_a-fputs.o)
                              /home/bseip/MentorGraphics/Sourcery_CodeBench_Lite_for_ARM_EABI/arm-none-eabi/lib/libstdc++.a(vterminate.o) (fputs)
/home/bseip/MentorGraphics/Sourcery_CodeBench_Lite_for_ARM_EABI/arm-none-eabi/lib/libc.a(lib_a-fwrite.o)
                              /home/bseip/MentorGraphics/Sourcery_CodeBench_Lite_for_ARM_EABI/arm-none-eabi/lib/libstdc++.a(vterminate.o) (fwrite)
/home/bseip/MentorGraphics/Sourcery_CodeBench_Lite_for_ARM_EABI/arm-none-eabi/lib/libc.a(lib_a-memcmp.o)
                              /home/bseip/MentorGraphics/Sourcery_CodeBench_Lite_for_ARM_EABI/arm-none-eabi/lib/libstdc++.a(string-inst.o) (memcmp)
/home/bseip/MentorGraphics/Sourcery_CodeBench_Lite_for_ARM_EABI/arm-none-eabi/lib/libc.a(lib_a-putc.o)
                              /home/bseip/MentorGraphics/Sourcery_CodeBench_Lite_for_ARM_EABI/arm-none-eabi/lib/libc.a(lib_a-fputc.o) (_putc_r)
/home/bseip/MentorGraphics/Sourcery_CodeBench_Lite_for_ARM_EABI/arm-none-eabi/lib/libc.a(lib_a-realloc.o)
                              /home/bseip/MentorGraphics/Sourcery_CodeBench_Lite_for_ARM_EABI/arm-none-eabi/lib/libstdc++.a(cp-demangle.o) (realloc)
/home/bseip/MentorGraphics/Sourcery_CodeBench_Lite_for_ARM_EABI/arm-none-eabi/lib/libc.a(lib_a-strerror.o)
                              /home/bseip/MentorGraphics/Sourcery_CodeBench_Lite_for_ARM_EABI/arm-none-eabi/lib/libstdc++.a(system_error.o) (strerror)
/home/bseip/MentorGraphics/Sourcery_CodeBench_Lite_for_ARM_EABI/arm-none-eabi/lib/libc.a(lib_a-syswrite.o)
                              /home/bseip/MentorGraphics/Sourcery_CodeBench_Lite_for_ARM_EABI/arm-none-eabi/lib/libstdc++.a(pure.o) (write)
/home/bseip/MentorGraphics/Sourcery_CodeBench_Lite_for_ARM_EABI/arm-none-eabi/lib/libc.a(lib_a-u_strerr.o)
                              /home/bseip/MentorGraphics/Sourcery_CodeBench_Lite_for_ARM_EABI/arm-none-eabi/lib/libc.a(lib_a-strerror.o) (_user_strerror)

Allocating common symbols
Common symbol       size              file

errno               0x4               /home/bseip/MentorGraphics/Sourcery_CodeBench_Lite_for_ARM_EABI/arm-none-eabi/lib/libc.a(lib_a-reent.o)
sddevice            0x4               build/fatfs/diskio.o

Discarded input sections

 .group         0x00000000       0x10 build/gapi/common.o
 .group         0x00000000       0x10 build/gapi/common.o
 .group         0x00000000       0x10 build/gapi/common.o
 .group         0x00000000       0x10 build/gapi/common.o
 .group         0x00000000       0x10 build/gapi/flipbook.o
 .group         0x00000000       0x10 build/gapi/flipbook.o
 .group         0x00000000       0x10 build/gapi/flipbook.o
 .group         0x00000000       0x10 build/gapi/memory_tracking.o
 .group         0x00000000       0x10 build/gapi/memory_tracking.o
 .group         0x00000000       0x10 build/gapi/memory_tracking.o
 .group         0x00000000       0x10 build/gapi/memory_tracking.o
 .group         0x00000000       0x10 build/gapi/memory_tracking.o
 .group         0x00000000       0x10 build/gapi/wconsole.o
 .group         0x00000000       0x10 build/gapi/wconsole.o
 .group         0x00000000       0x10 build/gapi/window.o
 .group         0x00000000       0x10 /home/bseip/MentorGraphics/Sourcery_CodeBench_Lite_for_ARM_EABI/arm-none-eabi/lib/libstdc++.a(string-inst.o)
 .group         0x00000000       0x10 /home/bseip/MentorGraphics/Sourcery_CodeBench_Lite_for_ARM_EABI/arm-none-eabi/lib/libstdc++.a(string-inst.o)
 .group         0x00000000       0x10 /home/bseip/MentorGraphics/Sourcery_CodeBench_Lite_for_ARM_EABI/arm-none-eabi/lib/libstdc++.a(string-inst.o)
 .group         0x00000000       0x10 /home/bseip/MentorGraphics/Sourcery_CodeBench_Lite_for_ARM_EABI/arm-none-eabi/lib/libstdc++.a(string-inst.o)
 .group         0x00000000       0x10 /home/bseip/MentorGraphics/Sourcery_CodeBench_Lite_for_ARM_EABI/arm-none-eabi/lib/libstdc++.a(string-inst.o)
 .group         0x00000000       0x10 /home/bseip/MentorGraphics/Sourcery_CodeBench_Lite_for_ARM_EABI/arm-none-eabi/lib/libstdc++.a(string-inst.o)
 .group         0x00000000       0x10 /home/bseip/MentorGraphics/Sourcery_CodeBench_Lite_for_ARM_EABI/arm-none-eabi/lib/libstdc++.a(string-inst.o)
 .group         0x00000000       0x10 /home/bseip/MentorGraphics/Sourcery_CodeBench_Lite_for_ARM_EABI/arm-none-eabi/lib/libstdc++.a(string-inst.o)
 .group         0x00000000       0x10 /home/bseip/MentorGraphics/Sourcery_CodeBench_Lite_for_ARM_EABI/arm-none-eabi/lib/libstdc++.a(string-inst.o)
 .group         0x00000000       0x10 /home/bseip/MentorGraphics/Sourcery_CodeBench_Lite_for_ARM_EABI/arm-none-eabi/lib/libstdc++.a(string-inst.o)
 .group         0x00000000       0x10 /home/bseip/MentorGraphics/Sourcery_CodeBench_Lite_for_ARM_EABI/arm-none-eabi/lib/libstdc++.a(string-inst.o)
 .group         0x00000000       0x10 /home/bseip/MentorGraphics/Sourcery_CodeBench_Lite_for_ARM_EABI/arm-none-eabi/lib/libstdc++.a(string-inst.o)
 .group         0x00000000       0x10 /home/bseip/MentorGraphics/Sourcery_CodeBench_Lite_for_ARM_EABI/arm-none-eabi/lib/libstdc++.a(string-inst.o)
 .group         0x00000000       0x10 /home/bseip/MentorGraphics/Sourcery_CodeBench_Lite_for_ARM_EABI/arm-none-eabi/lib/libstdc++.a(string-inst.o)
 .group         0x00000000       0x10 /home/bseip/MentorGraphics/Sourcery_CodeBench_Lite_for_ARM_EABI/arm-none-eabi/lib/libstdc++.a(string-inst.o)
 .group         0x00000000       0x10 /home/bseip/MentorGraphics/Sourcery_CodeBench_Lite_for_ARM_EABI/arm-none-eabi/lib/libstdc++.a(string-inst.o)
 .group         0x00000000       0x10 /home/bseip/MentorGraphics/Sourcery_CodeBench_Lite_for_ARM_EABI/arm-none-eabi/lib/libstdc++.a(string-inst.o)
 .group         0x00000000       0x10 /home/bseip/MentorGraphics/Sourcery_CodeBench_Lite_for_ARM_EABI/arm-none-eabi/lib/libstdc++.a(string-inst.o)
 .group         0x00000000       0x10 /home/bseip/MentorGraphics/Sourcery_CodeBench_Lite_for_ARM_EABI/arm-none-eabi/lib/libstdc++.a(string-inst.o)
 .group         0x00000000       0x10 /home/bseip/MentorGraphics/Sourcery_CodeBench_Lite_for_ARM_EABI/arm-none-eabi/lib/libstdc++.a(string-inst.o)
 .group         0x00000000       0x10 /home/bseip/MentorGraphics/Sourcery_CodeBench_Lite_for_ARM_EABI/arm-none-eabi/lib/libstdc++.a(string-inst.o)
 .group         0x00000000       0x10 /home/bseip/MentorGraphics/Sourcery_CodeBench_Lite_for_ARM_EABI/arm-none-eabi/lib/libstdc++.a(string-inst.o)
 .group         0x00000000       0x10 /home/bseip/MentorGraphics/Sourcery_CodeBench_Lite_for_ARM_EABI/arm-none-eabi/lib/libstdc++.a(string-inst.o)
 .group         0x00000000       0x10 /home/bseip/MentorGraphics/Sourcery_CodeBench_Lite_for_ARM_EABI/arm-none-eabi/lib/libstdc++.a(string-inst.o)
 .group         0x00000000       0x10 /home/bseip/MentorGraphics/Sourcery_CodeBench_Lite_for_ARM_EABI/arm-none-eabi/lib/libstdc++.a(string-inst.o)
 .group         0x00000000       0x10 /home/bseip/MentorGraphics/Sourcery_CodeBench_Lite_for_ARM_EABI/arm-none-eabi/lib/libstdc++.a(string-inst.o)
 .group         0x00000000       0x10 /home/bseip/MentorGraphics/Sourcery_CodeBench_Lite_for_ARM_EABI/arm-none-eabi/lib/libstdc++.a(string-inst.o)
 .group         0x00000000       0x10 /home/bseip/MentorGraphics/Sourcery_CodeBench_Lite_for_ARM_EABI/arm-none-eabi/lib/libstdc++.a(string-inst.o)
 .group         0x00000000       0x10 /home/bseip/MentorGraphics/Sourcery_CodeBench_Lite_for_ARM_EABI/arm-none-eabi/lib/libstdc++.a(string-inst.o)
 .group         0x00000000       0x10 /home/bseip/MentorGraphics/Sourcery_CodeBench_Lite_for_ARM_EABI/arm-none-eabi/lib/libstdc++.a(string-inst.o)
 .group         0x00000000       0x10 /home/bseip/MentorGraphics/Sourcery_CodeBench_Lite_for_ARM_EABI/arm-none-eabi/lib/libstdc++.a(string-inst.o)
 .group         0x00000000       0x10 /home/bseip/MentorGraphics/Sourcery_CodeBench_Lite_for_ARM_EABI/arm-none-eabi/lib/libstdc++.a(string-inst.o)
 .group         0x00000000       0x10 /home/bseip/MentorGraphics/Sourcery_CodeBench_Lite_for_ARM_EABI/arm-none-eabi/lib/libstdc++.a(string-inst.o)
 .group         0x00000000       0x10 /home/bseip/MentorGraphics/Sourcery_CodeBench_Lite_for_ARM_EABI/arm-none-eabi/lib/libstdc++.a(string-inst.o)
 .group         0x00000000       0x10 /home/bseip/MentorGraphics/Sourcery_CodeBench_Lite_for_ARM_EABI/arm-none-eabi/lib/libstdc++.a(string-inst.o)
 .group         0x00000000       0x10 /home/bseip/MentorGraphics/Sourcery_CodeBench_Lite_for_ARM_EABI/arm-none-eabi/lib/libstdc++.a(string-inst.o)
 .group         0x00000000       0x10 /home/bseip/MentorGraphics/Sourcery_CodeBench_Lite_for_ARM_EABI/arm-none-eabi/lib/libstdc++.a(string-inst.o)
 .group         0x00000000       0x10 /home/bseip/MentorGraphics/Sourcery_CodeBench_Lite_for_ARM_EABI/arm-none-eabi/lib/libstdc++.a(string-inst.o)
 .group         0x00000000       0x10 /home/bseip/MentorGraphics/Sourcery_CodeBench_Lite_for_ARM_EABI/arm-none-eabi/lib/libstdc++.a(string-inst.o)
 .group         0x00000000       0x10 /home/bseip/MentorGraphics/Sourcery_CodeBench_Lite_for_ARM_EABI/arm-none-eabi/lib/libstdc++.a(string-inst.o)
 .group         0x00000000       0x10 /home/bseip/MentorGraphics/Sourcery_CodeBench_Lite_for_ARM_EABI/arm-none-eabi/lib/libstdc++.a(string-inst.o)
 .group         0x00000000       0x10 /home/bseip/MentorGraphics/Sourcery_CodeBench_Lite_for_ARM_EABI/arm-none-eabi/lib/libstdc++.a(string-inst.o)
 .group         0x00000000       0x10 /home/bseip/MentorGraphics/Sourcery_CodeBench_Lite_for_ARM_EABI/arm-none-eabi/lib/libstdc++.a(string-inst.o)
 .group         0x00000000       0x10 /home/bseip/MentorGraphics/Sourcery_CodeBench_Lite_for_ARM_EABI/arm-none-eabi/lib/libstdc++.a(string-inst.o)
 .group         0x00000000       0x10 /home/bseip/MentorGraphics/Sourcery_CodeBench_Lite_for_ARM_EABI/arm-none-eabi/lib/libstdc++.a(string-inst.o)
 .group         0x00000000       0x10 /home/bseip/MentorGraphics/Sourcery_CodeBench_Lite_for_ARM_EABI/arm-none-eabi/lib/libstdc++.a(string-inst.o)
 .group         0x00000000       0x10 /home/bseip/MentorGraphics/Sourcery_CodeBench_Lite_for_ARM_EABI/arm-none-eabi/lib/libstdc++.a(string-inst.o)
 .group         0x00000000       0x10 /home/bseip/MentorGraphics/Sourcery_CodeBench_Lite_for_ARM_EABI/arm-none-eabi/lib/libstdc++.a(string-inst.o)
 .group         0x00000000       0x10 /home/bseip/MentorGraphics/Sourcery_CodeBench_Lite_for_ARM_EABI/arm-none-eabi/lib/libstdc++.a(string-inst.o)
 .group         0x00000000       0x10 /home/bseip/MentorGraphics/Sourcery_CodeBench_Lite_for_ARM_EABI/arm-none-eabi/lib/libstdc++.a(string-inst.o)
 .group         0x00000000       0x10 /home/bseip/MentorGraphics/Sourcery_CodeBench_Lite_for_ARM_EABI/arm-none-eabi/lib/libstdc++.a(string-inst.o)
 .group         0x00000000       0x10 /home/bseip/MentorGraphics/Sourcery_CodeBench_Lite_for_ARM_EABI/arm-none-eabi/lib/libstdc++.a(string-inst.o)
 .group         0x00000000       0x10 /home/bseip/MentorGraphics/Sourcery_CodeBench_Lite_for_ARM_EABI/arm-none-eabi/lib/libstdc++.a(string-inst.o)
 .group         0x00000000       0x10 /home/bseip/MentorGraphics/Sourcery_CodeBench_Lite_for_ARM_EABI/arm-none-eabi/lib/libstdc++.a(string-inst.o)
 .group         0x00000000       0x10 /home/bseip/MentorGraphics/Sourcery_CodeBench_Lite_for_ARM_EABI/arm-none-eabi/lib/libstdc++.a(string-inst.o)
 .group         0x00000000       0x10 /home/bseip/MentorGraphics/Sourcery_CodeBench_Lite_for_ARM_EABI/arm-none-eabi/lib/libstdc++.a(string-inst.o)
 .group         0x00000000       0x10 /home/bseip/MentorGraphics/Sourcery_CodeBench_Lite_for_ARM_EABI/arm-none-eabi/lib/libstdc++.a(string-inst.o)
 .group         0x00000000       0x10 /home/bseip/MentorGraphics/Sourcery_CodeBench_Lite_for_ARM_EABI/arm-none-eabi/lib/libstdc++.a(string-inst.o)
 .group         0x00000000       0x10 /home/bseip/MentorGraphics/Sourcery_CodeBench_Lite_for_ARM_EABI/arm-none-eabi/lib/libstdc++.a(string-inst.o)
 .group         0x00000000       0x10 /home/bseip/MentorGraphics/Sourcery_CodeBench_Lite_for_ARM_EABI/arm-none-eabi/lib/libstdc++.a(string-inst.o)
 .group         0x00000000       0x10 /home/bseip/MentorGraphics/Sourcery_CodeBench_Lite_for_ARM_EABI/arm-none-eabi/lib/libstdc++.a(string-inst.o)
 .group         0x00000000       0x10 /home/bseip/MentorGraphics/Sourcery_CodeBench_Lite_for_ARM_EABI/arm-none-eabi/lib/libstdc++.a(string-inst.o)
 .group         0x00000000       0x10 /home/bseip/MentorGraphics/Sourcery_CodeBench_Lite_for_ARM_EABI/arm-none-eabi/lib/libstdc++.a(string-inst.o)
 .group         0x00000000       0x10 /home/bseip/MentorGraphics/Sourcery_CodeBench_Lite_for_ARM_EABI/arm-none-eabi/lib/libstdc++.a(string-inst.o)
 .group         0x00000000       0x10 /home/bseip/MentorGraphics/Sourcery_CodeBench_Lite_for_ARM_EABI/arm-none-eabi/lib/libstdc++.a(string-inst.o)
 .group         0x00000000       0x10 /home/bseip/MentorGraphics/Sourcery_CodeBench_Lite_for_ARM_EABI/arm-none-eabi/lib/libstdc++.a(string-inst.o)
 .group         0x00000000       0x10 /home/bseip/MentorGraphics/Sourcery_CodeBench_Lite_for_ARM_EABI/arm-none-eabi/lib/libstdc++.a(string-inst.o)
 .group         0x00000000       0x10 /home/bseip/MentorGraphics/Sourcery_CodeBench_Lite_for_ARM_EABI/arm-none-eabi/lib/libstdc++.a(string-inst.o)
 .group         0x00000000       0x10 /home/bseip/MentorGraphics/Sourcery_CodeBench_Lite_for_ARM_EABI/arm-none-eabi/lib/libstdc++.a(string-inst.o)
 .group         0x00000000       0x10 /home/bseip/MentorGraphics/Sourcery_CodeBench_Lite_for_ARM_EABI/arm-none-eabi/lib/libstdc++.a(string-inst.o)
 .group         0x00000000       0x10 /home/bseip/MentorGraphics/Sourcery_CodeBench_Lite_for_ARM_EABI/arm-none-eabi/lib/libstdc++.a(string-inst.o)
 .group         0x00000000       0x10 /home/bseip/MentorGraphics/Sourcery_CodeBench_Lite_for_ARM_EABI/arm-none-eabi/lib/libstdc++.a(string-inst.o)
 .group         0x00000000       0x10 /home/bseip/MentorGraphics/Sourcery_CodeBench_Lite_for_ARM_EABI/arm-none-eabi/lib/libstdc++.a(string-inst.o)
 .group         0x00000000       0x10 /home/bseip/MentorGraphics/Sourcery_CodeBench_Lite_for_ARM_EABI/arm-none-eabi/lib/libstdc++.a(string-inst.o)
 .group         0x00000000       0x10 /home/bseip/MentorGraphics/Sourcery_CodeBench_Lite_for_ARM_EABI/arm-none-eabi/lib/libstdc++.a(string-inst.o)
 .group         0x00000000       0x10 /home/bseip/MentorGraphics/Sourcery_CodeBench_Lite_for_ARM_EABI/arm-none-eabi/lib/libstdc++.a(string-inst.o)
 .group         0x00000000       0x10 /home/bseip/MentorGraphics/Sourcery_CodeBench_Lite_for_ARM_EABI/arm-none-eabi/lib/libstdc++.a(string-inst.o)
 .group         0x00000000       0x10 /home/bseip/MentorGraphics/Sourcery_CodeBench_Lite_for_ARM_EABI/arm-none-eabi/lib/libstdc++.a(string-inst.o)
 .group         0x00000000       0x10 /home/bseip/MentorGraphics/Sourcery_CodeBench_Lite_for_ARM_EABI/arm-none-eabi/lib/libstdc++.a(string-inst.o)
 .group         0x00000000       0x10 /home/bseip/MentorGraphics/Sourcery_CodeBench_Lite_for_ARM_EABI/arm-none-eabi/lib/libstdc++.a(string-inst.o)
 .group         0x00000000       0x10 /home/bseip/MentorGraphics/Sourcery_CodeBench_Lite_for_ARM_EABI/arm-none-eabi/lib/libstdc++.a(string-inst.o)
 .group         0x00000000       0x10 /home/bseip/MentorGraphics/Sourcery_CodeBench_Lite_for_ARM_EABI/arm-none-eabi/lib/libstdc++.a(string-inst.o)
 .group         0x00000000       0x10 /home/bseip/MentorGraphics/Sourcery_CodeBench_Lite_for_ARM_EABI/arm-none-eabi/lib/libstdc++.a(string-inst.o)
 .group         0x00000000       0x10 /home/bseip/MentorGraphics/Sourcery_CodeBench_Lite_for_ARM_EABI/arm-none-eabi/lib/libstdc++.a(string-inst.o)
 .group         0x00000000       0x10 /home/bseip/MentorGraphics/Sourcery_CodeBench_Lite_for_ARM_EABI/arm-none-eabi/lib/libstdc++.a(string-inst.o)
 .group         0x00000000       0x10 /home/bseip/MentorGraphics/Sourcery_CodeBench_Lite_for_ARM_EABI/arm-none-eabi/lib/libstdc++.a(string-inst.o)
 .group         0x00000000       0x10 /home/bseip/MentorGraphics/Sourcery_CodeBench_Lite_for_ARM_EABI/arm-none-eabi/lib/libstdc++.a(string-inst.o)
 .group         0x00000000       0x10 /home/bseip/MentorGraphics/Sourcery_CodeBench_Lite_for_ARM_EABI/arm-none-eabi/lib/libstdc++.a(string-inst.o)
 .group         0x00000000       0x10 /home/bseip/MentorGraphics/Sourcery_CodeBench_Lite_for_ARM_EABI/arm-none-eabi/lib/libstdc++.a(string-inst.o)
 .group         0x00000000       0x10 /home/bseip/MentorGraphics/Sourcery_CodeBench_Lite_for_ARM_EABI/arm-none-eabi/lib/libstdc++.a(string-inst.o)
 .group         0x00000000       0x10 /home/bseip/MentorGraphics/Sourcery_CodeBench_Lite_for_ARM_EABI/arm-none-eabi/lib/libstdc++.a(string-inst.o)
 .group         0x00000000       0x10 /home/bseip/MentorGraphics/Sourcery_CodeBench_Lite_for_ARM_EABI/arm-none-eabi/lib/libstdc++.a(string-inst.o)
 .group         0x00000000       0x10 /home/bseip/MentorGraphics/Sourcery_CodeBench_Lite_for_ARM_EABI/arm-none-eabi/lib/libstdc++.a(string-inst.o)
 .group         0x00000000       0x10 /home/bseip/MentorGraphics/Sourcery_CodeBench_Lite_for_ARM_EABI/arm-none-eabi/lib/libstdc++.a(string-inst.o)
 .group         0x00000000       0x10 /home/bseip/MentorGraphics/Sourcery_CodeBench_Lite_for_ARM_EABI/arm-none-eabi/lib/libstdc++.a(string-inst.o)
 .group         0x00000000       0x10 /home/bseip/MentorGraphics/Sourcery_CodeBench_Lite_for_ARM_EABI/arm-none-eabi/lib/libstdc++.a(string-inst.o)
 .group         0x00000000       0x10 /home/bseip/MentorGraphics/Sourcery_CodeBench_Lite_for_ARM_EABI/arm-none-eabi/lib/libstdc++.a(string-inst.o)
 .group         0x00000000       0x10 /home/bseip/MentorGraphics/Sourcery_CodeBench_Lite_for_ARM_EABI/arm-none-eabi/lib/libstdc++.a(string-inst.o)
 .group         0x00000000       0x10 /home/bseip/MentorGraphics/Sourcery_CodeBench_Lite_for_ARM_EABI/arm-none-eabi/lib/libstdc++.a(string-inst.o)
 .group         0x00000000       0x10 /home/bseip/MentorGraphics/Sourcery_CodeBench_Lite_for_ARM_EABI/arm-none-eabi/lib/libstdc++.a(string-inst.o)
 .group         0x00000000       0x10 /home/bseip/MentorGraphics/Sourcery_CodeBench_Lite_for_ARM_EABI/arm-none-eabi/lib/libstdc++.a(string-inst.o)
 .group         0x00000000       0x10 /home/bseip/MentorGraphics/Sourcery_CodeBench_Lite_for_ARM_EABI/arm-none-eabi/lib/libstdc++.a(string-inst.o)
 .group         0x00000000       0x10 /home/bseip/MentorGraphics/Sourcery_CodeBench_Lite_for_ARM_EABI/arm-none-eabi/lib/libstdc++.a(string-inst.o)
 .group         0x00000000       0x10 /home/bseip/MentorGraphics/Sourcery_CodeBench_Lite_for_ARM_EABI/arm-none-eabi/lib/libstdc++.a(string-inst.o)
 .group         0x00000000       0x10 /home/bseip/MentorGraphics/Sourcery_CodeBench_Lite_for_ARM_EABI/arm-none-eabi/lib/libstdc++.a(string-inst.o)
 .group         0x00000000       0x10 /home/bseip/MentorGraphics/Sourcery_CodeBench_Lite_for_ARM_EABI/arm-none-eabi/lib/libstdc++.a(string-inst.o)
 .group         0x00000000       0x10 /home/bseip/MentorGraphics/Sourcery_CodeBench_Lite_for_ARM_EABI/arm-none-eabi/lib/libstdc++.a(string-inst.o)
 .group         0x00000000       0x10 /home/bseip/MentorGraphics/Sourcery_CodeBench_Lite_for_ARM_EABI/arm-none-eabi/lib/libstdc++.a(string-inst.o)
 .group         0x00000000       0x10 /home/bseip/MentorGraphics/Sourcery_CodeBench_Lite_for_ARM_EABI/arm-none-eabi/lib/libstdc++.a(string-inst.o)
 .group         0x00000000       0x10 /home/bseip/MentorGraphics/Sourcery_CodeBench_Lite_for_ARM_EABI/arm-none-eabi/lib/libstdc++.a(string-inst.o)
 .group         0x00000000       0x10 /home/bseip/MentorGraphics/Sourcery_CodeBench_Lite_for_ARM_EABI/arm-none-eabi/lib/libstdc++.a(string-inst.o)
 .group         0x00000000       0x10 /home/bseip/MentorGraphics/Sourcery_CodeBench_Lite_for_ARM_EABI/arm-none-eabi/lib/libstdc++.a(string-inst.o)
 .group         0x00000000       0x10 /home/bseip/MentorGraphics/Sourcery_CodeBench_Lite_for_ARM_EABI/arm-none-eabi/lib/libstdc++.a(string-inst.o)
 .group         0x00000000       0x10 /home/bseip/MentorGraphics/Sourcery_CodeBench_Lite_for_ARM_EABI/arm-none-eabi/lib/libstdc++.a(string-inst.o)
 .group         0x00000000       0x10 /home/bseip/MentorGraphics/Sourcery_CodeBench_Lite_for_ARM_EABI/arm-none-eabi/lib/libstdc++.a(string-inst.o)
 .group         0x00000000       0x10 /home/bseip/MentorGraphics/Sourcery_CodeBench_Lite_for_ARM_EABI/arm-none-eabi/lib/libstdc++.a(string-inst.o)
 .group         0x00000000       0x10 /home/bseip/MentorGraphics/Sourcery_CodeBench_Lite_for_ARM_EABI/arm-none-eabi/lib/libstdc++.a(string-inst.o)
 .group         0x00000000       0x10 /home/bseip/MentorGraphics/Sourcery_CodeBench_Lite_for_ARM_EABI/arm-none-eabi/lib/libstdc++.a(string-inst.o)
 .group         0x00000000       0x10 /home/bseip/MentorGraphics/Sourcery_CodeBench_Lite_for_ARM_EABI/arm-none-eabi/lib/libstdc++.a(string-inst.o)
 .group         0x00000000       0x10 /home/bseip/MentorGraphics/Sourcery_CodeBench_Lite_for_ARM_EABI/arm-none-eabi/lib/libstdc++.a(string-inst.o)
 .group         0x00000000       0x10 /home/bseip/MentorGraphics/Sourcery_CodeBench_Lite_for_ARM_EABI/arm-none-eabi/lib/libstdc++.a(string-inst.o)
 .group         0x00000000       0x10 /home/bseip/MentorGraphics/Sourcery_CodeBench_Lite_for_ARM_EABI/arm-none-eabi/lib/libstdc++.a(string-inst.o)
 .group         0x00000000       0x10 /home/bseip/MentorGraphics/Sourcery_CodeBench_Lite_for_ARM_EABI/arm-none-eabi/lib/libstdc++.a(string-inst.o)
 .group         0x00000000       0x10 /home/bseip/MentorGraphics/Sourcery_CodeBench_Lite_for_ARM_EABI/arm-none-eabi/lib/libstdc++.a(string-inst.o)
 .group         0x00000000       0x10 /home/bseip/MentorGraphics/Sourcery_CodeBench_Lite_for_ARM_EABI/arm-none-eabi/lib/libstdc++.a(string-inst.o)
 .group         0x00000000       0x10 /home/bseip/MentorGraphics/Sourcery_CodeBench_Lite_for_ARM_EABI/arm-none-eabi/lib/libstdc++.a(string-inst.o)
 .group         0x00000000       0x10 /home/bseip/MentorGraphics/Sourcery_CodeBench_Lite_for_ARM_EABI/arm-none-eabi/lib/libstdc++.a(string-inst.o)
 .group         0x00000000       0x10 /home/bseip/MentorGraphics/Sourcery_CodeBench_Lite_for_ARM_EABI/arm-none-eabi/lib/libstdc++.a(string-inst.o)
 .group         0x00000000       0x10 /home/bseip/MentorGraphics/Sourcery_CodeBench_Lite_for_ARM_EABI/arm-none-eabi/lib/libstdc++.a(string-inst.o)
 .group         0x00000000       0x10 /home/bseip/MentorGraphics/Sourcery_CodeBench_Lite_for_ARM_EABI/arm-none-eabi/lib/libstdc++.a(string-inst.o)
 .group         0x00000000       0x10 /home/bseip/MentorGraphics/Sourcery_CodeBench_Lite_for_ARM_EABI/arm-none-eabi/lib/libstdc++.a(string-inst.o)
 .group         0x00000000       0x10 /home/bseip/MentorGraphics/Sourcery_CodeBench_Lite_for_ARM_EABI/arm-none-eabi/lib/libstdc++.a(string-inst.o)
 .group         0x00000000       0x10 /home/bseip/MentorGraphics/Sourcery_CodeBench_Lite_for_ARM_EABI/arm-none-eabi/lib/libstdc++.a(string-inst.o)
 .group         0x00000000       0x10 /home/bseip/MentorGraphics/Sourcery_CodeBench_Lite_for_ARM_EABI/arm-none-eabi/lib/libstdc++.a(string-inst.o)
 .group         0x00000000       0x10 /home/bseip/MentorGraphics/Sourcery_CodeBench_Lite_for_ARM_EABI/arm-none-eabi/lib/libstdc++.a(string-inst.o)
 .group         0x00000000       0x10 /home/bseip/MentorGraphics/Sourcery_CodeBench_Lite_for_ARM_EABI/arm-none-eabi/lib/libstdc++.a(string-inst.o)
 .group         0x00000000       0x10 /home/bseip/MentorGraphics/Sourcery_CodeBench_Lite_for_ARM_EABI/arm-none-eabi/lib/libstdc++.a(string-inst.o)
 .group         0x00000000       0x10 /home/bseip/MentorGraphics/Sourcery_CodeBench_Lite_for_ARM_EABI/arm-none-eabi/lib/libstdc++.a(string-inst.o)
 .group         0x00000000       0x10 /home/bseip/MentorGraphics/Sourcery_CodeBench_Lite_for_ARM_EABI/arm-none-eabi/lib/libstdc++.a(string-inst.o)
 .group         0x00000000       0x10 /home/bseip/MentorGraphics/Sourcery_CodeBench_Lite_for_ARM_EABI/arm-none-eabi/lib/libstdc++.a(string-inst.o)
 .group         0x00000000       0x10 /home/bseip/MentorGraphics/Sourcery_CodeBench_Lite_for_ARM_EABI/arm-none-eabi/lib/libstdc++.a(string-inst.o)
 .group         0x00000000       0x10 /home/bseip/MentorGraphics/Sourcery_CodeBench_Lite_for_ARM_EABI/arm-none-eabi/lib/libstdc++.a(string-inst.o)
 .group         0x00000000       0x10 /home/bseip/MentorGraphics/Sourcery_CodeBench_Lite_for_ARM_EABI/arm-none-eabi/lib/libstdc++.a(string-inst.o)
 .group         0x00000000       0x10 /home/bseip/MentorGraphics/Sourcery_CodeBench_Lite_for_ARM_EABI/arm-none-eabi/lib/libstdc++.a(string-inst.o)
 .group         0x00000000       0x10 /home/bseip/MentorGraphics/Sourcery_CodeBench_Lite_for_ARM_EABI/arm-none-eabi/lib/libstdc++.a(string-inst.o)
 .group         0x00000000       0x10 /home/bseip/MentorGraphics/Sourcery_CodeBench_Lite_for_ARM_EABI/arm-none-eabi/lib/libstdc++.a(string-inst.o)
 .group         0x00000000       0x10 /home/bseip/MentorGraphics/Sourcery_CodeBench_Lite_for_ARM_EABI/arm-none-eabi/lib/libstdc++.a(string-inst.o)
 .group         0x00000000       0x10 /home/bseip/MentorGraphics/Sourcery_CodeBench_Lite_for_ARM_EABI/arm-none-eabi/lib/libstdc++.a(string-inst.o)
 .group         0x00000000       0x10 /home/bseip/MentorGraphics/Sourcery_CodeBench_Lite_for_ARM_EABI/arm-none-eabi/lib/libstdc++.a(string-inst.o)
 .group         0x00000000       0x10 /home/bseip/MentorGraphics/Sourcery_CodeBench_Lite_for_ARM_EABI/arm-none-eabi/lib/libstdc++.a(string-inst.o)
 .group         0x00000000       0x10 /home/bseip/MentorGraphics/Sourcery_CodeBench_Lite_for_ARM_EABI/arm-none-eabi/lib/libstdc++.a(string-inst.o)
 .group         0x00000000       0x10 /home/bseip/MentorGraphics/Sourcery_CodeBench_Lite_for_ARM_EABI/arm-none-eabi/lib/libstdc++.a(string-inst.o)
 .group         0x00000000       0x10 /home/bseip/MentorGraphics/Sourcery_CodeBench_Lite_for_ARM_EABI/arm-none-eabi/lib/libstdc++.a(string-inst.o)
 .group         0x00000000       0x10 /home/bseip/MentorGraphics/Sourcery_CodeBench_Lite_for_ARM_EABI/arm-none-eabi/lib/libstdc++.a(string-inst.o)
 .group         0x00000000       0x10 /home/bseip/MentorGraphics/Sourcery_CodeBench_Lite_for_ARM_EABI/arm-none-eabi/lib/libstdc++.a(string-inst.o)
 .group         0x00000000       0x10 /home/bseip/MentorGraphics/Sourcery_CodeBench_Lite_for_ARM_EABI/arm-none-eabi/lib/libstdc++.a(string-inst.o)
 .group         0x00000000       0x10 /home/bseip/MentorGraphics/Sourcery_CodeBench_Lite_for_ARM_EABI/arm-none-eabi/lib/libstdc++.a(string-inst.o)
 .group         0x00000000       0x10 /home/bseip/MentorGraphics/Sourcery_CodeBench_Lite_for_ARM_EABI/arm-none-eabi/lib/libstdc++.a(string-inst.o)
 .group         0x00000000       0x10 /home/bseip/MentorGraphics/Sourcery_CodeBench_Lite_for_ARM_EABI/arm-none-eabi/lib/libstdc++.a(string-inst.o)
 .group         0x00000000       0x10 /home/bseip/MentorGraphics/Sourcery_CodeBench_Lite_for_ARM_EABI/arm-none-eabi/lib/libstdc++.a(string-inst.o)
 .group         0x00000000       0x10 /home/bseip/MentorGraphics/Sourcery_CodeBench_Lite_for_ARM_EABI/arm-none-eabi/lib/libstdc++.a(string-inst.o)
 .group         0x00000000       0x10 /home/bseip/MentorGraphics/Sourcery_CodeBench_Lite_for_ARM_EABI/arm-none-eabi/lib/libstdc++.a(string-inst.o)
 .group         0x00000000       0x10 /home/bseip/MentorGraphics/Sourcery_CodeBench_Lite_for_ARM_EABI/arm-none-eabi/lib/libstdc++.a(string-inst.o)
 .group         0x00000000       0x10 /home/bseip/MentorGraphics/Sourcery_CodeBench_Lite_for_ARM_EABI/arm-none-eabi/lib/libstdc++.a(string-inst.o)
 .group         0x00000000       0x10 /home/bseip/MentorGraphics/Sourcery_CodeBench_Lite_for_ARM_EABI/arm-none-eabi/lib/libstdc++.a(string-inst.o)
 .group         0x00000000       0x10 /home/bseip/MentorGraphics/Sourcery_CodeBench_Lite_for_ARM_EABI/arm-none-eabi/lib/libstdc++.a(string-inst.o)
 .group         0x00000000       0x10 /home/bseip/MentorGraphics/Sourcery_CodeBench_Lite_for_ARM_EABI/arm-none-eabi/lib/libstdc++.a(string-inst.o)
 .group         0x00000000       0x10 /home/bseip/MentorGraphics/Sourcery_CodeBench_Lite_for_ARM_EABI/arm-none-eabi/lib/libstdc++.a(string-inst.o)
 .group         0x00000000       0x10 /home/bseip/MentorGraphics/Sourcery_CodeBench_Lite_for_ARM_EABI/arm-none-eabi/lib/libstdc++.a(string-inst.o)
 .group         0x00000000       0x10 /home/bseip/MentorGraphics/Sourcery_CodeBench_Lite_for_ARM_EABI/arm-none-eabi/lib/libstdc++.a(string-inst.o)
 .group         0x00000000       0x10 /home/bseip/MentorGraphics/Sourcery_CodeBench_Lite_for_ARM_EABI/arm-none-eabi/lib/libstdc++.a(string-inst.o)
 .group         0x00000000       0x10 /home/bseip/MentorGraphics/Sourcery_CodeBench_Lite_for_ARM_EABI/arm-none-eabi/lib/libstdc++.a(string-inst.o)
 .group         0x00000000       0x10 /home/bseip/MentorGraphics/Sourcery_CodeBench_Lite_for_ARM_EABI/arm-none-eabi/lib/libstdc++.a(string-inst.o)
 .group         0x00000000       0x10 /home/bseip/MentorGraphics/Sourcery_CodeBench_Lite_for_ARM_EABI/arm-none-eabi/lib/libstdc++.a(string-inst.o)
 .group         0x00000000       0x10 /home/bseip/MentorGraphics/Sourcery_CodeBench_Lite_for_ARM_EABI/arm-none-eabi/lib/libstdc++.a(string-inst.o)
 .group         0x00000000       0x10 /home/bseip/MentorGraphics/Sourcery_CodeBench_Lite_for_ARM_EABI/arm-none-eabi/lib/libstdc++.a(string-inst.o)
 .group         0x00000000        0x8 /home/bseip/MentorGraphics/Sourcery_CodeBench_Lite_for_ARM_EABI/arm-none-eabi/lib/libstdc++.a(string-inst.o)
 .group         0x00000000        0x8 /home/bseip/MentorGraphics/Sourcery_CodeBench_Lite_for_ARM_EABI/arm-none-eabi/lib/libstdc++.a(string-inst.o)
 .group         0x00000000        0x8 /home/bseip/MentorGraphics/Sourcery_CodeBench_Lite_for_ARM_EABI/arm-none-eabi/lib/libstdc++.a(string-inst.o)
 .group         0x00000000        0x8 /home/bseip/MentorGraphics/Sourcery_CodeBench_Lite_for_ARM_EABI/arm-none-eabi/lib/libstdc++.a(string-inst.o)

Memory Configuration

Name             Origin             Length             Attributes
ram              0x00008000         0x0fff8000         xw
*default*        0x00000000         0xffffffff

Linker script and memory map

START GROUP
LOAD build/bcm2835.o
LOAD build/main.o
LOAD build/other.o
LOAD build/uart.o
LOAD build/gapi/binaries.o
LOAD build/gapi/bitmap.o
LOAD build/gapi/common.o
LOAD build/gapi/controlbutton.o
LOAD build/gapi/flipbook.o
LOAD build/gapi/font.o
LOAD build/gapi/memory_tracking.o
LOAD build/gapi/rectangle.o
LOAD build/gapi/screen.o
LOAD build/gapi/screenraspi.o
LOAD build/gapi/wconsole.o
LOAD build/gapi/window.o
LOAD build/syscalls.o
LOAD build/fonts/6x8.o
LOAD build/fonts/ComicSansMS10.o
LOAD build/fonts/ComicSansMS10.height.o
LOAD build/fonts/ComicSansMS10.width.o
LOAD build/fonts/ComicSansMS12.o
LOAD build/fonts/ComicSansMS12.height.o
LOAD build/fonts/ComicSansMS12.width.o
LOAD build/fonts/EGA_8x8.o
LOAD build/fonts/font6x8.o
LOAD build/fonts/font6x8_width.o
LOAD build/fonts/LucidaConsole10.o
LOAD build/fonts/LucidaConsole10.width.o
LOAD build/fonts/Noritake5x5.o
LOAD build/fonts/Noritake5x5.width.o
LOAD build/fonts/VGA_16x16.o
LOAD build/fatfs/diskio.o
LOAD build/fatfs/ff.o
LOAD build/mmc/block.o
LOAD build/mmc/emmc.o
LOAD build/mmc/mbox.o
LOAD build/mmc/mmio.o
LOAD build/mmc/timer.o
LOAD build/gpio.o
LOAD build/mailbox.o
LOAD build/screens.o
LOAD build/startup.o
LOAD /home/bseip/MentorGraphics/Sourcery_CodeBench_Lite_for_ARM_EABI/lib/gcc/arm-none-eabi/4.8.1/libgcc.a
LOAD /home/bseip/MentorGraphics/Sourcery_CodeBench_Lite_for_ARM_EABI/arm-none-eabi/lib/libc.a
LOAD /home/bseip/MentorGraphics/Sourcery_CodeBench_Lite_for_ARM_EABI/arm-none-eabi/lib/libcs3.a
LOAD /home/bseip/MentorGraphics/Sourcery_CodeBench_Lite_for_ARM_EABI/arm-none-eabi/lib/libcs3unhosted.a
LOAD /home/bseip/MentorGraphics/Sourcery_CodeBench_Lite_for_ARM_EABI/arm-none-eabi/lib/libcs3arm.a
LOAD /home/bseip/MentorGraphics/Sourcery_CodeBench_Lite_for_ARM_EABI/arm-none-eabi/lib/libstdc++.a
LOAD /home/bseip/MentorGraphics/Sourcery_CodeBench_Lite_for_ARM_EABI/lib/gcc/arm-none-eabi/4.8.1/crti.o
LOAD /home/bseip/MentorGraphics/Sourcery_CodeBench_Lite_for_ARM_EABI/lib/gcc/arm-none-eabi/4.8.1/crtbegin.o
LOAD /home/bseip/MentorGraphics/Sourcery_CodeBench_Lite_for_ARM_EABI/lib/gcc/arm-none-eabi/4.8.1/crtend.o
END GROUP

.init           0x00008000      0x200
 *(.init)
 .init          0x00008000      0x1f4 build/startup.o
                0x00008000                _start
                0x000080fc                stop
                0x0000810c                abort
                0x00008110                enable_irq
                0x00008118                enable_fiq
                0x00008120                PUT32
                0x00008128                GET32
                0x00008130                GETSP
                0x00008138                delay
                0x00008150                undef_handler
                0x00008160                swi_handler
                0x00008170                pabort_handler
                0x00008180                dabort_handler
                0x00008198                flush_cache
                0x000081a4                memory_barrier
                0x000081b0                read_sctlr
                0x000081b8                quick_memcpy
 .init          0x000081f4        0xc /home/bseip/MentorGraphics/Sourcery_CodeBench_Lite_for_ARM_EABI/lib/gcc/arm-none-eabi/4.8.1/crti.o
                0x000081f4                _init

.text           0x00008200    0x28930
                0x00008200                _TEXT_START_ = .
 *(.text)
 .text          0x00008200       0x60 build/bcm2835.o
                0x00008200                SetGpioOutput(unsigned long, unsigned long)
                0x00008204                SetGpioFunction
 .text          0x00008260      0x568 build/main.o
                0x00008260                serial_input()
                0x000082f0                printcmderror(int)
                0x00008320                findcommand()
                0x0000839c                printcmd(char)
                0x000083c8                printcmdvalue(char, short)
                0x000083f8                printcmdvaluehex(char, short)
                0x00008428                printcmdtext(char, char*)
                0x00008458                setup_1ms_timer
                0x000084ac                fiq_handler
                0x000084b0                irq_handler
                0x00008588                swapl(unsigned long)
                0x00008590                swapcat(unsigned long, unsigned long)
                0x000085b4                get_sysinfo(sysinfo_t*)
                0x00008748                print_sysinfo(sysinfo_t*)
 .text          0x000087c8        0x0 build/other.o
 .text          0x000087c8      0x1c0 build/uart.o
                0x000087c8                _uart_getc
                0x000087ec                _uart_putc
                0x0000880c                hexstrings
                0x00008870                hexstring
                0x000088b4                _uart_writes
                0x000088ec                _uart_init
 .text          0x00008988        0x0 build/gapi/binaries.o
 .text          0x00008988      0xf00 build/gapi/bitmap.o
                0x00008988                Bitmap::_initialize()
                0x000089c4                Bitmap::Bitmap(short, short)
                0x000089c4                Bitmap::Bitmap(short, short)
                0x00008a30                Bitmap::Bitmap(short, short, unsigned short*)
                0x00008a30                Bitmap::Bitmap(short, short, unsigned short*)
                0x00008a78                Bitmap::Bitmap(short)
                0x00008a78                Bitmap::Bitmap(short)
                0x00008b04                Bitmap::~Bitmap()
                0x00008b04                Bitmap::~Bitmap()
                0x00008b44                Bitmap::DecompressRLE16(unsigned short*, unsigned short*, unsigned short*)
                0x00008bc8                Bitmap::DecompressRLE8(unsigned char*, unsigned char*, unsigned char*)
                0x00008c70                Bitmap::Load()
                0x00008cf0                Bitmap::Bitmap(unsigned short*, bool)
                0x00008cf0                Bitmap::Bitmap(unsigned short*, bool)
                0x00008d7c                Bitmap::Bitmap(short, short, bool)
                0x00008d7c                Bitmap::Bitmap(short, short, bool)
                0x00008e40                Bitmap::Unload()
                0x00008e84                Bitmap::IsValid()
                0x00008e8c                Bitmap::Height()
                0x00008e94                Bitmap::Width()
                0x00008e9c                Bitmap::GetImageBuffer()
                0x00008ea4                Bitmap::GetAlphaBuffer()
                0x00008eac                Bitmap::Clear(unsigned short)
                0x00008ebc                Bitmap::DrawBitmap(Bitmap*, int, int)
                0x00009018                Bitmap::DrawBitmapAlpha(Bitmap*, int, int)
                0x00009204                Bitmap::DrawBitmapAlphaFixed(Bitmap*, unsigned char, int, int)
                0x000093b0                Bitmap::DrawText(Font*, Rectangle*, char const*, unsigned short)
                0x0000958c                Bitmap::DrawRectangle(Rectangle*, unsigned short, unsigned short)
                0x0000965c                Bitmap::DrawLine(Point*, Point*, unsigned short, unsigned short)
                0x00009660                Bitmap::FillRectangle(Rectangle*, unsigned short)
                0x00009664                Bitmap::FillRectangle(unsigned short, unsigned short, unsigned short, unsigned short, unsigned short)
                0x00009718                Bitmap::SetAlpha(unsigned char)
                0x0000972c                Bitmap::CopyBufferVRAM(Bitmap*)
                0x00009730                Bitmap::CopyBuffer(Bitmap*)
                0x00009768                Bitmap::FadeLow(unsigned char)
                0x000097e0                Bitmap::FadeHigh(unsigned char)
                0x00009858                Bitmap::LoadCompressedFile(unsigned short*)
 .text          0x00009888      0x84c build/gapi/common.o
                0x00009888                InitGBFS()
                0x0000988c                LoadFile(unsigned short)
                0x00009894                LoadFileCopy(unsigned short)
                0x0000989c                FileSize(unsigned short)
                0x000098a4                __DebugPrint(char*)
                0x000098b0                DebugPrint(char const*)
                0x000098b4                bitblt16rle(unsigned short*, unsigned short, unsigned short, unsigned short, unsigned short*)
                0x000099e8                bitblt8rle(unsigned char*, unsigned short, unsigned short, unsigned short, unsigned char*)
                0x00009b8c                bitblt(unsigned char*, unsigned short, unsigned short, unsigned short, unsigned char*, unsigned short, unsigned short)
                0x00009b90                bitblt16(unsigned short*, unsigned short, unsigned short, short, short, unsigned short*, unsigned short, unsigned short)
                0x00009cc4                bitblt16alpha(unsigned short*, unsigned short*, unsigned char*, unsigned short, unsigned short, short, short, unsigned short, unsigned short)
                0x00009eb0                DecompressFileToMemory(char const*, unsigned short*)
                0x00009ec0                SendMessage(int)
                0x0000a064                ReadMessage()
 .text          0x0000a0d4      0x2b0 build/gapi/controlbutton.o
                0x0000a0d4                ControlButton::~ControlButton()
                0x0000a0d4                ControlButton::~ControlButton()
                0x0000a120                ControlButton::~ControlButton()
                0x0000a13c                ControlButton::MsgPenDown(int, int)
                0x0000a164                ControlButton::Init()
                0x0000a1b4                ControlButton::ControlButton(Rectangle*, char*, unsigned short*, unsigned short*, unsigned short*, unsigned short)
                0x0000a1b4                ControlButton::ControlButton(Rectangle*, char*, unsigned short*, unsigned short*, unsigned short*, unsigned short)
                0x0000a264                ControlButton::State(unsigned char)
                0x0000a274                ControlButton::State()
                0x0000a27c                ControlButton::Push()
                0x0000a298                ControlButton::Prepare()
 .text          0x0000a384      0xaf4 build/gapi/flipbook.o
                0x0000a384                Flipbook::HitTest(int, int)
                0x0000a434                Flipbook::Flipbook(Rectangle*, char*)
                0x0000a434                Flipbook::Flipbook(Rectangle*, char*)
                0x0000a49c                Flipbook::IsRunning()
                0x0000a4a4                Flipbook::LoadCurrentImage()
                0x0000a5b8                Flipbook::RunReverse()
                0x0000a5f0                Flipbook::Run(unsigned short)
                0x0000a694                Flipbook::Run(unsigned short, unsigned short)
                0x0000a69c                Flipbook::SetNoPosition(unsigned short, unsigned short)
                0x0000a6f0                Flipbook::Set(unsigned short, unsigned short)
                0x0000a774                Flipbook::AddTransformation(int, int, int*, int*)
                0x0000a7d4                Flipbook::AddSound(unsigned short, unsigned short, unsigned short)
                0x0000a850                FlipbookAnimation::FlipbookAnimation(unsigned short, unsigned short, unsigned short*, unsigned short*)
                0x0000a850                FlipbookAnimation::FlipbookAnimation(unsigned short, unsigned short, unsigned short*, unsigned short*)
                0x0000a88c                Flipbook::CurrentFrame()
                0x0000a894                FlipbookFrame::FlipbookFrame()
                0x0000a894                FlipbookFrame::FlipbookFrame()
                0x0000a8b8                FlipbookFrame::FlipbookFrame(unsigned short, unsigned short, unsigned short)
                0x0000a8b8                FlipbookFrame::FlipbookFrame(unsigned short, unsigned short, unsigned short)
                0x0000a8e4                Flipbook::AddAction(Rectangle*, void (*)(), unsigned short)
                0x0000a954                Flipbook::AddAnimation(int, int, int, unsigned short*)
                0x0000aa04                FlipbookAnimation::Load()
                0x0000ab50                Flipbook::LoadAnimation(int, int, unsigned short*)
                0x0000abe4                Flipbook::LoadAnimationAlpha(int, int, unsigned short*, unsigned short*)
                0x0000ac7c                Flipbook::~Flipbook()
                0x0000ac7c                Flipbook::~Flipbook()
                0x0000ad9c                Flipbook::~Flipbook()
                0x0000adb8                Flipbook::Prepare()
                0x0000adbc                Flipbook::MsgPenMove(int, int)
                0x0000adc0                Flipbook::MsgPenUp(int, int)
                0x0000adc4                Flipbook::MsgPenDown(int, int)
 .text          0x0000ae78      0x2ac build/gapi/font.o
                0x0000ae78                Font::Font(FontType)
                0x0000ae78                Font::Font(FontType)
                0x0000b120                Font::~Font()
                0x0000b120                Font::~Font()
 .text          0x0000b124      0x690 build/gapi/memory_tracking.o
                0x0000b124                operator new(unsigned int)
                0x0000b260                operator new[](unsigned int)
                0x0000b3a0                operator delete(void*)
                0x0000b5a8                operator delete[](void*)
 .text          0x0000b7b4       0x94 build/gapi/rectangle.o
                0x0000b7b4                Rectangle::Rectangle(int, int, int, int)
                0x0000b7b4                Rectangle::Rectangle(int, int, int, int)
                0x0000b7d4                Rectangle::~Rectangle()
                0x0000b7d4                Rectangle::~Rectangle()
                0x0000b7d8                Rectangle::Hit(int, int)
                0x0000b820                Rectangle::Right()
                0x0000b830                Rectangle::Bottom()
                0x0000b840                Point::Point(int, int)
                0x0000b840                Point::Point(int, int)
 .text          0x0000b848       0xd4 build/gapi/screen.o
                0x0000b848                Screen::~Screen()
                0x0000b848                Screen::~Screen()
                0x0000b868                Screen::~Screen()
                0x0000b890                Screen::Screen()
                0x0000b890                Screen::Screen()
                0x0000b904                Screen::Off()
                0x0000b908                Screen::On()
                0x0000b90c                Screen::SetMode(unsigned int)
 .text          0x0000b91c      0x1c8 build/gapi/screenraspi.o
                0x0000b91c                ScreenRaspi::~ScreenRaspi()
                0x0000b91c                ScreenRaspi::~ScreenRaspi()
                0x0000b93c                ScreenRaspi::~ScreenRaspi()
                0x0000b964                ScreenRaspi::ScreenRaspi(unsigned int, unsigned int, unsigned int)
                0x0000b964                ScreenRaspi::ScreenRaspi(unsigned int, unsigned int, unsigned int)
                0x0000baa8                ScreenRaspi::Init()
                0x0000bae0                ScreenRaspi::Display()
 .text          0x0000bae4      0x57c build/gapi/wconsole.o
                0x0000bae4                WConsole::printf(char const*, ...)
                0x0000bbd0                WConsole::PaintChar(unsigned short, unsigned short, char)
                0x0000bc98                WConsole::TestFill(char)
                0x0000bd00                WConsole::ScrollUp()
                0x0000bdb0                WConsole::ScrollDown()
                0x0000bdb4                WConsole::GotoXY(unsigned short, unsigned short)
                0x0000bdd0                WConsole::Print(char const*)
                0x0000be7c                WConsole::Clear()
                0x0000bef0                WConsole::WConsole(Rectangle*, unsigned short, unsigned short, Font*)
                0x0000bef0                WConsole::WConsole(Rectangle*, unsigned short, unsigned short, Font*)
                0x0000bfb4                WConsole::Prepare()
 .text          0x0000c060     0x1008 build/gapi/window.o
                0x0000c060                Window::DragStart(int, int)
                0x0000c078                Window::DragMove(int, int)
                0x0000c090                Window::DragEnd(int, int)
                0x0000c0a8                Window::FadeToWhite(int)
                0x0000c0c0                Window::FadeFromWhite(int)
                0x0000c0dc                Window::FadeToBlack(int)
                0x0000c0f4                Window::FadeFromBlack(int)
                0x0000c110                Window::AnimatePosition(int, int, int, AnimationCurve)
                0x0000c5dc                Window::EndAnimation()
                0x0000c630                Window::BufferToScreen()
                0x0000c694                Window::Prepare()
                0x0000c720                Window::Clear()
                0x0000c730                Window::MsgPenDown(int, int)
                0x0000c7f4                Window::HitTest(int, int)
                0x0000c7fc                Window::Display()
                0x0000c924                Window::MsgPenUp(int, int)
                0x0000ca08                Window::MsgPenMove(int, int)
                0x0000cb08                Window::_initialize()
                0x0000cb98                Window::Window()
                0x0000cb98                Window::Window()
                0x0000cbd4                Window::SetParent(Bitmap*)
                0x0000cbdc                Window::GetBuffer()
                0x0000cbe4                Window::Visible()
                0x0000cbf0                Window::Invisible()
                0x0000cbfc                Window::IsVisible()
                0x0000cc04                Window::Enable()
                0x0000cc10                Window::Disable()
                0x0000cc1c                Window::Enabled()
                0x0000cc24                Window::Position(int, int)
                0x0000cc34                Window::PositionDelta(int, int)
                0x0000cc50                Window::AlphaEnable()
                0x0000cc5c                Window::AlphaDisable()
                0x0000cc68                Window::AlphaEnabled()
                0x0000cc70                Window::SetAlpha(unsigned char)
                0x0000cc78                Window::EnablePenCapture()
                0x0000cc84                Window::DisablePenCapture()
                0x0000cc90                Window::PenCapture()
                0x0000cc98                Window::Position()
                0x0000cca0                Window::AddWindow(Window*, int)
                0x0000cd48                Window::RemoveWindow(Window*)
                0x0000cda0                Window::Text()
                0x0000cda8                Window::Text(char*)
                0x0000cdb4                Window::Window(Rectangle*, char const*)
                0x0000cdb4                Window::Window(Rectangle*, char const*)
                0x0000ce98                Window::Window(unsigned int, unsigned int, unsigned short*, char const*)
                0x0000ce98                Window::Window(unsigned int, unsigned int, unsigned short*, char const*)
                0x0000cfac                Window::~Window()
                0x0000cfac                Window::~Window()
                0x0000d04c                Window::~Window()
 .text          0x0000d068      0x2e8 build/syscalls.o
                0x0000d068                _exit
                0x0000d06c                _close
                0x0000d084                _execve
                0x0000d09c                _fork
                0x0000d0b4                _fstat
                0x0000d0e0                _getpid
                0x0000d0e8                _isatty
                0x0000d10c                _kill
                0x0000d124                _link
                0x0000d13c                _lseek
                0x0000d160                _open
                0x0000d178                _read
                0x0000d1e0                _sbrk
                0x0000d2a4                _stat
                0x0000d2b4                _times
                0x0000d2cc                _unlink
                0x0000d2e4                _wait
                0x0000d2fc                _write
 .text          0x0000d350        0x0 build/fonts/6x8.o
 .text          0x0000d350        0x0 build/fonts/ComicSansMS10.o
 .text          0x0000d350        0x0 build/fonts/ComicSansMS10.height.o
 .text          0x0000d350        0x0 build/fonts/ComicSansMS10.width.o
 .text          0x0000d350        0x0 build/fonts/ComicSansMS12.o
 .text          0x0000d350        0x0 build/fonts/ComicSansMS12.height.o
 .text          0x0000d350        0x0 build/fonts/ComicSansMS12.width.o
 .text          0x0000d350        0x0 build/fonts/EGA_8x8.o
 .text          0x0000d350        0x0 build/fonts/font6x8.o
 .text          0x0000d350        0x0 build/fonts/font6x8_width.o
 .text          0x0000d350        0x0 build/fonts/LucidaConsole10.o
 .text          0x0000d350        0x0 build/fonts/LucidaConsole10.width.o
 .text          0x0000d350        0x0 build/fonts/Noritake5x5.o
 .text          0x0000d350        0x0 build/fonts/Noritake5x5.width.o
 .text          0x0000d350        0x0 build/fonts/VGA_16x16.o
 .text          0x0000d350      0x110 build/fatfs/diskio.o
                0x0000d350                disk_initialize
                0x0000d384                disk_status
                0x0000d394                disk_read
                0x0000d3bc                disk_write
                0x0000d3e4                get_fattime
                0x0000d3ec                disk_ioctl
 .text          0x0000d460     0x3c44 build/fatfs/ff.o
                0x0000e9e0                clust2sect
                0x0000ea04                get_fat
                0x0000ea24                put_fat
                0x0000ea44                f_mount
                0x0000ead0                f_open
                0x0000ed40                f_read
                0x0000f008                f_write
                0x0000f38c                f_sync
                0x0000f4a8                f_close
                0x0000f4d0                f_lseek
                0x0000f944                f_opendir
                0x0000fa24                f_closedir
                0x0000fa3c                f_readdir
                0x0000fae0                f_stat
                0x0000fb64                f_getfree
                0x0000fcf0                f_truncate
                0x0000fe70                f_unlink
                0x0000ffc4                f_mkdir
                0x000102f4                f_chmod
                0x00010388                f_utime
                0x00010428                f_rename
                0x00010630                f_getlabel
                0x000107a0                f_setlabel
                0x00010aac                f_gets
                0x00010b24                f_putc
                0x00010b94                f_puts
                0x00010c1c                f_printf
 .text          0x000110a4      0x148 build/mmc/block.o
                0x000110a4                block_read
                0x00011168                block_write
 .text          0x000111ec     0x18f4 build/mmc/emmc.o
                0x00011c3c                sd_card_init
                0x00012a2c                sd_read
                0x00012a84                sd_write
 .text          0x00012ae0       0x78 build/mmc/mbox.o
                0x00012ae0                mbox_read
                0x00012b1c                mbox_write
 .text          0x00012b58       0x30 build/mmc/mmio.o
                0x00012b58                mmio_write
                0x00012b74                mmio_read
 .text          0x00012b88       0xb4 build/mmc/timer.o
                0x00012b88                usleep
                0x00012bc4                register_timer
                0x00012bfc                compare_timer
 .text          0x00012c3c       0x80 build/gpio.o
                0x00012c3c                GetGpioAddress
                0x00012c7c                SetGpio
 .text          0x00012cbc       0x78 build/mailbox.o
                0x00012cbc                GetMailboxBase
                0x00012cc4                MailboxWrite
                0x00012cf8                MailboxRead
 *fill*         0x00012d34        0xc 
 .text          0x00012d40       0x90 build/screens.o
                0x00012d40                InitialiseFrameBuffer
                0x00012da0                FrameBufferInfo
 .text          0x00012dd0        0x0 build/startup.o
 .text          0x00012dd0      0x114 /home/bseip/MentorGraphics/Sourcery_CodeBench_Lite_for_ARM_EABI/lib/gcc/arm-none-eabi/4.8.1/libgcc.a(_udivsi3.o)
                0x00012dd0                __udivsi3
                0x00012dd0                __aeabi_uidiv
                0x00012ec4                __aeabi_uidivmod
 .text          0x00012ee4      0x148 /home/bseip/MentorGraphics/Sourcery_CodeBench_Lite_for_ARM_EABI/lib/gcc/arm-none-eabi/4.8.1/libgcc.a(_divsi3.o)
                0x00012ee4                __aeabi_idiv
                0x00012ee4                __divsi3
                0x0001300c                __aeabi_idivmod
 .text          0x0001302c        0x4 /home/bseip/MentorGraphics/Sourcery_CodeBench_Lite_for_ARM_EABI/lib/gcc/arm-none-eabi/4.8.1/libgcc.a(_dvmd_tls.o)
                0x0001302c                __aeabi_ldiv0
                0x0001302c                __aeabi_idiv0
 .text          0x00013030      0xfe8 /home/bseip/MentorGraphics/Sourcery_CodeBench_Lite_for_ARM_EABI/lib/gcc/arm-none-eabi/4.8.1/libgcc.a(unwind-arm.o)
                0x000134b8                _Unwind_GetCFA
                0x000134c0                __gnu_Unwind_RaiseException
                0x00013570                __gnu_Unwind_ForcedUnwind
                0x00013594                __gnu_Unwind_Resume
                0x00013608                __gnu_Unwind_Resume_or_Rethrow
                0x00013624                _Unwind_Complete
                0x00013628                _Unwind_DeleteException
                0x0001364c                _Unwind_VRS_Get
                0x000136d8                _Unwind_VRS_Set
                0x00013764                __gnu_Unwind_Backtrace
                0x00013c64                __aeabi_unwind_cpp_pr0
                0x00013c6c                __aeabi_unwind_cpp_pr1
                0x00013c74                __aeabi_unwind_cpp_pr2
                0x00013c7c                _Unwind_VRS_Pop
 .text          0x00014018      0x1b0 /home/bseip/MentorGraphics/Sourcery_CodeBench_Lite_for_ARM_EABI/lib/gcc/arm-none-eabi/4.8.1/libgcc.a(libunwind.o)
                0x00014018                __restore_core_regs
                0x00014018                restore_core_regs
                0x00014034                __gnu_Unwind_Restore_VFP
                0x0001403c                __gnu_Unwind_Save_VFP
                0x00014044                __gnu_Unwind_Restore_VFP_D
                0x0001404c                __gnu_Unwind_Save_VFP_D
                0x00014054                __gnu_Unwind_Restore_VFP_D_16_to_31
                0x0001405c                __gnu_Unwind_Save_VFP_D_16_to_31
                0x00014064                __gnu_Unwind_Restore_WMMXD
                0x000140a8                __gnu_Unwind_Save_WMMXD
                0x000140ec                __gnu_Unwind_Restore_WMMXC
                0x00014100                __gnu_Unwind_Save_WMMXC
                0x00014114                ___Unwind_RaiseException
                0x00014114                _Unwind_RaiseException
                0x00014138                ___Unwind_Resume
                0x00014138                _Unwind_Resume
                0x0001415c                _Unwind_Resume_or_Rethrow
                0x0001415c                ___Unwind_Resume_or_Rethrow
                0x00014180                ___Unwind_ForcedUnwind
                0x00014180                _Unwind_ForcedUnwind
                0x000141a4                _Unwind_Backtrace
                0x000141a4                ___Unwind_Backtrace
 .text          0x000141c8      0x4d0 /home/bseip/MentorGraphics/Sourcery_CodeBench_Lite_for_ARM_EABI/lib/gcc/arm-none-eabi/4.8.1/libgcc.a(pr-support.o)
                0x0001425c                __gnu_unwind_execute
                0x0001460c                __gnu_unwind_frame
                0x00014654                _Unwind_GetRegionStart
                0x00014668                _Unwind_GetLanguageSpecificData
                0x00014688                _Unwind_GetDataRelBase
                0x00014690                _Unwind_GetTextRelBase
 .text          0x00014698       0x1c /home/bseip/MentorGraphics/Sourcery_CodeBench_Lite_for_ARM_EABI/arm-none-eabi/lib/libc.a(lib_a-aeabi_atexit.o)
                0x00014698                __aeabi_atexit
 .text          0x000146b4       0x64 /home/bseip/MentorGraphics/Sourcery_CodeBench_Lite_for_ARM_EABI/arm-none-eabi/lib/libc.a(lib_a-assert.o)
                0x000146b4                __assert_func
                0x00014708                __assert
 .text          0x00014718       0x24 /home/bseip/MentorGraphics/Sourcery_CodeBench_Lite_for_ARM_EABI/arm-none-eabi/lib/libc.a(lib_a-cxa_atexit.o)
                0x00014718                __cxa_atexit
 .text          0x0001473c       0x70 /home/bseip/MentorGraphics/Sourcery_CodeBench_Lite_for_ARM_EABI/arm-none-eabi/lib/libc.a(lib_a-fiprintf.o)
                0x0001473c                _fiprintf_r
                0x0001476c                fiprintf
 .text          0x000147ac       0x70 /home/bseip/MentorGraphics/Sourcery_CodeBench_Lite_for_ARM_EABI/arm-none-eabi/lib/libc.a(lib_a-fprintf.o)
                0x000147ac                _fprintf_r
                0x000147dc                fprintf
 .text          0x0001481c        0x0 /home/bseip/MentorGraphics/Sourcery_CodeBench_Lite_for_ARM_EABI/arm-none-eabi/lib/libc.a(lib_a-impure.o)
 .text          0x0001481c       0x40 /home/bseip/MentorGraphics/Sourcery_CodeBench_Lite_for_ARM_EABI/arm-none-eabi/lib/libc.a(lib_a-malloc.o)
                0x0001481c                malloc
                0x0001483c                free
 .text          0x0001485c      0x72c /home/bseip/MentorGraphics/Sourcery_CodeBench_Lite_for_ARM_EABI/arm-none-eabi/lib/libc.a(lib_a-mallocr.o)
                0x0001485c                _malloc_r
 .text          0x00014f88       0xf0 /home/bseip/MentorGraphics/Sourcery_CodeBench_Lite_for_ARM_EABI/arm-none-eabi/lib/libc.a(lib_a-memcpy-stub.o)
                0x00014f88                memcpy
 .text          0x00015078      0x134 /home/bseip/MentorGraphics/Sourcery_CodeBench_Lite_for_ARM_EABI/arm-none-eabi/lib/libc.a(lib_a-memmove.o)
                0x00015078                memmove
 .text          0x000151ac       0xf4 /home/bseip/MentorGraphics/Sourcery_CodeBench_Lite_for_ARM_EABI/arm-none-eabi/lib/libc.a(lib_a-memset.o)
                0x000151ac                memset
 .text          0x000152a0        0x8 /home/bseip/MentorGraphics/Sourcery_CodeBench_Lite_for_ARM_EABI/arm-none-eabi/lib/libc.a(lib_a-mlock.o)
                0x000152a0                __malloc_lock
                0x000152a4                __malloc_unlock
 .text          0x000152a8       0x74 /home/bseip/MentorGraphics/Sourcery_CodeBench_Lite_for_ARM_EABI/arm-none-eabi/lib/libc.a(lib_a-printf.o)
                0x000152a8                _printf_r
                0x000152dc                printf
 .text          0x0001531c      0x134 /home/bseip/MentorGraphics/Sourcery_CodeBench_Lite_for_ARM_EABI/arm-none-eabi/lib/libc.a(lib_a-reent.o)
                0x0001531c                cleanup_glue
                0x00015348                _reclaim_reent
 .text          0x00015450       0x44 /home/bseip/MentorGraphics/Sourcery_CodeBench_Lite_for_ARM_EABI/arm-none-eabi/lib/libc.a(lib_a-sbrkr.o)
                0x00015450                _sbrk_r
 .text          0x00015494       0xdc /home/bseip/MentorGraphics/Sourcery_CodeBench_Lite_for_ARM_EABI/arm-none-eabi/lib/libc.a(lib_a-sprintf.o)
                0x00015494                _sprintf_r
                0x000154fc                sprintf
 .text          0x00015570      0x108 /home/bseip/MentorGraphics/Sourcery_CodeBench_Lite_for_ARM_EABI/arm-none-eabi/lib/libc.a(lib_a-sscanf.o)
                0x00015570                sscanf
                0x000155f4                _sscanf_r
 .text          0x00015678       0xd8 /home/bseip/MentorGraphics/Sourcery_CodeBench_Lite_for_ARM_EABI/arm-none-eabi/lib/libc.a(lib_a-stdio.o)
                0x00015678                __sread
                0x000156ac                __seofread
                0x000156b4                __swrite
                0x0001570c                __sseek
                0x0001573c                __sclose
 .text          0x00015750       0x60 /home/bseip/MentorGraphics/Sourcery_CodeBench_Lite_for_ARM_EABI/arm-none-eabi/lib/libc.a(lib_a-strlen.o)
                0x00015750                strlen
 .text          0x000157b0       0xd4 /home/bseip/MentorGraphics/Sourcery_CodeBench_Lite_for_ARM_EABI/arm-none-eabi/lib/libc.a(lib_a-strncpy.o)
                0x000157b0                strncpy
 .text          0x00015884     0x1f0c /home/bseip/MentorGraphics/Sourcery_CodeBench_Lite_for_ARM_EABI/arm-none-eabi/lib/libc.a(lib_a-svfprintf.o)
                0x00015884                _svfprintf_r
 .text          0x00017790     0x1590 /home/bseip/MentorGraphics/Sourcery_CodeBench_Lite_for_ARM_EABI/arm-none-eabi/lib/libc.a(lib_a-svfscanf.o)
                0x00017790                __ssvfscanf_r
 .text          0x00018d20       0x24 /home/bseip/MentorGraphics/Sourcery_CodeBench_Lite_for_ARM_EABI/arm-none-eabi/lib/libc.a(lib_a-toupper.o)
                0x00018d20                toupper
 .text          0x00018d44     0x1410 /home/bseip/MentorGraphics/Sourcery_CodeBench_Lite_for_ARM_EABI/arm-none-eabi/lib/libc.a(lib_a-vfiprintf.o)
                0x00018df0                __sprint_r
                0x00018e08                _vfiprintf_r
                0x0001a05c                vfiprintf
 .text          0x0001a154     0x2078 /home/bseip/MentorGraphics/Sourcery_CodeBench_Lite_for_ARM_EABI/arm-none-eabi/lib/libc.a(lib_a-vfprintf.o)
                0x0001a154                _vfprintf_r
                0x0001c0d4                vfprintf
 .text          0x0001c1cc       0x44 /home/bseip/MentorGraphics/Sourcery_CodeBench_Lite_for_ARM_EABI/arm-none-eabi/lib/libc.a(lib_a-writer.o)
                0x0001c1cc                _write_r
 .text          0x0001c210      0x15c /home/bseip/MentorGraphics/Sourcery_CodeBench_Lite_for_ARM_EABI/arm-none-eabi/lib/libc.a(lib_a-wsetup.o)
                0x0001c210                __swsetup_r
 .text          0x0001c36c       0xf0 /home/bseip/MentorGraphics/Sourcery_CodeBench_Lite_for_ARM_EABI/arm-none-eabi/lib/libc.a(lib_a-__atexit.o)
                0x0001c36c                __register_exitproc
 .text          0x0001c45c       0x3c /home/bseip/MentorGraphics/Sourcery_CodeBench_Lite_for_ARM_EABI/arm-none-eabi/lib/libc.a(lib_a-closer.o)
                0x0001c45c                _close_r
 .text          0x0001c498        0x0 /home/bseip/MentorGraphics/Sourcery_CodeBench_Lite_for_ARM_EABI/arm-none-eabi/lib/libc.a(lib_a-ctype_.o)
 .text          0x0001c498     0x18d8 /home/bseip/MentorGraphics/Sourcery_CodeBench_Lite_for_ARM_EABI/arm-none-eabi/lib/libc.a(lib_a-dtoa.o)
                0x0001c678                _dtoa_r
 .text          0x0001dd70      0x2d4 /home/bseip/MentorGraphics/Sourcery_CodeBench_Lite_for_ARM_EABI/arm-none-eabi/lib/libc.a(lib_a-fflush.o)
                0x0001dd70                __sflush_r
                0x0001dfb4                _fflush_r
                0x0001e008                fflush
 .text          0x0001e044      0x354 /home/bseip/MentorGraphics/Sourcery_CodeBench_Lite_for_ARM_EABI/arm-none-eabi/lib/libc.a(lib_a-findfp.o)
                0x0001e054                _cleanup_r
                0x0001e06c                __sfmoreglue
                0x0001e0bc                _cleanup
                0x0001e0e0                __sinit
                0x0001e248                __sfp
                0x0001e340                __sfp_lock_acquire
                0x0001e344                __sfp_lock_release
                0x0001e348                __sinit_lock_acquire
                0x0001e34c                __sinit_lock_release
                0x0001e350                __fp_lock_all
                0x0001e374                __fp_unlock_all
 .text          0x0001e398      0x188 /home/bseip/MentorGraphics/Sourcery_CodeBench_Lite_for_ARM_EABI/arm-none-eabi/lib/libc.a(lib_a-fputwc.o)
                0x0001e398                _fputwc_r
                0x0001e4dc                fputwc
 .text          0x0001e520      0x36c /home/bseip/MentorGraphics/Sourcery_CodeBench_Lite_for_ARM_EABI/arm-none-eabi/lib/libc.a(lib_a-freer.o)
                0x0001e520                _malloc_trim_r
                0x0001e620                _free_r
 .text          0x0001e88c      0x4d0 /home/bseip/MentorGraphics/Sourcery_CodeBench_Lite_for_ARM_EABI/arm-none-eabi/lib/libc.a(lib_a-fvwrite.o)
                0x0001e88c                __sfvwrite_r
 .text          0x0001ed5c      0x110 /home/bseip/MentorGraphics/Sourcery_CodeBench_Lite_for_ARM_EABI/arm-none-eabi/lib/libc.a(lib_a-fwalk.o)
                0x0001ed5c                _fwalk
                0x0001ede0                _fwalk_reent
 .text          0x0001ee6c       0x24 /home/bseip/MentorGraphics/Sourcery_CodeBench_Lite_for_ARM_EABI/arm-none-eabi/lib/libc.a(lib_a-iswspace.o)
                0x0001ee6c                iswspace
 .text          0x0001ee90       0xd0 /home/bseip/MentorGraphics/Sourcery_CodeBench_Lite_for_ARM_EABI/arm-none-eabi/lib/libc.a(lib_a-locale.o)
                0x0001ee90                _setlocale_r
                0x0001ef00                __locale_charset
                0x0001ef0c                __locale_mb_cur_max
                0x0001ef1c                __locale_msgcharset
                0x0001ef28                __locale_cjk_lang
                0x0001ef30                _localeconv_r
                0x0001ef3c                setlocale
                0x0001ef54                localeconv
 .text          0x0001ef60       0x44 /home/bseip/MentorGraphics/Sourcery_CodeBench_Lite_for_ARM_EABI/arm-none-eabi/lib/libc.a(lib_a-lseekr.o)
                0x0001ef60                _lseek_r
 .text          0x0001efa4      0x174 /home/bseip/MentorGraphics/Sourcery_CodeBench_Lite_for_ARM_EABI/arm-none-eabi/lib/libc.a(lib_a-makebuf.o)
                0x0001efa4                __smakebuf_r
 .text          0x0001f118      0x138 /home/bseip/MentorGraphics/Sourcery_CodeBench_Lite_for_ARM_EABI/arm-none-eabi/lib/libc.a(lib_a-mbrtowc.o)
                0x0001f118                _mbrtowc_r
                0x0001f1b0                mbrtowc
 .text          0x0001f250       0xa0 /home/bseip/MentorGraphics/Sourcery_CodeBench_Lite_for_ARM_EABI/arm-none-eabi/lib/libc.a(lib_a-mbtowc_r.o)
                0x0001f250                __ascii_mbtowc
                0x0001f29c                _mbtowc_r
 .text          0x0001f2f0      0x114 /home/bseip/MentorGraphics/Sourcery_CodeBench_Lite_for_ARM_EABI/arm-none-eabi/lib/libc.a(lib_a-memchr-stub.o)
                0x0001f2f0                memchr
 .text          0x0001f404      0xd2c /home/bseip/MentorGraphics/Sourcery_CodeBench_Lite_for_ARM_EABI/arm-none-eabi/lib/libc.a(lib_a-mprec.o)
                0x0001f404                _Balloc
                0x0001f490                _Bfree
                0x0001f4ac                __multadd
                0x0001f588                __s2b
                0x0001f670                __hi0bits
                0x0001f6cc                __lo0bits
                0x0001f760                __i2b
                0x0001f784                __multiply
                0x0001f96c                __pow5mult
                0x0001fa70                __lshift
                0x0001fb7c                __mcmp
                0x0001fbdc                __mdiff
                0x0001fd20                __ulp
                0x0001fd84                __b2d
                0x0001fe58                __d2b
                0x0001ff64                __ratio
                0x0001ffec                _mprec_log10
                0x00020044                __copybits
                0x000200b4                __any_on
 .text          0x00020130       0x44 /home/bseip/MentorGraphics/Sourcery_CodeBench_Lite_for_ARM_EABI/arm-none-eabi/lib/libc.a(lib_a-readr.o)
                0x00020130                _read_r
 .text          0x00020174      0x56c /home/bseip/MentorGraphics/Sourcery_CodeBench_Lite_for_ARM_EABI/arm-none-eabi/lib/libc.a(lib_a-reallocr.o)
                0x00020174                _realloc_r
 .text          0x000206e0       0x6c /home/bseip/MentorGraphics/Sourcery_CodeBench_Lite_for_ARM_EABI/arm-none-eabi/lib/libc.a(lib_a-s_fpclassify.o)
                0x000206e0                __fpclassifyd
 .text          0x0002074c       0xd4 /home/bseip/MentorGraphics/Sourcery_CodeBench_Lite_for_ARM_EABI/arm-none-eabi/lib/libc.a(lib_a-sccl.o)
                0x0002074c                __sccl
 .text          0x00020820        0xc /home/bseip/MentorGraphics/Sourcery_CodeBench_Lite_for_ARM_EABI/arm-none-eabi/lib/libc.a(lib_a-sf_nan.o)
                0x00020820                nanf
 .text          0x0002082c      0x230 /home/bseip/MentorGraphics/Sourcery_CodeBench_Lite_for_ARM_EABI/arm-none-eabi/lib/libc.a(lib_a-strcmp.o)
                0x0002082c                strcmp
 *fill*         0x00020a5c        0x4 
 .text          0x00020a60     0x1708 /home/bseip/MentorGraphics/Sourcery_CodeBench_Lite_for_ARM_EABI/arm-none-eabi/lib/libc.a(lib_a-strtod.o)
                0x00020a60                _strtod_r
                0x0002205c                strtod
                0x00022074                strtof
 .text          0x00022168      0x1f8 /home/bseip/MentorGraphics/Sourcery_CodeBench_Lite_for_ARM_EABI/arm-none-eabi/lib/libc.a(lib_a-strtol.o)
                0x00022168                _strtol_r
                0x00022338                strtol
 .text          0x00022360      0x2ac /home/bseip/MentorGraphics/Sourcery_CodeBench_Lite_for_ARM_EABI/arm-none-eabi/lib/libc.a(lib_a-strtoll_r.o)
                0x00022360                _strtoll_r
 .text          0x0002260c      0x20c /home/bseip/MentorGraphics/Sourcery_CodeBench_Lite_for_ARM_EABI/arm-none-eabi/lib/libc.a(lib_a-strtoul.o)
                0x0002260c                _strtoul_r
                0x000227f0                strtoul
 .text          0x00022818      0x290 /home/bseip/MentorGraphics/Sourcery_CodeBench_Lite_for_ARM_EABI/arm-none-eabi/lib/libc.a(lib_a-strtoull_r.o)
                0x00022818                _strtoull_r
 .text          0x00022aa8     0x128c /home/bseip/MentorGraphics/Sourcery_CodeBench_Lite_for_ARM_EABI/arm-none-eabi/lib/libc.a(lib_a-svfiprintf.o)
                0x00022aa8                __ssprint_r
                0x00022c54                _svfiprintf_r
 .text          0x00023d34     0x1178 /home/bseip/MentorGraphics/Sourcery_CodeBench_Lite_for_ARM_EABI/arm-none-eabi/lib/libc.a(lib_a-svfiscanf.o)
                0x00023d34                _sungetc_r
                0x00023e24                __ssrefill_r
                0x00023e8c                _sfread_r
                0x00023f58                __ssvfiscanf_r
 .text          0x00024eac      0x244 /home/bseip/MentorGraphics/Sourcery_CodeBench_Lite_for_ARM_EABI/arm-none-eabi/lib/libc.a(lib_a-ungetc.o)
                0x00024eac                __submore
                0x00024f5c                _ungetc_r
                0x000250d8                ungetc
 .text          0x000250f0      0x13c /home/bseip/MentorGraphics/Sourcery_CodeBench_Lite_for_ARM_EABI/arm-none-eabi/lib/libc.a(lib_a-wbuf.o)
                0x000250f0                __swbuf_r
                0x00025214                __swbuf
 .text          0x0002522c      0x128 /home/bseip/MentorGraphics/Sourcery_CodeBench_Lite_for_ARM_EABI/arm-none-eabi/lib/libc.a(lib_a-wcrtomb.o)
                0x0002522c                _wcrtomb_r
                0x000252bc                wcrtomb
 .text          0x00025354       0x7c /home/bseip/MentorGraphics/Sourcery_CodeBench_Lite_for_ARM_EABI/arm-none-eabi/lib/libc.a(lib_a-wctomb_r.o)
                0x00025354                __ascii_wctomb
                0x00025380                _wctomb_r
 .text          0x000253d0       0x9c /home/bseip/MentorGraphics/Sourcery_CodeBench_Lite_for_ARM_EABI/arm-none-eabi/lib/libc.a(lib_a-callocr.o)
                0x000253d0                _calloc_r
 .text          0x0002546c      0x104 /home/bseip/MentorGraphics/Sourcery_CodeBench_Lite_for_ARM_EABI/arm-none-eabi/lib/libc.a(lib_a-fclose.o)
                0x0002546c                _fclose_r
                0x0002555c                fclose
 .text          0x00025570       0x40 /home/bseip/MentorGraphics/Sourcery_CodeBench_Lite_for_ARM_EABI/arm-none-eabi/lib/libc.a(lib_a-fstatr.o)
                0x00025570                _fstat_r
 .text          0x000255b0      0x908 /home/bseip/MentorGraphics/Sourcery_CodeBench_Lite_for_ARM_EABI/arm-none-eabi/lib/libc.a(lib_a-gdtoa-gethex.o)
                0x000256a4                __gethex
 .text          0x00025eb8      0x284 /home/bseip/MentorGraphics/Sourcery_CodeBench_Lite_for_ARM_EABI/arm-none-eabi/lib/libc.a(lib_a-gdtoa-hexnan.o)
                0x00025eb8                __hexnan
 .text          0x0002613c       0x3c /home/bseip/MentorGraphics/Sourcery_CodeBench_Lite_for_ARM_EABI/arm-none-eabi/lib/libc.a(lib_a-isattyr.o)
                0x0002613c                _isatty_r
 .text          0x00026178      0x160 /home/bseip/MentorGraphics/Sourcery_CodeBench_Lite_for_ARM_EABI/arm-none-eabi/lib/libc.a(lib_a-strncmp.o)
                0x00026178                strncmp
 .text          0x000262d8        0x0 /home/bseip/MentorGraphics/Sourcery_CodeBench_Lite_for_ARM_EABI/arm-none-eabi/lib/libstdc++.a(eh_catch.o)
 .text          0x000262d8        0x0 /home/bseip/MentorGraphics/Sourcery_CodeBench_Lite_for_ARM_EABI/arm-none-eabi/lib/libstdc++.a(si_class_type_info.o)
 .text          0x000262d8        0x0 /home/bseip/MentorGraphics/Sourcery_CodeBench_Lite_for_ARM_EABI/arm-none-eabi/lib/libstdc++.a(eh_terminate.o)
 .text          0x000262d8        0x0 /home/bseip/MentorGraphics/Sourcery_CodeBench_Lite_for_ARM_EABI/arm-none-eabi/lib/libstdc++.a(tinfo.o)
 .text          0x000262d8        0x0 /home/bseip/MentorGraphics/Sourcery_CodeBench_Lite_for_ARM_EABI/arm-none-eabi/lib/libstdc++.a(eh_alloc.o)
 .text          0x000262d8        0x0 /home/bseip/MentorGraphics/Sourcery_CodeBench_Lite_for_ARM_EABI/arm-none-eabi/lib/libstdc++.a(eh_personality.o)
 .text          0x000262d8        0x0 /home/bseip/MentorGraphics/Sourcery_CodeBench_Lite_for_ARM_EABI/arm-none-eabi/lib/libstdc++.a(eh_arm.o)
 .text          0x000262d8        0x0 /home/bseip/MentorGraphics/Sourcery_CodeBench_Lite_for_ARM_EABI/arm-none-eabi/lib/libstdc++.a(eh_exception.o)
 .text          0x000262d8        0x0 /home/bseip/MentorGraphics/Sourcery_CodeBench_Lite_for_ARM_EABI/arm-none-eabi/lib/libstdc++.a(eh_globals.o)
 .text          0x000262d8        0x0 /home/bseip/MentorGraphics/Sourcery_CodeBench_Lite_for_ARM_EABI/arm-none-eabi/lib/libstdc++.a(eh_call.o)
 .text          0x000262d8        0x0 /home/bseip/MentorGraphics/Sourcery_CodeBench_Lite_for_ARM_EABI/arm-none-eabi/lib/libstdc++.a(eh_throw.o)
 .text          0x000262d8        0x0 /home/bseip/MentorGraphics/Sourcery_CodeBench_Lite_for_ARM_EABI/arm-none-eabi/lib/libstdc++.a(bad_alloc.o)
 .text          0x000262d8        0x0 /home/bseip/MentorGraphics/Sourcery_CodeBench_Lite_for_ARM_EABI/arm-none-eabi/lib/libstdc++.a(eh_unex_handler.o)
 .text          0x000262d8        0x0 /home/bseip/MentorGraphics/Sourcery_CodeBench_Lite_for_ARM_EABI/arm-none-eabi/lib/libstdc++.a(class_type_info.o)
 .text          0x000262d8        0x0 /home/bseip/MentorGraphics/Sourcery_CodeBench_Lite_for_ARM_EABI/arm-none-eabi/lib/libstdc++.a(eh_term_handler.o)
 .text          0x000262d8        0x0 /home/bseip/MentorGraphics/Sourcery_CodeBench_Lite_for_ARM_EABI/arm-none-eabi/lib/libstdc++.a(pure.o)
 .text          0x000262d8        0x0 /home/bseip/MentorGraphics/Sourcery_CodeBench_Lite_for_ARM_EABI/arm-none-eabi/lib/libstdc++.a(tree.o)
 .text          0x000262d8        0x0 /home/bseip/MentorGraphics/Sourcery_CodeBench_Lite_for_ARM_EABI/arm-none-eabi/lib/libstdc++.a(functexcept.o)
 .text          0x000262d8        0x0 /home/bseip/MentorGraphics/Sourcery_CodeBench_Lite_for_ARM_EABI/arm-none-eabi/lib/libstdc++.a(string-inst.o)
 .text          0x000262d8        0x0 /home/bseip/MentorGraphics/Sourcery_CodeBench_Lite_for_ARM_EABI/arm-none-eabi/lib/libstdc++.a(future.o)
 .text          0x000262d8        0x0 /home/bseip/MentorGraphics/Sourcery_CodeBench_Lite_for_ARM_EABI/arm-none-eabi/lib/libstdc++.a(functional.o)
 .text          0x000262d8        0x0 /home/bseip/MentorGraphics/Sourcery_CodeBench_Lite_for_ARM_EABI/arm-none-eabi/lib/libstdc++.a(regex.o)
 .text          0x000262d8        0x0 /home/bseip/MentorGraphics/Sourcery_CodeBench_Lite_for_ARM_EABI/arm-none-eabi/lib/libstdc++.a(bad_cast.o)
 .text          0x000262d8        0x0 /home/bseip/MentorGraphics/Sourcery_CodeBench_Lite_for_ARM_EABI/arm-none-eabi/lib/libstdc++.a(bad_typeid.o)
 .text          0x000262d8        0x0 /home/bseip/MentorGraphics/Sourcery_CodeBench_Lite_for_ARM_EABI/arm-none-eabi/lib/libstdc++.a(guard.o)
 .text          0x000262d8        0x0 /home/bseip/MentorGraphics/Sourcery_CodeBench_Lite_for_ARM_EABI/arm-none-eabi/lib/libstdc++.a(vterminate.o)
 .text          0x000262d8     0x8604 /home/bseip/MentorGraphics/Sourcery_CodeBench_Lite_for_ARM_EABI/arm-none-eabi/lib/libstdc++.a(cp-demangle.o)
                0x0002e758                __cxa_demangle
                0x0002e8ac                __gcclibcxx_demangle_callback
 .text          0x0002e8dc        0x0 /home/bseip/MentorGraphics/Sourcery_CodeBench_Lite_for_ARM_EABI/arm-none-eabi/lib/libstdc++.a(eh_type.o)
 .text          0x0002e8dc        0x0 /home/bseip/MentorGraphics/Sourcery_CodeBench_Lite_for_ARM_EABI/arm-none-eabi/lib/libstdc++.a(ios_failure.o)
 .text          0x0002e8dc        0x0 /home/bseip/MentorGraphics/Sourcery_CodeBench_Lite_for_ARM_EABI/arm-none-eabi/lib/libstdc++.a(stdexcept.o)
 .text          0x0002e8dc        0x0 /home/bseip/MentorGraphics/Sourcery_CodeBench_Lite_for_ARM_EABI/arm-none-eabi/lib/libstdc++.a(system_error.o)
 .text          0x0002e8dc        0x0 /home/bseip/MentorGraphics/Sourcery_CodeBench_Lite_for_ARM_EABI/arm-none-eabi/lib/libstdc++.a(guard_error.o)
 .text          0x0002e8dc        0x0 /home/bseip/MentorGraphics/Sourcery_CodeBench_Lite_for_ARM_EABI/lib/gcc/arm-none-eabi/4.8.1/crti.o
 .text          0x0002e8dc      0x128 /home/bseip/MentorGraphics/Sourcery_CodeBench_Lite_for_ARM_EABI/lib/gcc/arm-none-eabi/4.8.1/crtbegin.o
 .text          0x0002ea04        0x0 /home/bseip/MentorGraphics/Sourcery_CodeBench_Lite_for_ARM_EABI/lib/gcc/arm-none-eabi/4.8.1/crtend.o
 .text          0x0002ea04      0x41c /home/bseip/MentorGraphics/Sourcery_CodeBench_Lite_for_ARM_EABI/lib/gcc/arm-none-eabi/4.8.1/libgcc.a(_arm_addsubdf3.o)
                0x0002ea04                __aeabi_drsub
                0x0002ea0c                __aeabi_dsub
                0x0002ea0c                __subdf3
                0x0002ea10                __adddf3
                0x0002ea10                __aeabi_dadd
                0x0002ed20                __aeabi_ui2d
                0x0002ed20                __floatunsidf
                0x0002ed44                __floatsidf
                0x0002ed44                __aeabi_i2d
                0x0002ed6c                __extendsfdf2
                0x0002ed6c                __aeabi_f2d
                0x0002edac                __aeabi_ul2d
                0x0002edac                __floatundidf
                0x0002edc0                __floatdidf
                0x0002edc0                __aeabi_l2d
 .text          0x0002ee20      0x49c /home/bseip/MentorGraphics/Sourcery_CodeBench_Lite_for_ARM_EABI/lib/gcc/arm-none-eabi/4.8.1/libgcc.a(_arm_muldivdf3.o)
                0x0002ee20                __aeabi_dmul
                0x0002ee20                __muldf3
                0x0002f0b0                __aeabi_ddiv
                0x0002f0b0                __divdf3
 .text          0x0002f2bc      0x144 /home/bseip/MentorGraphics/Sourcery_CodeBench_Lite_for_ARM_EABI/lib/gcc/arm-none-eabi/4.8.1/libgcc.a(_arm_cmpdf2.o)
                0x0002f2bc                __gtdf2
                0x0002f2bc                __gedf2
                0x0002f2c4                __ltdf2
                0x0002f2c4                __ledf2
                0x0002f2cc                __cmpdf2
                0x0002f2cc                __eqdf2
                0x0002f2cc                __nedf2
                0x0002f354                __aeabi_cdrcmple
                0x0002f370                __aeabi_cdcmple
                0x0002f370                __aeabi_cdcmpeq
                0x0002f388                __aeabi_dcmpeq
                0x0002f3a0                __aeabi_dcmplt
                0x0002f3b8                __aeabi_dcmple
                0x0002f3d0                __aeabi_dcmpge
                0x0002f3e8                __aeabi_dcmpgt
 .text          0x0002f400       0x5c /home/bseip/MentorGraphics/Sourcery_CodeBench_Lite_for_ARM_EABI/lib/gcc/arm-none-eabi/4.8.1/libgcc.a(_arm_fixdfsi.o)
                0x0002f400                __fixdfsi
                0x0002f400                __aeabi_d2iz
 .text          0x0002f45c       0x54 /home/bseip/MentorGraphics/Sourcery_CodeBench_Lite_for_ARM_EABI/lib/gcc/arm-none-eabi/4.8.1/libgcc.a(_arm_fixunsdfsi.o)
                0x0002f45c                __fixunsdfsi
                0x0002f45c                __aeabi_d2uiz
 .text          0x0002f4b0       0xa0 /home/bseip/MentorGraphics/Sourcery_CodeBench_Lite_for_ARM_EABI/lib/gcc/arm-none-eabi/4.8.1/libgcc.a(_arm_truncdfsf2.o)
                0x0002f4b0                __aeabi_d2f
                0x0002f4b0                __truncdfsf2
 .text          0x0002f550      0x114 /home/bseip/MentorGraphics/Sourcery_CodeBench_Lite_for_ARM_EABI/lib/gcc/arm-none-eabi/4.8.1/libgcc.a(_arm_cmpsf2.o)
                0x0002f550                __gtsf2
                0x0002f550                __gesf2
                0x0002f558                __lesf2
                0x0002f558                __ltsf2
                0x0002f560                __nesf2
                0x0002f560                __eqsf2
                0x0002f560                __cmpsf2
                0x0002f5c4                __aeabi_cfrcmple
                0x0002f5d4                __aeabi_cfcmple
                0x0002f5d4                __aeabi_cfcmpeq
                0x0002f5ec                __aeabi_fcmpeq
                0x0002f604                __aeabi_fcmplt
                0x0002f61c                __aeabi_fcmple
                0x0002f634                __aeabi_fcmpge
                0x0002f64c                __aeabi_fcmpgt
 .text          0x0002f664       0x3c /home/bseip/MentorGraphics/Sourcery_CodeBench_Lite_for_ARM_EABI/lib/gcc/arm-none-eabi/4.8.1/libgcc.a(_aeabi_uldivmod.o)
                0x0002f664                __aeabi_uldivmod
 .text          0x0002f6a0       0x84 /home/bseip/MentorGraphics/Sourcery_CodeBench_Lite_for_ARM_EABI/lib/gcc/arm-none-eabi/4.8.1/libgcc.a(bpabi.o)
                0x0002f6a0                __gnu_ldivmod_helper
                0x0002f6e4                __gnu_uldivmod_helper
 .text          0x0002f724      0x4d0 /home/bseip/MentorGraphics/Sourcery_CodeBench_Lite_for_ARM_EABI/lib/gcc/arm-none-eabi/4.8.1/libgcc.a(_divdi3.o)
                0x0002f724                __divdi3
 .text          0x0002fbf4      0x470 /home/bseip/MentorGraphics/Sourcery_CodeBench_Lite_for_ARM_EABI/lib/gcc/arm-none-eabi/4.8.1/libgcc.a(_udivdi3.o)
                0x0002fbf4                __udivdi3
 .text          0x00030064       0x48 /home/bseip/MentorGraphics/Sourcery_CodeBench_Lite_for_ARM_EABI/lib/gcc/arm-none-eabi/4.8.1/libgcc.a(_clzsi2.o)
                0x00030064                __clzsi2
 .text          0x000300ac       0x8c /home/bseip/MentorGraphics/Sourcery_CodeBench_Lite_for_ARM_EABI/arm-none-eabi/lib/libc.a(lib_a-fputc.o)
                0x000300ac                _fputc_r
                0x000300f0                fputc
 .text          0x00030138       0xa4 /home/bseip/MentorGraphics/Sourcery_CodeBench_Lite_for_ARM_EABI/arm-none-eabi/lib/libc.a(lib_a-fputs.o)
                0x00030138                _fputs_r
                0x000301c4                fputs
 .text          0x000301dc       0xdc /home/bseip/MentorGraphics/Sourcery_CodeBench_Lite_for_ARM_EABI/arm-none-eabi/lib/libc.a(lib_a-fwrite.o)
                0x000301dc                _fwrite_r
                0x00030278                fwrite
 .text          0x000302b8       0xb4 /home/bseip/MentorGraphics/Sourcery_CodeBench_Lite_for_ARM_EABI/arm-none-eabi/lib/libc.a(lib_a-memcmp.o)
                0x000302b8                memcmp
 .text          0x0003036c      0x158 /home/bseip/MentorGraphics/Sourcery_CodeBench_Lite_for_ARM_EABI/arm-none-eabi/lib/libc.a(lib_a-putc.o)
                0x0003036c                _putc_r
                0x00030410                putc
 .text          0x000304c4       0x24 /home/bseip/MentorGraphics/Sourcery_CodeBench_Lite_for_ARM_EABI/arm-none-eabi/lib/libc.a(lib_a-realloc.o)
                0x000304c4                realloc
 .text          0x000304e8      0x614 /home/bseip/MentorGraphics/Sourcery_CodeBench_Lite_for_ARM_EABI/arm-none-eabi/lib/libc.a(lib_a-strerror.o)
                0x000304e8                _strerror_r
                0x00030ae0                strerror
 .text          0x00030afc       0x2c /home/bseip/MentorGraphics/Sourcery_CodeBench_Lite_for_ARM_EABI/arm-none-eabi/lib/libc.a(lib_a-syswrite.o)
                0x00030afc                write
 .text          0x00030b28        0x8 /home/bseip/MentorGraphics/Sourcery_CodeBench_Lite_for_ARM_EABI/arm-none-eabi/lib/libc.a(lib_a-u_strerr.o)
                0x00030b28                _user_strerror
                0x00030b30                _TEXT_END_ = .

.glue_7         0x00030b30        0x0
 .glue_7        0x00000000        0x0 linker stubs

.glue_7t        0x00030b30        0x0
 .glue_7t       0x00000000        0x0 linker stubs

.vfp11_veneer   0x00030b30        0x0
 .vfp11_veneer  0x00000000        0x0 linker stubs

.v4_bx          0x00030b30        0x0
 .v4_bx         0x00000000        0x0 linker stubs

.iplt           0x00030b30        0x0
 .iplt          0x00000000        0x0 build/bcm2835.o

.text.startup   0x00030b30      0xba8
 .text.startup  0x00030b30      0xab0 build/main.o
                0x00030b30                main
 .text.startup  0x000315e0       0x84 build/gapi/common.o
 .text.startup  0x00031664       0x74 build/gapi/memory_tracking.o

.text._ZNSt11_Deque_baseIiSaIiEED2Ev
                0x000316d8       0x48
 .text._ZNSt11_Deque_baseIiSaIiEED2Ev
                0x000316d8       0x48 build/gapi/common.o
                0x000316d8                std::_Deque_base<int, std::allocator<int> >::~_Deque_base()
                0x000316d8                std::_Deque_base<int, std::allocator<int> >::~_Deque_base()

.text._ZNSt5queueIiSt5dequeIiSaIiEEED2Ev
                0x00031720       0x14
 .text._ZNSt5queueIiSt5dequeIiSaIiEEED2Ev
                0x00031720       0x14 build/gapi/common.o
                0x00031720                std::queue<int, std::deque<int, std::allocator<int> > >::~queue()
                0x00031720                std::queue<int, std::deque<int, std::allocator<int> > >::~queue()

.text._ZNSt11_Deque_baseIiSaIiEE17_M_initialize_mapEj
                0x00031734       0xf8
 .text._ZNSt11_Deque_baseIiSaIiEE17_M_initialize_mapEj
                0x00031734       0xf8 build/gapi/common.o
                0x00031734                std::_Deque_base<int, std::allocator<int> >::_M_initialize_map(unsigned int)

.text._ZNSt5dequeIiSaIiEEC2ERKS1_
                0x0003182c       0xfc
 .text._ZNSt5dequeIiSaIiEEC2ERKS1_
                0x0003182c       0xfc build/gapi/common.o
                0x0003182c                std::deque<int, std::allocator<int> >::deque(std::deque<int, std::allocator<int> > const&)
                0x0003182c                std::deque<int, std::allocator<int> >::deque(std::deque<int, std::allocator<int> > const&)

.text._ZNSt6vectorIP14FlipbookActionSaIS1_EE13_M_insert_auxEN9__gnu_cxx17__normal_iteratorIPS1_S3_EERKS1_
                0x00031928      0x150
 .text._ZNSt6vectorIP14FlipbookActionSaIS1_EE13_M_insert_auxEN9__gnu_cxx17__normal_iteratorIPS1_S3_EERKS1_
                0x00031928      0x150 build/gapi/flipbook.o
                0x00031928                std::vector<FlipbookAction*, std::allocator<FlipbookAction*> >::_M_insert_aux(__gnu_cxx::__normal_iterator<FlipbookAction**, std::vector<FlipbookAction*, std::allocator<FlipbookAction*> > >, FlipbookAction* const&)

.text._ZNSt6vectorIP17FlipbookAnimationSaIS1_EE13_M_insert_auxEN9__gnu_cxx17__normal_iteratorIPS1_S3_EERKS1_
                0x00031a78      0x150
 .text._ZNSt6vectorIP17FlipbookAnimationSaIS1_EE13_M_insert_auxEN9__gnu_cxx17__normal_iteratorIPS1_S3_EERKS1_
                0x00031a78      0x150 build/gapi/flipbook.o
                0x00031a78                std::vector<FlipbookAnimation*, std::allocator<FlipbookAnimation*> >::_M_insert_aux(__gnu_cxx::__normal_iterator<FlipbookAnimation**, std::vector<FlipbookAnimation*, std::allocator<FlipbookAnimation*> > >, FlipbookAnimation* const&)

.text._ZNSt6vectorIP13FlipbookFrameSaIS1_EE13_M_insert_auxEN9__gnu_cxx17__normal_iteratorIPS1_S3_EERKS1_
                0x00031bc8      0x150
 .text._ZNSt6vectorIP13FlipbookFrameSaIS1_EE13_M_insert_auxEN9__gnu_cxx17__normal_iteratorIPS1_S3_EERKS1_
                0x00031bc8      0x150 build/gapi/flipbook.o
                0x00031bc8                std::vector<FlipbookFrame*, std::allocator<FlipbookFrame*> >::_M_insert_aux(__gnu_cxx::__normal_iterator<FlipbookFrame**, std::vector<FlipbookFrame*, std::allocator<FlipbookFrame*> > >, FlipbookFrame* const&)

.text._ZNSt8_Rb_treeIPvSt4pairIKS0_jESt10_Select1stIS3_ESt4lessIS0_ESaIS3_EE24_M_get_insert_unique_posERS2_
                0x00031d18       0xa8
 .text._ZNSt8_Rb_treeIPvSt4pairIKS0_jESt10_Select1stIS3_ESt4lessIS0_ESaIS3_EE24_M_get_insert_unique_posERS2_
                0x00031d18       0xa8 build/gapi/memory_tracking.o
                0x00031d18                std::_Rb_tree<void*, std::pair<void* const, unsigned int>, std::_Select1st<std::pair<void* const, unsigned int> >, std::less<void*>, std::allocator<std::pair<void* const, unsigned int> > >::_M_get_insert_unique_pos(void* const&)

.text._ZNSt8_Rb_treeIPvSt4pairIKS0_jESt10_Select1stIS3_ESt4lessIS0_ESaIS3_EE17_M_insert_unique_ESt23_Rb_tree_const_iteratorIS3_ERKS3_
                0x00031dc0      0x178
 .text._ZNSt8_Rb_treeIPvSt4pairIKS0_jESt10_Select1stIS3_ESt4lessIS0_ESaIS3_EE17_M_insert_unique_ESt23_Rb_tree_const_iteratorIS3_ERKS3_
                0x00031dc0      0x178 build/gapi/memory_tracking.o
                0x00031dc0                std::_Rb_tree<void*, std::pair<void* const, unsigned int>, std::_Select1st<std::pair<void* const, unsigned int> >, std::less<void*>, std::allocator<std::pair<void* const, unsigned int> > >::_M_insert_unique_(std::_Rb_tree_const_iterator<std::pair<void* const, unsigned int> >, std::pair<void* const, unsigned int> const&)

.text._ZNSt8_Rb_treeIPvSt4pairIKS0_jESt10_Select1stIS3_ESt4lessIS0_ESaIS3_EE8_M_eraseEPSt13_Rb_tree_nodeIS3_E
                0x00031f38      0x448
 .text._ZNSt8_Rb_treeIPvSt4pairIKS0_jESt10_Select1stIS3_ESt4lessIS0_ESaIS3_EE8_M_eraseEPSt13_Rb_tree_nodeIS3_E
                0x00031f38      0x448 build/gapi/memory_tracking.o
                0x00031f38                std::_Rb_tree<void*, std::pair<void* const, unsigned int>, std::_Select1st<std::pair<void* const, unsigned int> >, std::less<void*>, std::allocator<std::pair<void* const, unsigned int> > >::_M_erase(std::_Rb_tree_node<std::pair<void* const, unsigned int> >*)

.text._ZNSt3mapIPvjSt4lessIS0_ESaISt4pairIKS0_jEEED2Ev
                0x00032380       0x18
 .text._ZNSt3mapIPvjSt4lessIS0_ESaISt4pairIKS0_jEEED2Ev
                0x00032380       0x18 build/gapi/memory_tracking.o
                0x00032380                std::map<void*, unsigned int, std::less<void*>, std::allocator<std::pair<void* const, unsigned int> > >::~map()
                0x00032380                std::map<void*, unsigned int, std::less<void*>, std::allocator<std::pair<void* const, unsigned int> > >::~map()

.text._Z14tracked_deletePvRSt3mapIS_jSt4lessIS_ESaISt4pairIKS_jEEE
                0x00032398      0x424
 .text._Z14tracked_deletePvRSt3mapIS_jSt4lessIS_ESaISt4pairIKS_jEEE
                0x00032398      0x424 build/gapi/memory_tracking.o
                0x00032398                tracked_delete(void*, std::map<void*, unsigned int, std::less<void*>, std::allocator<std::pair<void* const, unsigned int> > >&)

.text._ZN8WConsoleD2Ev
                0x000327bc       0x34
 .text._ZN8WConsoleD2Ev
                0x000327bc       0x34 build/gapi/wconsole.o
                0x000327bc                WConsole::~WConsole()
                0x000327bc                WConsole::~WConsole()

.text._ZN8WConsoleD0Ev
                0x000327f0       0x3c
 .text._ZN8WConsoleD0Ev
                0x000327f0       0x3c build/gapi/wconsole.o
                0x000327f0                WConsole::~WConsole()

.text._ZNSt8_Rb_treeIiSt4pairIKiP6WindowESt10_Select1stIS4_ESt4lessIiESaIS4_EE8_M_eraseEPSt13_Rb_tree_nodeIS4_E
                0x0003282c       0x38
 .text._ZNSt8_Rb_treeIiSt4pairIKiP6WindowESt10_Select1stIS4_ESt4lessIiESaIS4_EE8_M_eraseEPSt13_Rb_tree_nodeIS4_E
                0x0003282c       0x38 build/gapi/window.o
                0x0003282c                std::_Rb_tree<int, std::pair<int const, Window*>, std::_Select1st<std::pair<int const, Window*> >, std::less<int>, std::allocator<std::pair<int const, Window*> > >::_M_erase(std::_Rb_tree_node<std::pair<int const, Window*> >*)

.text.unlikely  0x00032864       0x64
 .text.unlikely
                0x00032864       0x64 /home/bseip/MentorGraphics/Sourcery_CodeBench_Lite_for_ARM_EABI/arm-none-eabi/lib/libc.a(lib_a-strtod.o)

.text.__cxa_get_exception_ptr
                0x000328c8        0x8
 .text.__cxa_get_exception_ptr
                0x000328c8        0x8 /home/bseip/MentorGraphics/Sourcery_CodeBench_Lite_for_ARM_EABI/arm-none-eabi/lib/libstdc++.a(eh_catch.o)
                0x000328c8                __cxa_get_exception_ptr

.text.__cxa_begin_catch
                0x000328d0       0xe4
 .text.__cxa_begin_catch
                0x000328d0       0xe4 /home/bseip/MentorGraphics/Sourcery_CodeBench_Lite_for_ARM_EABI/arm-none-eabi/lib/libstdc++.a(eh_catch.o)
                0x000328d0                __cxa_begin_catch

.text.__cxa_end_catch
                0x000329b4       0xe0
 .text.__cxa_end_catch
                0x000329b4       0xe0 /home/bseip/MentorGraphics/Sourcery_CodeBench_Lite_for_ARM_EABI/arm-none-eabi/lib/libstdc++.a(eh_catch.o)
                0x000329b4                __cxa_end_catch

.text._ZSt18uncaught_exceptionv
                0x00032a94       0x1c
 .text._ZSt18uncaught_exceptionv
                0x00032a94       0x1c /home/bseip/MentorGraphics/Sourcery_CodeBench_Lite_for_ARM_EABI/arm-none-eabi/lib/libstdc++.a(eh_catch.o)
                0x00032a94                std::uncaught_exception()

.text._ZN10__cxxabiv120__si_class_type_infoD2Ev
                0x00032ab0       0x24
 .text._ZN10__cxxabiv120__si_class_type_infoD2Ev
                0x00032ab0       0x24 /home/bseip/MentorGraphics/Sourcery_CodeBench_Lite_for_ARM_EABI/arm-none-eabi/lib/libstdc++.a(si_class_type_info.o)
                0x00032ab0                __cxxabiv1::__si_class_type_info::~__si_class_type_info()
                0x00032ab0                __cxxabiv1::__si_class_type_info::~__si_class_type_info()

.text._ZN10__cxxabiv120__si_class_type_infoD0Ev
                0x00032ad4       0x2c
 .text._ZN10__cxxabiv120__si_class_type_infoD0Ev
                0x00032ad4       0x2c /home/bseip/MentorGraphics/Sourcery_CodeBench_Lite_for_ARM_EABI/arm-none-eabi/lib/libstdc++.a(si_class_type_info.o)
                0x00032ad4                __cxxabiv1::__si_class_type_info::~__si_class_type_info()

.text._ZNK10__cxxabiv120__si_class_type_info20__do_find_public_srcEiPKvPKNS_17__class_type_infoES2_
                0x00032b00       0x6c
 .text._ZNK10__cxxabiv120__si_class_type_info20__do_find_public_srcEiPKvPKNS_17__class_type_infoES2_
                0x00032b00       0x6c /home/bseip/MentorGraphics/Sourcery_CodeBench_Lite_for_ARM_EABI/arm-none-eabi/lib/libstdc++.a(si_class_type_info.o)
                0x00032b00                __cxxabiv1::__si_class_type_info::__do_find_public_src(int, void const*, __cxxabiv1::__class_type_info const*, void const*) const

.text._ZNK10__cxxabiv120__si_class_type_info12__do_dyncastEiNS_17__class_type_info10__sub_kindEPKS1_PKvS4_S6_RNS1_16__dyncast_resultE
                0x00032b6c       0xf0
 .text._ZNK10__cxxabiv120__si_class_type_info12__do_dyncastEiNS_17__class_type_info10__sub_kindEPKS1_PKvS4_S6_RNS1_16__dyncast_resultE
                0x00032b6c       0xf0 /home/bseip/MentorGraphics/Sourcery_CodeBench_Lite_for_ARM_EABI/arm-none-eabi/lib/libstdc++.a(si_class_type_info.o)
                0x00032b6c                __cxxabiv1::__si_class_type_info::__do_dyncast(int, __cxxabiv1::__class_type_info::__sub_kind, __cxxabiv1::__class_type_info const*, void const*, __cxxabiv1::__class_type_info const*, void const*, __cxxabiv1::__class_type_info::__dyncast_result&) const

.text._ZNK10__cxxabiv120__si_class_type_info11__do_upcastEPKNS_17__class_type_infoEPKvRNS1_15__upcast_resultE
                0x00032c5c       0x48
 .text._ZNK10__cxxabiv120__si_class_type_info11__do_upcastEPKNS_17__class_type_infoEPKvRNS1_15__upcast_resultE
                0x00032c5c       0x48 /home/bseip/MentorGraphics/Sourcery_CodeBench_Lite_for_ARM_EABI/arm-none-eabi/lib/libstdc++.a(si_class_type_info.o)
                0x00032c5c                __cxxabiv1::__si_class_type_info::__do_upcast(__cxxabiv1::__class_type_info const*, void const*, __cxxabiv1::__class_type_info::__upcast_result&) const

.text._ZN10__cxxabiv111__terminateEPFvvE
                0x00032ca4       0x34
 .text._ZN10__cxxabiv111__terminateEPFvvE
                0x00032ca4       0x34 /home/bseip/MentorGraphics/Sourcery_CodeBench_Lite_for_ARM_EABI/arm-none-eabi/lib/libstdc++.a(eh_terminate.o)
                0x00032ca4                __cxxabiv1::__terminate(void (*)())

.text._ZSt9terminatev
                0x00032cd8       0x14
 .text._ZSt9terminatev
                0x00032cd8       0x14 /home/bseip/MentorGraphics/Sourcery_CodeBench_Lite_for_ARM_EABI/arm-none-eabi/lib/libstdc++.a(eh_terminate.o)
                0x00032cd8                std::terminate()

.text._ZN10__cxxabiv112__unexpectedEPFvvE
                0x00032cec       0x10
 .text._ZN10__cxxabiv112__unexpectedEPFvvE
                0x00032cec       0x10 /home/bseip/MentorGraphics/Sourcery_CodeBench_Lite_for_ARM_EABI/arm-none-eabi/lib/libstdc++.a(eh_terminate.o)
                0x00032cec                __cxxabiv1::__unexpected(void (*)())

.text._ZSt10unexpectedv
                0x00032cfc       0x14
 .text._ZSt10unexpectedv
                0x00032cfc       0x14 /home/bseip/MentorGraphics/Sourcery_CodeBench_Lite_for_ARM_EABI/arm-none-eabi/lib/libstdc++.a(eh_terminate.o)
                0x00032cfc                std::unexpected()

.text._ZSt13set_terminatePFvvE
                0x00032d10       0x18
 .text._ZSt13set_terminatePFvvE
                0x00032d10       0x18 /home/bseip/MentorGraphics/Sourcery_CodeBench_Lite_for_ARM_EABI/arm-none-eabi/lib/libstdc++.a(eh_terminate.o)
                0x00032d10                std::set_terminate(void (*)())

.text._ZSt14set_unexpectedPFvvE
                0x00032d28       0x18
 .text._ZSt14set_unexpectedPFvvE
                0x00032d28       0x18 /home/bseip/MentorGraphics/Sourcery_CodeBench_Lite_for_ARM_EABI/arm-none-eabi/lib/libstdc++.a(eh_terminate.o)
                0x00032d28                std::set_unexpected(void (*)())

.text._ZNSt9type_infoD2Ev
                0x00032d40       0x10
 .text._ZNSt9type_infoD2Ev
                0x00032d40       0x10 /home/bseip/MentorGraphics/Sourcery_CodeBench_Lite_for_ARM_EABI/arm-none-eabi/lib/libstdc++.a(tinfo.o)
                0x00032d40                std::type_info::~type_info()
                0x00032d40                std::type_info::~type_info()

.text._ZNKSt9type_info14__is_pointer_pEv
                0x00032d50        0x8
 .text._ZNKSt9type_info14__is_pointer_pEv
                0x00032d50        0x8 /home/bseip/MentorGraphics/Sourcery_CodeBench_Lite_for_ARM_EABI/arm-none-eabi/lib/libstdc++.a(tinfo.o)
                0x00032d50                std::type_info::__is_pointer_p() const

.text._ZNKSt9type_info15__is_function_pEv
                0x00032d58        0x8
 .text._ZNKSt9type_info15__is_function_pEv
                0x00032d58        0x8 /home/bseip/MentorGraphics/Sourcery_CodeBench_Lite_for_ARM_EABI/arm-none-eabi/lib/libstdc++.a(tinfo.o)
                0x00032d58                std::type_info::__is_function_p() const

.text._ZNKSt9type_info11__do_upcastEPKN10__cxxabiv117__class_type_infoEPPv
                0x00032d60        0x8
 .text._ZNKSt9type_info11__do_upcastEPKN10__cxxabiv117__class_type_infoEPPv
                0x00032d60        0x8 /home/bseip/MentorGraphics/Sourcery_CodeBench_Lite_for_ARM_EABI/arm-none-eabi/lib/libstdc++.a(tinfo.o)
                0x00032d60                std::type_info::__do_upcast(__cxxabiv1::__class_type_info const*, void**) const

.text._ZNSt9type_infoD0Ev
                0x00032d68       0x24
 .text._ZNSt9type_infoD0Ev
                0x00032d68       0x24 /home/bseip/MentorGraphics/Sourcery_CodeBench_Lite_for_ARM_EABI/arm-none-eabi/lib/libstdc++.a(tinfo.o)
                0x00032d68                std::type_info::~type_info()

.text._ZNKSt9type_infoeqERKS_
                0x00032d8c       0x50
 .text._ZNKSt9type_infoeqERKS_
                0x00032d8c       0x50 /home/bseip/MentorGraphics/Sourcery_CodeBench_Lite_for_ARM_EABI/arm-none-eabi/lib/libstdc++.a(tinfo.o)
                0x00032d8c                std::type_info::operator==(std::type_info const&) const

.text._ZNKSt9type_info10__do_catchEPKS_PPvj
                0x00032ddc        0x4
 .text._ZNKSt9type_info10__do_catchEPKS_PPvj
                0x00032ddc        0x4 /home/bseip/MentorGraphics/Sourcery_CodeBench_Lite_for_ARM_EABI/arm-none-eabi/lib/libstdc++.a(tinfo.o)
                0x00032ddc                std::type_info::__do_catch(std::type_info const*, void**, unsigned int) const

.text.__cxa_allocate_exception
                0x00032de0       0x98
 .text.__cxa_allocate_exception
                0x00032de0       0x98 /home/bseip/MentorGraphics/Sourcery_CodeBench_Lite_for_ARM_EABI/arm-none-eabi/lib/libstdc++.a(eh_alloc.o)
                0x00032de0                __cxa_allocate_exception

.text.__cxa_free_exception
                0x00032e78       0x58
 .text.__cxa_free_exception
                0x00032e78       0x58 /home/bseip/MentorGraphics/Sourcery_CodeBench_Lite_for_ARM_EABI/arm-none-eabi/lib/libstdc++.a(eh_alloc.o)
                0x00032e78                __cxa_free_exception

.text.__cxa_allocate_dependent_exception
                0x00032ed0       0x90
 .text.__cxa_allocate_dependent_exception
                0x00032ed0       0x90 /home/bseip/MentorGraphics/Sourcery_CodeBench_Lite_for_ARM_EABI/arm-none-eabi/lib/libstdc++.a(eh_alloc.o)
                0x00032ed0                __cxa_allocate_dependent_exception

.text.__cxa_free_dependent_exception
                0x00032f60       0x60
 .text.__cxa_free_dependent_exception
                0x00032f60       0x60 /home/bseip/MentorGraphics/Sourcery_CodeBench_Lite_for_ARM_EABI/arm-none-eabi/lib/libstdc++.a(eh_alloc.o)
                0x00032f60                __cxa_free_dependent_exception

.text._ZL12read_sleb128PKhPl
                0x00032fc0       0x44
 .text._ZL12read_sleb128PKhPl
                0x00032fc0       0x44 /home/bseip/MentorGraphics/Sourcery_CodeBench_Lite_for_ARM_EABI/arm-none-eabi/lib/libstdc++.a(eh_personality.o)

.text._ZL28read_encoded_value_with_basehjPKhPj
                0x00033004      0x174
 .text._ZL28read_encoded_value_with_basehjPKhPj
                0x00033004      0x174 /home/bseip/MentorGraphics/Sourcery_CodeBench_Lite_for_ARM_EABI/arm-none-eabi/lib/libstdc++.a(eh_personality.o)

.text._ZL21base_of_encoded_valuehP15_Unwind_Context
                0x00033178       0x84
 .text._ZL21base_of_encoded_valuehP15_Unwind_Context
                0x00033178       0x84 /home/bseip/MentorGraphics/Sourcery_CodeBench_Lite_for_ARM_EABI/arm-none-eabi/lib/libstdc++.a(eh_personality.o)

.text._ZL17parse_lsda_headerP15_Unwind_ContextPKhP16lsda_header_info
                0x000331fc       0xe0
 .text._ZL17parse_lsda_headerP15_Unwind_ContextPKhP16lsda_header_info
                0x000331fc       0xe0 /home/bseip/MentorGraphics/Sourcery_CodeBench_Lite_for_ARM_EABI/arm-none-eabi/lib/libstdc++.a(eh_personality.o)

.text.__gxx_personality_v0
                0x000332dc      0x62c
 .text.__gxx_personality_v0
                0x000332dc      0x62c /home/bseip/MentorGraphics/Sourcery_CodeBench_Lite_for_ARM_EABI/arm-none-eabi/lib/libstdc++.a(eh_personality.o)
                0x000332dc                __gxx_personality_v0

.text.__cxa_end_cleanup
                0x00033908       0x10
 .text.__cxa_end_cleanup
                0x00033908       0x10 /home/bseip/MentorGraphics/Sourcery_CodeBench_Lite_for_ARM_EABI/arm-none-eabi/lib/libstdc++.a(eh_arm.o)
                0x00033908                __cxa_end_cleanup

.text.__cxa_type_match
                0x00033918      0x148
 .text.__cxa_type_match
                0x00033918      0x148 /home/bseip/MentorGraphics/Sourcery_CodeBench_Lite_for_ARM_EABI/arm-none-eabi/lib/libstdc++.a(eh_arm.o)
                0x00033918                __cxa_type_match

.text.__cxa_begin_cleanup
                0x00033a60       0xbc
 .text.__cxa_begin_cleanup
                0x00033a60       0xbc /home/bseip/MentorGraphics/Sourcery_CodeBench_Lite_for_ARM_EABI/arm-none-eabi/lib/libstdc++.a(eh_arm.o)
                0x00033a60                __cxa_begin_cleanup

.text.__gnu_end_cleanup
                0x00033b1c       0xbc
 .text.__gnu_end_cleanup
                0x00033b1c       0xbc /home/bseip/MentorGraphics/Sourcery_CodeBench_Lite_for_ARM_EABI/arm-none-eabi/lib/libstdc++.a(eh_arm.o)
                0x00033b1c                __gnu_end_cleanup

.text._ZNSt9exceptionD2Ev
                0x00033bd8       0x10
 .text._ZNSt9exceptionD2Ev
                0x00033bd8       0x10 /home/bseip/MentorGraphics/Sourcery_CodeBench_Lite_for_ARM_EABI/arm-none-eabi/lib/libstdc++.a(eh_exception.o)
                0x00033bd8                std::exception::~exception()
                0x00033bd8                std::exception::~exception()

.text._ZNSt13bad_exceptionD2Ev
                0x00033be8       0x10
 .text._ZNSt13bad_exceptionD2Ev
                0x00033be8       0x10 /home/bseip/MentorGraphics/Sourcery_CodeBench_Lite_for_ARM_EABI/arm-none-eabi/lib/libstdc++.a(eh_exception.o)
                0x00033be8                std::bad_exception::~bad_exception()
                0x00033be8                std::bad_exception::~bad_exception()

.text._ZN10__cxxabiv115__forced_unwindD2Ev
                0x00033bf8       0x10
 .text._ZN10__cxxabiv115__forced_unwindD2Ev
                0x00033bf8       0x10 /home/bseip/MentorGraphics/Sourcery_CodeBench_Lite_for_ARM_EABI/arm-none-eabi/lib/libstdc++.a(eh_exception.o)
                0x00033bf8                __cxxabiv1::__forced_unwind::~__forced_unwind()
                0x00033bf8                __cxxabiv1::__forced_unwind::~__forced_unwind()

.text._ZN10__cxxabiv119__foreign_exceptionD2Ev
                0x00033c08       0x10
 .text._ZN10__cxxabiv119__foreign_exceptionD2Ev
                0x00033c08       0x10 /home/bseip/MentorGraphics/Sourcery_CodeBench_Lite_for_ARM_EABI/arm-none-eabi/lib/libstdc++.a(eh_exception.o)
                0x00033c08                __cxxabiv1::__foreign_exception::~__foreign_exception()
                0x00033c08                __cxxabiv1::__foreign_exception::~__foreign_exception()

.text._ZNKSt9exception4whatEv
                0x00033c18        0xc
 .text._ZNKSt9exception4whatEv
                0x00033c18        0xc /home/bseip/MentorGraphics/Sourcery_CodeBench_Lite_for_ARM_EABI/arm-none-eabi/lib/libstdc++.a(eh_exception.o)
                0x00033c18                std::exception::what() const

.text._ZNKSt13bad_exception4whatEv
                0x00033c24        0xc
 .text._ZNKSt13bad_exception4whatEv
                0x00033c24        0xc /home/bseip/MentorGraphics/Sourcery_CodeBench_Lite_for_ARM_EABI/arm-none-eabi/lib/libstdc++.a(eh_exception.o)
                0x00033c24                std::bad_exception::what() const

.text._ZNSt9exceptionD0Ev
                0x00033c30       0x24
 .text._ZNSt9exceptionD0Ev
                0x00033c30       0x24 /home/bseip/MentorGraphics/Sourcery_CodeBench_Lite_for_ARM_EABI/arm-none-eabi/lib/libstdc++.a(eh_exception.o)
                0x00033c30                std::exception::~exception()

.text._ZNSt13bad_exceptionD0Ev
                0x00033c54       0x24
 .text._ZNSt13bad_exceptionD0Ev
                0x00033c54       0x24 /home/bseip/MentorGraphics/Sourcery_CodeBench_Lite_for_ARM_EABI/arm-none-eabi/lib/libstdc++.a(eh_exception.o)
                0x00033c54                std::bad_exception::~bad_exception()

.text._ZN10__cxxabiv115__forced_unwindD0Ev
                0x00033c78       0x24
 .text._ZN10__cxxabiv115__forced_unwindD0Ev
                0x00033c78       0x24 /home/bseip/MentorGraphics/Sourcery_CodeBench_Lite_for_ARM_EABI/arm-none-eabi/lib/libstdc++.a(eh_exception.o)
                0x00033c78                __cxxabiv1::__forced_unwind::~__forced_unwind()

.text._ZN10__cxxabiv119__foreign_exceptionD0Ev
                0x00033c9c       0x24
 .text._ZN10__cxxabiv119__foreign_exceptionD0Ev
                0x00033c9c       0x24 /home/bseip/MentorGraphics/Sourcery_CodeBench_Lite_for_ARM_EABI/arm-none-eabi/lib/libstdc++.a(eh_exception.o)
                0x00033c9c                __cxxabiv1::__foreign_exception::~__foreign_exception()

.text.__cxa_get_globals_fast
                0x00033cc0        0xc
 .text.__cxa_get_globals_fast
                0x00033cc0        0xc /home/bseip/MentorGraphics/Sourcery_CodeBench_Lite_for_ARM_EABI/arm-none-eabi/lib/libstdc++.a(eh_globals.o)
                0x00033cc0                __cxa_get_globals_fast

.text.__cxa_get_globals
                0x00033ccc        0xc
 .text.__cxa_get_globals
                0x00033ccc        0xc /home/bseip/MentorGraphics/Sourcery_CodeBench_Lite_for_ARM_EABI/arm-none-eabi/lib/libstdc++.a(eh_globals.o)
                0x00033ccc                __cxa_get_globals

.text._ZN10__cxxabiv1L24__is_gxx_exception_classEPc
                0x00033cd8       0x70
 .text._ZN10__cxxabiv1L24__is_gxx_exception_classEPc
                0x00033cd8       0x70 /home/bseip/MentorGraphics/Sourcery_CodeBench_Lite_for_ARM_EABI/arm-none-eabi/lib/libstdc++.a(eh_call.o)

.text.__cxa_call_terminate
                0x00033d48       0x2c
 .text.__cxa_call_terminate
                0x00033d48       0x2c /home/bseip/MentorGraphics/Sourcery_CodeBench_Lite_for_ARM_EABI/arm-none-eabi/lib/libstdc++.a(eh_call.o)
                0x00033d48                __cxa_call_terminate

.text.__cxa_call_unexpected
                0x00033d74      0x134
 .text.__cxa_call_unexpected
                0x00033d74      0x134 /home/bseip/MentorGraphics/Sourcery_CodeBench_Lite_for_ARM_EABI/arm-none-eabi/lib/libstdc++.a(eh_call.o)
                0x00033d74                __cxa_call_unexpected

.text._ZL23__gxx_exception_cleanup19_Unwind_Reason_CodeP21_Unwind_Control_Block
                0x00033ea8       0x3c
 .text._ZL23__gxx_exception_cleanup19_Unwind_Reason_CodeP21_Unwind_Control_Block
                0x00033ea8       0x3c /home/bseip/MentorGraphics/Sourcery_CodeBench_Lite_for_ARM_EABI/arm-none-eabi/lib/libstdc++.a(eh_throw.o)

.text.__cxa_throw
                0x00033ee4       0x94
 .text.__cxa_throw
                0x00033ee4       0x94 /home/bseip/MentorGraphics/Sourcery_CodeBench_Lite_for_ARM_EABI/arm-none-eabi/lib/libstdc++.a(eh_throw.o)
                0x00033ee4                __cxa_throw

.text.__cxa_rethrow
                0x00033f78       0xb0
 .text.__cxa_rethrow
                0x00033f78       0xb0 /home/bseip/MentorGraphics/Sourcery_CodeBench_Lite_for_ARM_EABI/arm-none-eabi/lib/libstdc++.a(eh_throw.o)
                0x00033f78                __cxa_rethrow

.text._ZNKSt9bad_alloc4whatEv
                0x00034028        0xc
 .text._ZNKSt9bad_alloc4whatEv
                0x00034028        0xc /home/bseip/MentorGraphics/Sourcery_CodeBench_Lite_for_ARM_EABI/arm-none-eabi/lib/libstdc++.a(bad_alloc.o)
                0x00034028                std::bad_alloc::what() const

.text._ZNSt9bad_allocD2Ev
                0x00034034       0x24
 .text._ZNSt9bad_allocD2Ev
                0x00034034       0x24 /home/bseip/MentorGraphics/Sourcery_CodeBench_Lite_for_ARM_EABI/arm-none-eabi/lib/libstdc++.a(bad_alloc.o)
                0x00034034                std::bad_alloc::~bad_alloc()
                0x00034034                std::bad_alloc::~bad_alloc()

.text._ZNSt9bad_allocD0Ev
                0x00034058       0x2c
 .text._ZNSt9bad_allocD0Ev
                0x00034058       0x2c /home/bseip/MentorGraphics/Sourcery_CodeBench_Lite_for_ARM_EABI/arm-none-eabi/lib/libstdc++.a(bad_alloc.o)
                0x00034058                std::bad_alloc::~bad_alloc()

.text._ZNK10__cxxabiv117__class_type_info11__do_upcastEPKS0_PPv
                0x00034084       0x64
 .text._ZNK10__cxxabiv117__class_type_info11__do_upcastEPKS0_PPv
                0x00034084       0x64 /home/bseip/MentorGraphics/Sourcery_CodeBench_Lite_for_ARM_EABI/arm-none-eabi/lib/libstdc++.a(class_type_info.o)
                0x00034084                __cxxabiv1::__class_type_info::__do_upcast(__cxxabiv1::__class_type_info const*, void**) const

.text._ZNK10__cxxabiv117__class_type_info20__do_find_public_srcEiPKvPKS0_S2_
                0x000340e8       0x14
 .text._ZNK10__cxxabiv117__class_type_info20__do_find_public_srcEiPKvPKS0_S2_
                0x000340e8       0x14 /home/bseip/MentorGraphics/Sourcery_CodeBench_Lite_for_ARM_EABI/arm-none-eabi/lib/libstdc++.a(class_type_info.o)
                0x000340e8                __cxxabiv1::__class_type_info::__do_find_public_src(int, void const*, __cxxabiv1::__class_type_info const*, void const*) const

.text._ZN10__cxxabiv117__class_type_infoD2Ev
                0x000340fc       0x24
 .text._ZN10__cxxabiv117__class_type_infoD2Ev
                0x000340fc       0x24 /home/bseip/MentorGraphics/Sourcery_CodeBench_Lite_for_ARM_EABI/arm-none-eabi/lib/libstdc++.a(class_type_info.o)
                0x000340fc                __cxxabiv1::__class_type_info::~__class_type_info()
                0x000340fc                __cxxabiv1::__class_type_info::~__class_type_info()

.text._ZN10__cxxabiv117__class_type_infoD0Ev
                0x00034120       0x2c
 .text._ZN10__cxxabiv117__class_type_infoD0Ev
                0x00034120       0x2c /home/bseip/MentorGraphics/Sourcery_CodeBench_Lite_for_ARM_EABI/arm-none-eabi/lib/libstdc++.a(class_type_info.o)
                0x00034120                __cxxabiv1::__class_type_info::~__class_type_info()

.text._ZNK10__cxxabiv117__class_type_info11__do_upcastEPKS0_PKvRNS0_15__upcast_resultE
                0x0003414c       0x30
 .text._ZNK10__cxxabiv117__class_type_info11__do_upcastEPKS0_PKvRNS0_15__upcast_resultE
                0x0003414c       0x30 /home/bseip/MentorGraphics/Sourcery_CodeBench_Lite_for_ARM_EABI/arm-none-eabi/lib/libstdc++.a(class_type_info.o)
                0x0003414c                __cxxabiv1::__class_type_info::__do_upcast(__cxxabiv1::__class_type_info const*, void const*, __cxxabiv1::__class_type_info::__upcast_result&) const

.text._ZNK10__cxxabiv117__class_type_info10__do_catchEPKSt9type_infoPPvj
                0x0003417c       0x54
 .text._ZNK10__cxxabiv117__class_type_info10__do_catchEPKSt9type_infoPPvj
                0x0003417c       0x54 /home/bseip/MentorGraphics/Sourcery_CodeBench_Lite_for_ARM_EABI/arm-none-eabi/lib/libstdc++.a(class_type_info.o)
                0x0003417c                __cxxabiv1::__class_type_info::__do_catch(std::type_info const*, void**, unsigned int) const

.text._ZNK10__cxxabiv117__class_type_info12__do_dyncastEiNS0_10__sub_kindEPKS0_PKvS3_S5_RNS0_16__dyncast_resultE
                0x000341d0       0x7c
 .text._ZNK10__cxxabiv117__class_type_info12__do_dyncastEiNS0_10__sub_kindEPKS0_PKvS3_S5_RNS0_16__dyncast_resultE
                0x000341d0       0x7c /home/bseip/MentorGraphics/Sourcery_CodeBench_Lite_for_ARM_EABI/arm-none-eabi/lib/libstdc++.a(class_type_info.o)
                0x000341d0                __cxxabiv1::__class_type_info::__do_dyncast(int, __cxxabiv1::__class_type_info::__sub_kind, __cxxabiv1::__class_type_info const*, void const*, __cxxabiv1::__class_type_info const*, void const*, __cxxabiv1::__class_type_info::__dyncast_result&) const

.text.__cxa_pure_virtual
                0x0003424c       0x1c
 .text.__cxa_pure_virtual
                0x0003424c       0x1c /home/bseip/MentorGraphics/Sourcery_CodeBench_Lite_for_ARM_EABI/arm-none-eabi/lib/libstdc++.a(pure.o)
                0x0003424c                __cxa_pure_virtual

.text.__cxa_deleted_virtual
                0x00034268       0x1c
 .text.__cxa_deleted_virtual
                0x00034268       0x1c /home/bseip/MentorGraphics/Sourcery_CodeBench_Lite_for_ARM_EABI/arm-none-eabi/lib/libstdc++.a(pure.o)
                0x00034268                __cxa_deleted_virtual

.text._ZStL25local_Rb_tree_rotate_leftPSt18_Rb_tree_node_baseRS0_
                0x00034284       0x4c
 .text._ZStL25local_Rb_tree_rotate_leftPSt18_Rb_tree_node_baseRS0_
                0x00034284       0x4c /home/bseip/MentorGraphics/Sourcery_CodeBench_Lite_for_ARM_EABI/arm-none-eabi/lib/libstdc++.a(tree.o)

.text._ZStL26local_Rb_tree_rotate_rightPSt18_Rb_tree_node_baseRS0_
                0x000342d0       0x4c
 .text._ZStL26local_Rb_tree_rotate_rightPSt18_Rb_tree_node_baseRS0_
                0x000342d0       0x4c /home/bseip/MentorGraphics/Sourcery_CodeBench_Lite_for_ARM_EABI/arm-none-eabi/lib/libstdc++.a(tree.o)

.text._ZStL23local_Rb_tree_decrementPSt18_Rb_tree_node_base
                0x0003431c       0x80
 .text._ZStL23local_Rb_tree_decrementPSt18_Rb_tree_node_base
                0x0003431c       0x80 /home/bseip/MentorGraphics/Sourcery_CodeBench_Lite_for_ARM_EABI/arm-none-eabi/lib/libstdc++.a(tree.o)

.text._ZSt18_Rb_tree_incrementPSt18_Rb_tree_node_base
                0x0003439c       0x6c
 .text._ZSt18_Rb_tree_incrementPSt18_Rb_tree_node_base
                0x0003439c       0x6c /home/bseip/MentorGraphics/Sourcery_CodeBench_Lite_for_ARM_EABI/arm-none-eabi/lib/libstdc++.a(tree.o)
                0x0003439c                std::_Rb_tree_increment(std::_Rb_tree_node_base*)

.text._ZSt18_Rb_tree_incrementPKSt18_Rb_tree_node_base
                0x00034408       0x6c
 .text._ZSt18_Rb_tree_incrementPKSt18_Rb_tree_node_base
                0x00034408       0x6c /home/bseip/MentorGraphics/Sourcery_CodeBench_Lite_for_ARM_EABI/arm-none-eabi/lib/libstdc++.a(tree.o)
                0x00034408                std::_Rb_tree_increment(std::_Rb_tree_node_base const*)

.text._ZSt18_Rb_tree_decrementPSt18_Rb_tree_node_base
                0x00034474        0x4
 .text._ZSt18_Rb_tree_decrementPSt18_Rb_tree_node_base
                0x00034474        0x4 /home/bseip/MentorGraphics/Sourcery_CodeBench_Lite_for_ARM_EABI/arm-none-eabi/lib/libstdc++.a(tree.o)
                0x00034474                std::_Rb_tree_decrement(std::_Rb_tree_node_base*)

.text._ZSt18_Rb_tree_decrementPKSt18_Rb_tree_node_base
                0x00034478        0x4
 .text._ZSt18_Rb_tree_decrementPKSt18_Rb_tree_node_base
                0x00034478        0x4 /home/bseip/MentorGraphics/Sourcery_CodeBench_Lite_for_ARM_EABI/arm-none-eabi/lib/libstdc++.a(tree.o)
                0x00034478                std::_Rb_tree_decrement(std::_Rb_tree_node_base const*)

.text._ZSt20_Rb_tree_rotate_leftPSt18_Rb_tree_node_baseRS0_
                0x0003447c        0x4
 .text._ZSt20_Rb_tree_rotate_leftPSt18_Rb_tree_node_baseRS0_
                0x0003447c        0x4 /home/bseip/MentorGraphics/Sourcery_CodeBench_Lite_for_ARM_EABI/arm-none-eabi/lib/libstdc++.a(tree.o)
                0x0003447c                std::_Rb_tree_rotate_left(std::_Rb_tree_node_base*, std::_Rb_tree_node_base*&)

.text._ZSt21_Rb_tree_rotate_rightPSt18_Rb_tree_node_baseRS0_
                0x00034480        0x4
 .text._ZSt21_Rb_tree_rotate_rightPSt18_Rb_tree_node_baseRS0_
                0x00034480        0x4 /home/bseip/MentorGraphics/Sourcery_CodeBench_Lite_for_ARM_EABI/arm-none-eabi/lib/libstdc++.a(tree.o)
                0x00034480                std::_Rb_tree_rotate_right(std::_Rb_tree_node_base*, std::_Rb_tree_node_base*&)

.text._ZSt29_Rb_tree_insert_and_rebalancebPSt18_Rb_tree_node_baseS0_RS_
                0x00034484      0x17c
 .text._ZSt29_Rb_tree_insert_and_rebalancebPSt18_Rb_tree_node_baseS0_RS_
                0x00034484      0x17c /home/bseip/MentorGraphics/Sourcery_CodeBench_Lite_for_ARM_EABI/arm-none-eabi/lib/libstdc++.a(tree.o)
                0x00034484                std::_Rb_tree_insert_and_rebalance(bool, std::_Rb_tree_node_base*, std::_Rb_tree_node_base*, std::_Rb_tree_node_base&)

.text._ZSt28_Rb_tree_rebalance_for_erasePSt18_Rb_tree_node_baseRS_
                0x00034600      0x3d8
 .text._ZSt28_Rb_tree_rebalance_for_erasePSt18_Rb_tree_node_baseRS_
                0x00034600      0x3d8 /home/bseip/MentorGraphics/Sourcery_CodeBench_Lite_for_ARM_EABI/arm-none-eabi/lib/libstdc++.a(tree.o)
                0x00034600                std::_Rb_tree_rebalance_for_erase(std::_Rb_tree_node_base*, std::_Rb_tree_node_base&)

.text._ZSt20_Rb_tree_black_countPKSt18_Rb_tree_node_baseS1_
                0x000349d8       0x30
 .text._ZSt20_Rb_tree_black_countPKSt18_Rb_tree_node_baseS1_
                0x000349d8       0x30 /home/bseip/MentorGraphics/Sourcery_CodeBench_Lite_for_ARM_EABI/arm-none-eabi/lib/libstdc++.a(tree.o)
                0x000349d8                std::_Rb_tree_black_count(std::_Rb_tree_node_base const*, std::_Rb_tree_node_base const*)

.text._ZSt21__throw_bad_exceptionv
                0x00034a08       0x2c
 .text._ZSt21__throw_bad_exceptionv
                0x00034a08       0x2c /home/bseip/MentorGraphics/Sourcery_CodeBench_Lite_for_ARM_EABI/arm-none-eabi/lib/libstdc++.a(functexcept.o)
                0x00034a08                std::__throw_bad_exception()

.text._ZSt17__throw_bad_allocv
                0x00034a34       0x2c
 .text._ZSt17__throw_bad_allocv
                0x00034a34       0x2c /home/bseip/MentorGraphics/Sourcery_CodeBench_Lite_for_ARM_EABI/arm-none-eabi/lib/libstdc++.a(functexcept.o)
                0x00034a34                std::__throw_bad_alloc()

.text._ZSt16__throw_bad_castv
                0x00034a60       0x2c
 .text._ZSt16__throw_bad_castv
                0x00034a60       0x2c /home/bseip/MentorGraphics/Sourcery_CodeBench_Lite_for_ARM_EABI/arm-none-eabi/lib/libstdc++.a(functexcept.o)
                0x00034a60                std::__throw_bad_cast()

.text._ZSt18__throw_bad_typeidv
                0x00034a8c       0x2c
 .text._ZSt18__throw_bad_typeidv
                0x00034a8c       0x2c /home/bseip/MentorGraphics/Sourcery_CodeBench_Lite_for_ARM_EABI/arm-none-eabi/lib/libstdc++.a(functexcept.o)
                0x00034a8c                std::__throw_bad_typeid()

.text._ZSt19__throw_logic_errorPKc
                0x00034ab8       0x7c
 .text._ZSt19__throw_logic_errorPKc
                0x00034ab8       0x7c /home/bseip/MentorGraphics/Sourcery_CodeBench_Lite_for_ARM_EABI/arm-none-eabi/lib/libstdc++.a(functexcept.o)
                0x00034ab8                std::__throw_logic_error(char const*)

.text._ZSt20__throw_domain_errorPKc
                0x00034b34       0x7c
 .text._ZSt20__throw_domain_errorPKc
                0x00034b34       0x7c /home/bseip/MentorGraphics/Sourcery_CodeBench_Lite_for_ARM_EABI/arm-none-eabi/lib/libstdc++.a(functexcept.o)
                0x00034b34                std::__throw_domain_error(char const*)

.text._ZSt24__throw_invalid_argumentPKc
                0x00034bb0       0x7c
 .text._ZSt24__throw_invalid_argumentPKc
                0x00034bb0       0x7c /home/bseip/MentorGraphics/Sourcery_CodeBench_Lite_for_ARM_EABI/arm-none-eabi/lib/libstdc++.a(functexcept.o)
                0x00034bb0                std::__throw_invalid_argument(char const*)

.text._ZSt20__throw_length_errorPKc
                0x00034c2c       0x7c
 .text._ZSt20__throw_length_errorPKc
                0x00034c2c       0x7c /home/bseip/MentorGraphics/Sourcery_CodeBench_Lite_for_ARM_EABI/arm-none-eabi/lib/libstdc++.a(functexcept.o)
                0x00034c2c                std::__throw_length_error(char const*)

.text._ZSt20__throw_out_of_rangePKc
                0x00034ca8       0x7c
 .text._ZSt20__throw_out_of_rangePKc
                0x00034ca8       0x7c /home/bseip/MentorGraphics/Sourcery_CodeBench_Lite_for_ARM_EABI/arm-none-eabi/lib/libstdc++.a(functexcept.o)
                0x00034ca8                std::__throw_out_of_range(char const*)

.text._ZSt21__throw_runtime_errorPKc
                0x00034d24       0x7c
 .text._ZSt21__throw_runtime_errorPKc
                0x00034d24       0x7c /home/bseip/MentorGraphics/Sourcery_CodeBench_Lite_for_ARM_EABI/arm-none-eabi/lib/libstdc++.a(functexcept.o)
                0x00034d24                std::__throw_runtime_error(char const*)

.text._ZSt19__throw_range_errorPKc
                0x00034da0       0x7c
 .text._ZSt19__throw_range_errorPKc
                0x00034da0       0x7c /home/bseip/MentorGraphics/Sourcery_CodeBench_Lite_for_ARM_EABI/arm-none-eabi/lib/libstdc++.a(functexcept.o)
                0x00034da0                std::__throw_range_error(char const*)

.text._ZSt22__throw_overflow_errorPKc
                0x00034e1c       0x7c
 .text._ZSt22__throw_overflow_errorPKc
                0x00034e1c       0x7c /home/bseip/MentorGraphics/Sourcery_CodeBench_Lite_for_ARM_EABI/arm-none-eabi/lib/libstdc++.a(functexcept.o)
                0x00034e1c                std::__throw_overflow_error(char const*)

.text._ZSt23__throw_underflow_errorPKc
                0x00034e98       0x7c
 .text._ZSt23__throw_underflow_errorPKc
                0x00034e98       0x7c /home/bseip/MentorGraphics/Sourcery_CodeBench_Lite_for_ARM_EABI/arm-none-eabi/lib/libstdc++.a(functexcept.o)
                0x00034e98                std::__throw_underflow_error(char const*)

.text._ZSt19__throw_ios_failurePKc
                0x00034f14       0x68
 .text._ZSt19__throw_ios_failurePKc
                0x00034f14       0x68 /home/bseip/MentorGraphics/Sourcery_CodeBench_Lite_for_ARM_EABI/arm-none-eabi/lib/libstdc++.a(functexcept.o)
                0x00034f14                std::__throw_ios_failure(char const*)

.text._ZSt20__throw_system_errori
                0x00034f7c       0xa4
 .text._ZSt20__throw_system_errori
                0x00034f7c       0xa4 /home/bseip/MentorGraphics/Sourcery_CodeBench_Lite_for_ARM_EABI/arm-none-eabi/lib/libstdc++.a(functexcept.o)
                0x00034f7c                std::__throw_system_error(int)

.text._ZSt20__throw_future_errori
                0x00035020       0x9c
 .text._ZSt20__throw_future_errori
                0x00035020       0x9c /home/bseip/MentorGraphics/Sourcery_CodeBench_Lite_for_ARM_EABI/arm-none-eabi/lib/libstdc++.a(functexcept.o)
                0x00035020                std::__throw_future_error(int)

.text._ZSt25__throw_bad_function_callv
                0x000350bc       0x2c
 .text._ZSt25__throw_bad_function_callv
                0x000350bc       0x2c /home/bseip/MentorGraphics/Sourcery_CodeBench_Lite_for_ARM_EABI/arm-none-eabi/lib/libstdc++.a(functexcept.o)
                0x000350bc                std::__throw_bad_function_call()

.text._ZSt19__throw_regex_errorNSt15regex_constants10error_typeE
                0x000350e8       0x40
 .text._ZSt19__throw_regex_errorNSt15regex_constants10error_typeE
                0x000350e8       0x40 /home/bseip/MentorGraphics/Sourcery_CodeBench_Lite_for_ARM_EABI/arm-none-eabi/lib/libstdc++.a(functexcept.o)
                0x000350e8                std::__throw_regex_error(std::regex_constants::error_type)

.text._ZNKSs4dataEv
                0x00035128        0x8
 .text._ZNKSs4dataEv
                0x00035128        0x8 /home/bseip/MentorGraphics/Sourcery_CodeBench_Lite_for_ARM_EABI/arm-none-eabi/lib/libstdc++.a(string-inst.o)
                0x00035128                std::string::data() const

.text._ZNKSs6lengthEv
                0x00035130        0xc
 .text._ZNKSs6lengthEv
                0x00035130        0xc /home/bseip/MentorGraphics/Sourcery_CodeBench_Lite_for_ARM_EABI/arm-none-eabi/lib/libstdc++.a(string-inst.o)
                0x00035130                std::string::length() const

.text._ZNKSs7_M_dataEv
                0x0003513c        0x8
 .text._ZNKSs7_M_dataEv
                0x0003513c        0x8 /home/bseip/MentorGraphics/Sourcery_CodeBench_Lite_for_ARM_EABI/arm-none-eabi/lib/libstdc++.a(string-inst.o)
                0x0003513c                std::string::_M_data() const

.text._ZNSs7_M_dataEPc
                0x00035144        0xc
 .text._ZNSs7_M_dataEPc
                0x00035144        0xc /home/bseip/MentorGraphics/Sourcery_CodeBench_Lite_for_ARM_EABI/arm-none-eabi/lib/libstdc++.a(string-inst.o)
                0x00035144                std::string::_M_data(char*)

.text._ZNKSs6_M_repEv
                0x00035150        0xc
 .text._ZNKSs6_M_repEv
                0x00035150        0xc /home/bseip/MentorGraphics/Sourcery_CodeBench_Lite_for_ARM_EABI/arm-none-eabi/lib/libstdc++.a(string-inst.o)
                0x00035150                std::string::_M_rep() const

.text._ZNKSs9_M_ibeginEv
                0x0003515c        0x8
 .text._ZNKSs9_M_ibeginEv
                0x0003515c        0x8 /home/bseip/MentorGraphics/Sourcery_CodeBench_Lite_for_ARM_EABI/arm-none-eabi/lib/libstdc++.a(string-inst.o)
                0x0003515c                std::string::_M_ibegin() const

.text._ZNKSs7_M_iendEv
                0x00035164       0x10
 .text._ZNKSs7_M_iendEv
                0x00035164       0x10 /home/bseip/MentorGraphics/Sourcery_CodeBench_Lite_for_ARM_EABI/arm-none-eabi/lib/libstdc++.a(string-inst.o)
                0x00035164                std::string::_M_iend() const

.text._ZNKSs8_M_checkEjPKc
                0x00035174       0x28
 .text._ZNKSs8_M_checkEjPKc
                0x00035174       0x28 /home/bseip/MentorGraphics/Sourcery_CodeBench_Lite_for_ARM_EABI/arm-none-eabi/lib/libstdc++.a(string-inst.o)
                0x00035174                std::string::_M_check(unsigned int, char const*) const

.text._ZNKSs15_M_check_lengthEjjPKc
                0x0003519c       0x30
 .text._ZNKSs15_M_check_lengthEjjPKc
                0x0003519c       0x30 /home/bseip/MentorGraphics/Sourcery_CodeBench_Lite_for_ARM_EABI/arm-none-eabi/lib/libstdc++.a(string-inst.o)
                0x0003519c                std::string::_M_check_length(unsigned int, unsigned int, char const*) const

.text._ZNKSs8_M_limitEjj
                0x000351cc       0x18
 .text._ZNKSs8_M_limitEjj
                0x000351cc       0x18 /home/bseip/MentorGraphics/Sourcery_CodeBench_Lite_for_ARM_EABI/arm-none-eabi/lib/libstdc++.a(string-inst.o)
                0x000351cc                std::string::_M_limit(unsigned int, unsigned int) const

.text._ZNKSs11_M_disjunctEPKc
                0x000351e4       0x2c
 .text._ZNKSs11_M_disjunctEPKc
                0x000351e4       0x2c /home/bseip/MentorGraphics/Sourcery_CodeBench_Lite_for_ARM_EABI/arm-none-eabi/lib/libstdc++.a(string-inst.o)
                0x000351e4                std::string::_M_disjunct(char const*) const

.text._ZNSs7_M_copyEPcPKcj
                0x00035210       0x28
 .text._ZNSs7_M_copyEPcPKcj
                0x00035210       0x28 /home/bseip/MentorGraphics/Sourcery_CodeBench_Lite_for_ARM_EABI/arm-none-eabi/lib/libstdc++.a(string-inst.o)
                0x00035210                std::string::_M_copy(char*, char const*, unsigned int)

.text._ZNSs7_M_moveEPcPKcj
                0x00035238       0x28
 .text._ZNSs7_M_moveEPcPKcj
                0x00035238       0x28 /home/bseip/MentorGraphics/Sourcery_CodeBench_Lite_for_ARM_EABI/arm-none-eabi/lib/libstdc++.a(string-inst.o)
                0x00035238                std::string::_M_move(char*, char const*, unsigned int)

.text._ZNSs9_M_assignEPcjc
                0x00035260       0x24
 .text._ZNSs9_M_assignEPcjc
                0x00035260       0x24 /home/bseip/MentorGraphics/Sourcery_CodeBench_Lite_for_ARM_EABI/arm-none-eabi/lib/libstdc++.a(string-inst.o)
                0x00035260                std::string::_M_assign(char*, unsigned int, char)

.text._ZNSs13_S_copy_charsEPcN9__gnu_cxx17__normal_iteratorIS_SsEES2_
                0x00035284       0x2c
 .text._ZNSs13_S_copy_charsEPcN9__gnu_cxx17__normal_iteratorIS_SsEES2_
                0x00035284       0x2c /home/bseip/MentorGraphics/Sourcery_CodeBench_Lite_for_ARM_EABI/arm-none-eabi/lib/libstdc++.a(string-inst.o)
                0x00035284                std::string::_S_copy_chars(char*, __gnu_cxx::__normal_iterator<char*, std::string>, __gnu_cxx::__normal_iterator<char*, std::string>)

.text._ZNSs13_S_copy_charsEPcN9__gnu_cxx17__normal_iteratorIPKcSsEES4_
                0x000352b0       0x2c
 .text._ZNSs13_S_copy_charsEPcN9__gnu_cxx17__normal_iteratorIPKcSsEES4_
                0x000352b0       0x2c /home/bseip/MentorGraphics/Sourcery_CodeBench_Lite_for_ARM_EABI/arm-none-eabi/lib/libstdc++.a(string-inst.o)
                0x000352b0                std::string::_S_copy_chars(char*, __gnu_cxx::__normal_iterator<char const*, std::string>, __gnu_cxx::__normal_iterator<char const*, std::string>)

.text._ZNSs13_S_copy_charsEPcS_S_
                0x000352dc       0x2c
 .text._ZNSs13_S_copy_charsEPcS_S_
                0x000352dc       0x2c /home/bseip/MentorGraphics/Sourcery_CodeBench_Lite_for_ARM_EABI/arm-none-eabi/lib/libstdc++.a(string-inst.o)
                0x000352dc                std::string::_S_copy_chars(char*, char*, char*)

.text._ZNSs13_S_copy_charsEPcPKcS1_
                0x00035308       0x2c
 .text._ZNSs13_S_copy_charsEPcPKcS1_
                0x00035308       0x2c /home/bseip/MentorGraphics/Sourcery_CodeBench_Lite_for_ARM_EABI/arm-none-eabi/lib/libstdc++.a(string-inst.o)
                0x00035308                std::string::_S_copy_chars(char*, char const*, char const*)

.text._ZNSs10_S_compareEjj
                0x00035334        0x8
 .text._ZNSs10_S_compareEjj
                0x00035334        0x8 /home/bseip/MentorGraphics/Sourcery_CodeBench_Lite_for_ARM_EABI/arm-none-eabi/lib/libstdc++.a(string-inst.o)
                0x00035334                std::string::_S_compare(unsigned int, unsigned int)

.text._ZNSs12_S_empty_repEv
                0x0003533c        0xc
 .text._ZNSs12_S_empty_repEv
                0x0003533c        0xc /home/bseip/MentorGraphics/Sourcery_CodeBench_Lite_for_ARM_EABI/arm-none-eabi/lib/libstdc++.a(string-inst.o)
                0x0003533c                std::string::_S_empty_rep()

.text._ZNSsC2Ev
                0x00035348       0x10
 .text._ZNSsC2Ev
                0x00035348       0x10 /home/bseip/MentorGraphics/Sourcery_CodeBench_Lite_for_ARM_EABI/arm-none-eabi/lib/libstdc++.a(string-inst.o)
                0x00035348                std::basic_string<char, std::char_traits<char>, std::allocator<char> >::basic_string()
                0x00035348                std::basic_string<char, std::char_traits<char>, std::allocator<char> >::basic_string()

.text._ZNSsC2EOSs
                0x00035358       0x18
 .text._ZNSsC2EOSs
                0x00035358       0x18 /home/bseip/MentorGraphics/Sourcery_CodeBench_Lite_for_ARM_EABI/arm-none-eabi/lib/libstdc++.a(string-inst.o)
                0x00035358                std::basic_string<char, std::char_traits<char>, std::allocator<char> >::basic_string(std::string&&)
                0x00035358                std::basic_string<char, std::char_traits<char>, std::allocator<char> >::basic_string(std::string&&)

.text._ZNKSs5beginEv
                0x00035370        0x8
 .text._ZNKSs5beginEv
                0x00035370        0x8 /home/bseip/MentorGraphics/Sourcery_CodeBench_Lite_for_ARM_EABI/arm-none-eabi/lib/libstdc++.a(string-inst.o)
                0x00035370                std::string::begin() const

.text._ZNKSs3endEv
                0x00035378       0x10
 .text._ZNKSs3endEv
                0x00035378       0x10 /home/bseip/MentorGraphics/Sourcery_CodeBench_Lite_for_ARM_EABI/arm-none-eabi/lib/libstdc++.a(string-inst.o)
                0x00035378                std::string::end() const

.text._ZNKSs6rbeginEv
                0x00035388       0x14
 .text._ZNKSs6rbeginEv
                0x00035388       0x14 /home/bseip/MentorGraphics/Sourcery_CodeBench_Lite_for_ARM_EABI/arm-none-eabi/lib/libstdc++.a(string-inst.o)
                0x00035388                std::string::rbegin() const

.text._ZNKSs4rendEv
                0x0003539c        0xc
 .text._ZNKSs4rendEv
                0x0003539c        0xc /home/bseip/MentorGraphics/Sourcery_CodeBench_Lite_for_ARM_EABI/arm-none-eabi/lib/libstdc++.a(string-inst.o)
                0x0003539c                std::string::rend() const

.text._ZNKSs6cbeginEv
                0x000353a8        0x8
 .text._ZNKSs6cbeginEv
                0x000353a8        0x8 /home/bseip/MentorGraphics/Sourcery_CodeBench_Lite_for_ARM_EABI/arm-none-eabi/lib/libstdc++.a(string-inst.o)
                0x000353a8                std::string::cbegin() const

.text._ZNKSs4cendEv
                0x000353b0       0x10
 .text._ZNKSs4cendEv
                0x000353b0       0x10 /home/bseip/MentorGraphics/Sourcery_CodeBench_Lite_for_ARM_EABI/arm-none-eabi/lib/libstdc++.a(string-inst.o)
                0x000353b0                std::string::cend() const

.text._ZNKSs7crbeginEv
                0x000353c0       0x14
 .text._ZNKSs7crbeginEv
                0x000353c0       0x14 /home/bseip/MentorGraphics/Sourcery_CodeBench_Lite_for_ARM_EABI/arm-none-eabi/lib/libstdc++.a(string-inst.o)
                0x000353c0                std::string::crbegin() const

.text._ZNKSs5crendEv
                0x000353d4        0xc
 .text._ZNKSs5crendEv
                0x000353d4        0xc /home/bseip/MentorGraphics/Sourcery_CodeBench_Lite_for_ARM_EABI/arm-none-eabi/lib/libstdc++.a(string-inst.o)
                0x000353d4                std::string::crend() const

.text._ZNKSs4sizeEv
                0x000353e0        0xc
 .text._ZNKSs4sizeEv
                0x000353e0        0xc /home/bseip/MentorGraphics/Sourcery_CodeBench_Lite_for_ARM_EABI/arm-none-eabi/lib/libstdc++.a(string-inst.o)
                0x000353e0                std::string::size() const

.text._ZNKSs8max_sizeEv
                0x000353ec        0x8
 .text._ZNKSs8max_sizeEv
                0x000353ec        0x8 /home/bseip/MentorGraphics/Sourcery_CodeBench_Lite_for_ARM_EABI/arm-none-eabi/lib/libstdc++.a(string-inst.o)
                0x000353ec                std::string::max_size() const

.text._ZNKSs8capacityEv
                0x000353f4        0xc
 .text._ZNKSs8capacityEv
                0x000353f4        0xc /home/bseip/MentorGraphics/Sourcery_CodeBench_Lite_for_ARM_EABI/arm-none-eabi/lib/libstdc++.a(string-inst.o)
                0x000353f4                std::string::capacity() const

.text._ZNKSs5emptyEv
                0x00035400       0x14
 .text._ZNKSs5emptyEv
                0x00035400       0x14 /home/bseip/MentorGraphics/Sourcery_CodeBench_Lite_for_ARM_EABI/arm-none-eabi/lib/libstdc++.a(string-inst.o)
                0x00035400                std::string::empty() const

.text._ZNKSsixEj
                0x00035414        0xc
 .text._ZNKSsixEj
                0x00035414        0xc /home/bseip/MentorGraphics/Sourcery_CodeBench_Lite_for_ARM_EABI/arm-none-eabi/lib/libstdc++.a(string-inst.o)
                0x00035414                std::string::operator[](unsigned int) const

.text._ZNKSs2atEj
                0x00035420       0x2c
 .text._ZNKSs2atEj
                0x00035420       0x2c /home/bseip/MentorGraphics/Sourcery_CodeBench_Lite_for_ARM_EABI/arm-none-eabi/lib/libstdc++.a(string-inst.o)
                0x00035420                std::string::at(unsigned int) const

.text._ZNKSs5frontEv
                0x0003544c        0x8
 .text._ZNKSs5frontEv
                0x0003544c        0x8 /home/bseip/MentorGraphics/Sourcery_CodeBench_Lite_for_ARM_EABI/arm-none-eabi/lib/libstdc++.a(string-inst.o)
                0x0003544c                std::string::front() const

.text._ZNKSs4backEv
                0x00035454       0x14
 .text._ZNKSs4backEv
                0x00035454       0x14 /home/bseip/MentorGraphics/Sourcery_CodeBench_Lite_for_ARM_EABI/arm-none-eabi/lib/libstdc++.a(string-inst.o)
                0x00035454                std::string::back() const

.text._ZNKSs4copyEPcjj
                0x00035468       0x70
 .text._ZNKSs4copyEPcjj
                0x00035468       0x70 /home/bseip/MentorGraphics/Sourcery_CodeBench_Lite_for_ARM_EABI/arm-none-eabi/lib/libstdc++.a(string-inst.o)
                0x00035468                std::string::copy(char*, unsigned int, unsigned int) const

.text._ZNSs4swapERSs
                0x000354d8       0x34
 .text._ZNSs4swapERSs
                0x000354d8       0x34 /home/bseip/MentorGraphics/Sourcery_CodeBench_Lite_for_ARM_EABI/arm-none-eabi/lib/libstdc++.a(string-inst.o)
                0x000354d8                std::string::swap(std::string&)

.text._ZNSsaSEOSs
                0x0003550c       0x18
 .text._ZNSsaSEOSs
                0x0003550c       0x18 /home/bseip/MentorGraphics/Sourcery_CodeBench_Lite_for_ARM_EABI/arm-none-eabi/lib/libstdc++.a(string-inst.o)
                0x0003550c                std::string::operator=(std::string&&)

.text._ZNSs6assignEOSs
                0x00035524       0x18
 .text._ZNSs6assignEOSs
                0x00035524       0x18 /home/bseip/MentorGraphics/Sourcery_CodeBench_Lite_for_ARM_EABI/arm-none-eabi/lib/libstdc++.a(string-inst.o)
                0x00035524                std::string::assign(std::string&&)

.text._ZNKSs5c_strEv
                0x0003553c        0x8
 .text._ZNKSs5c_strEv
                0x0003553c        0x8 /home/bseip/MentorGraphics/Sourcery_CodeBench_Lite_for_ARM_EABI/arm-none-eabi/lib/libstdc++.a(string-inst.o)
                0x0003553c                std::string::c_str() const

.text._ZNKSs13get_allocatorEv
                0x00035544        0x4
 .text._ZNKSs13get_allocatorEv
                0x00035544        0x4 /home/bseip/MentorGraphics/Sourcery_CodeBench_Lite_for_ARM_EABI/arm-none-eabi/lib/libstdc++.a(string-inst.o)
                0x00035544                std::string::get_allocator() const

.text._ZNKSs4findEPKcjj
                0x00035548       0x9c
 .text._ZNKSs4findEPKcjj
                0x00035548       0x9c /home/bseip/MentorGraphics/Sourcery_CodeBench_Lite_for_ARM_EABI/arm-none-eabi/lib/libstdc++.a(string-inst.o)
                0x00035548                std::string::find(char const*, unsigned int, unsigned int) const

.text._ZNKSs4findERKSsj
                0x000355e4       0x18
 .text._ZNKSs4findERKSsj
                0x000355e4       0x18 /home/bseip/MentorGraphics/Sourcery_CodeBench_Lite_for_ARM_EABI/arm-none-eabi/lib/libstdc++.a(string-inst.o)
                0x000355e4                std::string::find(std::string const&, unsigned int) const

.text._ZNKSs4findEPKcj
                0x000355fc       0x34
 .text._ZNKSs4findEPKcj
                0x000355fc       0x34 /home/bseip/MentorGraphics/Sourcery_CodeBench_Lite_for_ARM_EABI/arm-none-eabi/lib/libstdc++.a(string-inst.o)
                0x000355fc                std::string::find(char const*, unsigned int) const

.text._ZNKSs4findEcj
                0x00035630       0x44
 .text._ZNKSs4findEcj
                0x00035630       0x44 /home/bseip/MentorGraphics/Sourcery_CodeBench_Lite_for_ARM_EABI/arm-none-eabi/lib/libstdc++.a(string-inst.o)
                0x00035630                std::string::find(char, unsigned int) const

.text._ZNKSs5rfindEPKcjj
                0x00035674       0x68
 .text._ZNKSs5rfindEPKcjj
                0x00035674       0x68 /home/bseip/MentorGraphics/Sourcery_CodeBench_Lite_for_ARM_EABI/arm-none-eabi/lib/libstdc++.a(string-inst.o)
                0x00035674                std::string::rfind(char const*, unsigned int, unsigned int) const

.text._ZNKSs5rfindERKSsj
                0x000356dc       0x18
 .text._ZNKSs5rfindERKSsj
                0x000356dc       0x18 /home/bseip/MentorGraphics/Sourcery_CodeBench_Lite_for_ARM_EABI/arm-none-eabi/lib/libstdc++.a(string-inst.o)
                0x000356dc                std::string::rfind(std::string const&, unsigned int) const

.text._ZNKSs5rfindEPKcj
                0x000356f4       0x34
 .text._ZNKSs5rfindEPKcj
                0x000356f4       0x34 /home/bseip/MentorGraphics/Sourcery_CodeBench_Lite_for_ARM_EABI/arm-none-eabi/lib/libstdc++.a(string-inst.o)
                0x000356f4                std::string::rfind(char const*, unsigned int) const

.text._ZNKSs5rfindEcj
                0x00035728       0x44
 .text._ZNKSs5rfindEcj
                0x00035728       0x44 /home/bseip/MentorGraphics/Sourcery_CodeBench_Lite_for_ARM_EABI/arm-none-eabi/lib/libstdc++.a(string-inst.o)
                0x00035728                std::string::rfind(char, unsigned int) const

.text._ZNKSs13find_first_ofEPKcjj
                0x0003576c       0x60
 .text._ZNKSs13find_first_ofEPKcjj
                0x0003576c       0x60 /home/bseip/MentorGraphics/Sourcery_CodeBench_Lite_for_ARM_EABI/arm-none-eabi/lib/libstdc++.a(string-inst.o)
                0x0003576c                std::string::find_first_of(char const*, unsigned int, unsigned int) const

.text._ZNKSs13find_first_ofERKSsj
                0x000357cc       0x18
 .text._ZNKSs13find_first_ofERKSsj
                0x000357cc       0x18 /home/bseip/MentorGraphics/Sourcery_CodeBench_Lite_for_ARM_EABI/arm-none-eabi/lib/libstdc++.a(string-inst.o)
                0x000357cc                std::string::find_first_of(std::string const&, unsigned int) const

.text._ZNKSs13find_first_ofEPKcj
                0x000357e4       0x34
 .text._ZNKSs13find_first_ofEPKcj
                0x000357e4       0x34 /home/bseip/MentorGraphics/Sourcery_CodeBench_Lite_for_ARM_EABI/arm-none-eabi/lib/libstdc++.a(string-inst.o)
                0x000357e4                std::string::find_first_of(char const*, unsigned int) const

.text._ZNKSs13find_first_ofEcj
                0x00035818       0x10
 .text._ZNKSs13find_first_ofEcj
                0x00035818       0x10 /home/bseip/MentorGraphics/Sourcery_CodeBench_Lite_for_ARM_EABI/arm-none-eabi/lib/libstdc++.a(string-inst.o)
                0x00035818                std::string::find_first_of(char, unsigned int) const

.text._ZNKSs12find_last_ofEPKcjj
                0x00035828       0x6c
 .text._ZNKSs12find_last_ofEPKcjj
                0x00035828       0x6c /home/bseip/MentorGraphics/Sourcery_CodeBench_Lite_for_ARM_EABI/arm-none-eabi/lib/libstdc++.a(string-inst.o)
                0x00035828                std::string::find_last_of(char const*, unsigned int, unsigned int) const

.text._ZNKSs12find_last_ofERKSsj
                0x00035894       0x18
 .text._ZNKSs12find_last_ofERKSsj
                0x00035894       0x18 /home/bseip/MentorGraphics/Sourcery_CodeBench_Lite_for_ARM_EABI/arm-none-eabi/lib/libstdc++.a(string-inst.o)
                0x00035894                std::string::find_last_of(std::string const&, unsigned int) const

.text._ZNKSs12find_last_ofEPKcj
                0x000358ac       0x34
 .text._ZNKSs12find_last_ofEPKcj
                0x000358ac       0x34 /home/bseip/MentorGraphics/Sourcery_CodeBench_Lite_for_ARM_EABI/arm-none-eabi/lib/libstdc++.a(string-inst.o)
                0x000358ac                std::string::find_last_of(char const*, unsigned int) const

.text._ZNKSs12find_last_ofEcj
                0x000358e0       0x10
 .text._ZNKSs12find_last_ofEcj
                0x000358e0       0x10 /home/bseip/MentorGraphics/Sourcery_CodeBench_Lite_for_ARM_EABI/arm-none-eabi/lib/libstdc++.a(string-inst.o)
                0x000358e0                std::string::find_last_of(char, unsigned int) const

.text._ZNKSs17find_first_not_ofEPKcjj
                0x000358f0       0x60
 .text._ZNKSs17find_first_not_ofEPKcjj
                0x000358f0       0x60 /home/bseip/MentorGraphics/Sourcery_CodeBench_Lite_for_ARM_EABI/arm-none-eabi/lib/libstdc++.a(string-inst.o)
                0x000358f0                std::string::find_first_not_of(char const*, unsigned int, unsigned int) const

.text._ZNKSs17find_first_not_ofERKSsj
                0x00035950       0x18
 .text._ZNKSs17find_first_not_ofERKSsj
                0x00035950       0x18 /home/bseip/MentorGraphics/Sourcery_CodeBench_Lite_for_ARM_EABI/arm-none-eabi/lib/libstdc++.a(string-inst.o)
                0x00035950                std::string::find_first_not_of(std::string const&, unsigned int) const

.text._ZNKSs17find_first_not_ofEPKcj
                0x00035968       0x34
 .text._ZNKSs17find_first_not_ofEPKcj
                0x00035968       0x34 /home/bseip/MentorGraphics/Sourcery_CodeBench_Lite_for_ARM_EABI/arm-none-eabi/lib/libstdc++.a(string-inst.o)
                0x00035968                std::string::find_first_not_of(char const*, unsigned int) const

.text._ZNKSs17find_first_not_ofEcj
                0x0003599c       0x4c
 .text._ZNKSs17find_first_not_ofEcj
                0x0003599c       0x4c /home/bseip/MentorGraphics/Sourcery_CodeBench_Lite_for_ARM_EABI/arm-none-eabi/lib/libstdc++.a(string-inst.o)
                0x0003599c                std::string::find_first_not_of(char, unsigned int) const

.text._ZNKSs16find_last_not_ofEPKcjj
                0x000359e8       0x68
 .text._ZNKSs16find_last_not_ofEPKcjj
                0x000359e8       0x68 /home/bseip/MentorGraphics/Sourcery_CodeBench_Lite_for_ARM_EABI/arm-none-eabi/lib/libstdc++.a(string-inst.o)
                0x000359e8                std::string::find_last_not_of(char const*, unsigned int, unsigned int) const

.text._ZNKSs16find_last_not_ofERKSsj
                0x00035a50       0x18
 .text._ZNKSs16find_last_not_ofERKSsj
                0x00035a50       0x18 /home/bseip/MentorGraphics/Sourcery_CodeBench_Lite_for_ARM_EABI/arm-none-eabi/lib/libstdc++.a(string-inst.o)
                0x00035a50                std::string::find_last_not_of(std::string const&, unsigned int) const

.text._ZNKSs16find_last_not_ofEPKcj
                0x00035a68       0x34
 .text._ZNKSs16find_last_not_ofEPKcj
                0x00035a68       0x34 /home/bseip/MentorGraphics/Sourcery_CodeBench_Lite_for_ARM_EABI/arm-none-eabi/lib/libstdc++.a(string-inst.o)
                0x00035a68                std::string::find_last_not_of(char const*, unsigned int) const

.text._ZNKSs16find_last_not_ofEcj
                0x00035a9c       0x40
 .text._ZNKSs16find_last_not_ofEcj
                0x00035a9c       0x40 /home/bseip/MentorGraphics/Sourcery_CodeBench_Lite_for_ARM_EABI/arm-none-eabi/lib/libstdc++.a(string-inst.o)
                0x00035a9c                std::string::find_last_not_of(char, unsigned int) const

.text._ZNKSs7compareERKSs
                0x00035adc       0x34
 .text._ZNKSs7compareERKSs
                0x00035adc       0x34 /home/bseip/MentorGraphics/Sourcery_CodeBench_Lite_for_ARM_EABI/arm-none-eabi/lib/libstdc++.a(string-inst.o)
                0x00035adc                std::string::compare(std::string const&) const

.text._ZNKSs7compareEjjRKSs
                0x00035b10       0x60
 .text._ZNKSs7compareEjjRKSs
                0x00035b10       0x60 /home/bseip/MentorGraphics/Sourcery_CodeBench_Lite_for_ARM_EABI/arm-none-eabi/lib/libstdc++.a(string-inst.o)
                0x00035b10                std::string::compare(unsigned int, unsigned int, std::string const&) const

.text._ZNKSs7compareEjjRKSsjj
                0x00035b70       0x7c
 .text._ZNKSs7compareEjjRKSsjj
                0x00035b70       0x7c /home/bseip/MentorGraphics/Sourcery_CodeBench_Lite_for_ARM_EABI/arm-none-eabi/lib/libstdc++.a(string-inst.o)
                0x00035b70                std::string::compare(unsigned int, unsigned int, std::string const&, unsigned int, unsigned int) const

.text._ZNKSs7compareEPKc
                0x00035bec       0x44
 .text._ZNKSs7compareEPKc
                0x00035bec       0x44 /home/bseip/MentorGraphics/Sourcery_CodeBench_Lite_for_ARM_EABI/arm-none-eabi/lib/libstdc++.a(string-inst.o)
                0x00035bec                std::string::compare(char const*) const

.text._ZNKSs7compareEjjPKc
                0x00035c30       0x6c
 .text._ZNKSs7compareEjjPKc
                0x00035c30       0x6c /home/bseip/MentorGraphics/Sourcery_CodeBench_Lite_for_ARM_EABI/arm-none-eabi/lib/libstdc++.a(string-inst.o)
                0x00035c30                std::string::compare(unsigned int, unsigned int, char const*) const

.text._ZNKSs7compareEjjPKcj
                0x00035c9c       0x5c
 .text._ZNKSs7compareEjjPKcj
                0x00035c9c       0x5c /home/bseip/MentorGraphics/Sourcery_CodeBench_Lite_for_ARM_EABI/arm-none-eabi/lib/libstdc++.a(string-inst.o)
                0x00035c9c                std::string::compare(unsigned int, unsigned int, char const*, unsigned int) const

.text._ZNSs12_Alloc_hiderC2EPcRKSaIcE
                0x00035cf8        0x8
 .text._ZNSs12_Alloc_hiderC2EPcRKSaIcE
                0x00035cf8        0x8 /home/bseip/MentorGraphics/Sourcery_CodeBench_Lite_for_ARM_EABI/arm-none-eabi/lib/libstdc++.a(string-inst.o)
                0x00035cf8                std::string::_Alloc_hider::_Alloc_hider(char*, std::allocator<char> const&)
                0x00035cf8                std::string::_Alloc_hider::_Alloc_hider(char*, std::allocator<char> const&)

.text._ZNSs4_Rep12_S_empty_repEv
                0x00035d00        0xc
 .text._ZNSs4_Rep12_S_empty_repEv
                0x00035d00        0xc /home/bseip/MentorGraphics/Sourcery_CodeBench_Lite_for_ARM_EABI/arm-none-eabi/lib/libstdc++.a(string-inst.o)
                0x00035d00                std::string::_Rep::_S_empty_rep()

.text._ZNKSs4_Rep12_M_is_leakedEv
                0x00035d0c        0xc
 .text._ZNKSs4_Rep12_M_is_leakedEv
                0x00035d0c        0xc /home/bseip/MentorGraphics/Sourcery_CodeBench_Lite_for_ARM_EABI/arm-none-eabi/lib/libstdc++.a(string-inst.o)
                0x00035d0c                std::string::_Rep::_M_is_leaked() const

.text._ZNKSs4_Rep12_M_is_sharedEv
                0x00035d18       0x14
 .text._ZNKSs4_Rep12_M_is_sharedEv
                0x00035d18       0x14 /home/bseip/MentorGraphics/Sourcery_CodeBench_Lite_for_ARM_EABI/arm-none-eabi/lib/libstdc++.a(string-inst.o)
                0x00035d18                std::string::_Rep::_M_is_shared() const

.text._ZNSs4_Rep13_M_set_leakedEv
                0x00035d2c        0xc
 .text._ZNSs4_Rep13_M_set_leakedEv
                0x00035d2c        0xc /home/bseip/MentorGraphics/Sourcery_CodeBench_Lite_for_ARM_EABI/arm-none-eabi/lib/libstdc++.a(string-inst.o)
                0x00035d2c                std::string::_Rep::_M_set_leaked()

.text._ZNSs4_Rep15_M_set_sharableEv
                0x00035d38        0xc
 .text._ZNSs4_Rep15_M_set_sharableEv
                0x00035d38        0xc /home/bseip/MentorGraphics/Sourcery_CodeBench_Lite_for_ARM_EABI/arm-none-eabi/lib/libstdc++.a(string-inst.o)
                0x00035d38                std::string::_Rep::_M_set_sharable()

.text._ZNSs4_Rep26_M_set_length_and_sharableEj
                0x00035d44       0x24
 .text._ZNSs4_Rep26_M_set_length_and_sharableEj
                0x00035d44       0x24 /home/bseip/MentorGraphics/Sourcery_CodeBench_Lite_for_ARM_EABI/arm-none-eabi/lib/libstdc++.a(string-inst.o)
                0x00035d44                std::string::_Rep::_M_set_length_and_sharable(unsigned int)

.text._ZNSs4_Rep10_M_refdataEv
                0x00035d68        0x8
 .text._ZNSs4_Rep10_M_refdataEv
                0x00035d68        0x8 /home/bseip/MentorGraphics/Sourcery_CodeBench_Lite_for_ARM_EABI/arm-none-eabi/lib/libstdc++.a(string-inst.o)
                0x00035d68                std::string::_Rep::_M_refdata()

.text._ZNSs4_Rep9_S_createEjjRKSaIcE
                0x00035d70       0x84
 .text._ZNSs4_Rep9_S_createEjjRKSaIcE
                0x00035d70       0x84 /home/bseip/MentorGraphics/Sourcery_CodeBench_Lite_for_ARM_EABI/arm-none-eabi/lib/libstdc++.a(string-inst.o)
                0x00035d70                std::string::_Rep::_S_create(unsigned int, unsigned int, std::allocator<char> const&)

.text._ZNSs12_S_constructEjcRKSaIcE
                0x00035df4       0x80
 .text._ZNSs12_S_constructEjcRKSaIcE
                0x00035df4       0x80 /home/bseip/MentorGraphics/Sourcery_CodeBench_Lite_for_ARM_EABI/arm-none-eabi/lib/libstdc++.a(string-inst.o)
                0x00035df4                std::string::_S_construct(unsigned int, char, std::allocator<char> const&)

.text._ZNSsC2ERKSaIcE
                0x00035e74       0x28
 .text._ZNSsC2ERKSaIcE
                0x00035e74       0x28 /home/bseip/MentorGraphics/Sourcery_CodeBench_Lite_for_ARM_EABI/arm-none-eabi/lib/libstdc++.a(string-inst.o)
                0x00035e74                std::basic_string<char, std::char_traits<char>, std::allocator<char> >::basic_string(std::allocator<char> const&)
                0x00035e74                std::basic_string<char, std::char_traits<char>, std::allocator<char> >::basic_string(std::allocator<char> const&)

.text._ZNSsC2EjcRKSaIcE
                0x00035e9c       0x28
 .text._ZNSsC2EjcRKSaIcE
                0x00035e9c       0x28 /home/bseip/MentorGraphics/Sourcery_CodeBench_Lite_for_ARM_EABI/arm-none-eabi/lib/libstdc++.a(string-inst.o)
                0x00035e9c                std::basic_string<char, std::char_traits<char>, std::allocator<char> >::basic_string(unsigned int, char, std::allocator<char> const&)
                0x00035e9c                std::basic_string<char, std::char_traits<char>, std::allocator<char> >::basic_string(unsigned int, char, std::allocator<char> const&)

.text._ZNSs18_S_construct_aux_2EjcRKSaIcE
                0x00035ec4       0x10
 .text._ZNSs18_S_construct_aux_2EjcRKSaIcE
                0x00035ec4       0x10 /home/bseip/MentorGraphics/Sourcery_CodeBench_Lite_for_ARM_EABI/arm-none-eabi/lib/libstdc++.a(string-inst.o)
                0x00035ec4                std::string::_S_construct_aux_2(unsigned int, char, std::allocator<char> const&)

.text._ZNSs4_Rep10_M_destroyERKSaIcE
                0x00035ed4       0x10
 .text._ZNSs4_Rep10_M_destroyERKSaIcE
                0x00035ed4       0x10 /home/bseip/MentorGraphics/Sourcery_CodeBench_Lite_for_ARM_EABI/arm-none-eabi/lib/libstdc++.a(string-inst.o)
                0x00035ed4                std::string::_Rep::_M_destroy(std::allocator<char> const&)

.text.unlikely._ZNSs4_Rep10_M_disposeERKSaIcE.part.11
                0x00035ee4       0x20
 .text.unlikely._ZNSs4_Rep10_M_disposeERKSaIcE.part.11
                0x00035ee4       0x20 /home/bseip/MentorGraphics/Sourcery_CodeBench_Lite_for_ARM_EABI/arm-none-eabi/lib/libstdc++.a(string-inst.o)

.text._ZNSs4_Rep10_M_disposeERKSaIcE
                0x00035f04       0x14
 .text._ZNSs4_Rep10_M_disposeERKSaIcE
                0x00035f04       0x14 /home/bseip/MentorGraphics/Sourcery_CodeBench_Lite_for_ARM_EABI/arm-none-eabi/lib/libstdc++.a(string-inst.o)
                0x00035f04                std::string::_Rep::_M_dispose(std::allocator<char> const&)

.text._ZNSsD2Ev
                0x00035f18       0x40
 .text._ZNSsD2Ev
                0x00035f18       0x40 /home/bseip/MentorGraphics/Sourcery_CodeBench_Lite_for_ARM_EABI/arm-none-eabi/lib/libstdc++.a(string-inst.o)
                0x00035f18                std::basic_string<char, std::char_traits<char>, std::allocator<char> >::~basic_string()
                0x00035f18                std::basic_string<char, std::char_traits<char>, std::allocator<char> >::~basic_string()

.text._ZNSs9_M_mutateEjjj
                0x00035f58      0x168
 .text._ZNSs9_M_mutateEjjj
                0x00035f58      0x168 /home/bseip/MentorGraphics/Sourcery_CodeBench_Lite_for_ARM_EABI/arm-none-eabi/lib/libstdc++.a(string-inst.o)
                0x00035f58                std::string::_M_mutate(unsigned int, unsigned int, unsigned int)

.text._ZNSs12_M_leak_hardEv
                0x000360c0       0x4c
 .text._ZNSs12_M_leak_hardEv
                0x000360c0       0x4c /home/bseip/MentorGraphics/Sourcery_CodeBench_Lite_for_ARM_EABI/arm-none-eabi/lib/libstdc++.a(string-inst.o)
                0x000360c0                std::string::_M_leak_hard()

.text._ZNSs7_M_leakEv
                0x0003610c       0x1c
 .text._ZNSs7_M_leakEv
                0x0003610c       0x1c /home/bseip/MentorGraphics/Sourcery_CodeBench_Lite_for_ARM_EABI/arm-none-eabi/lib/libstdc++.a(string-inst.o)
                0x0003610c                std::string::_M_leak()

.text._ZNSs5beginEv
                0x00036128       0x2c
 .text._ZNSs5beginEv
                0x00036128       0x2c /home/bseip/MentorGraphics/Sourcery_CodeBench_Lite_for_ARM_EABI/arm-none-eabi/lib/libstdc++.a(string-inst.o)
                0x00036128                std::string::begin()

.text._ZNSs4rendEv
                0x00036154       0x38
 .text._ZNSs4rendEv
                0x00036154       0x38 /home/bseip/MentorGraphics/Sourcery_CodeBench_Lite_for_ARM_EABI/arm-none-eabi/lib/libstdc++.a(string-inst.o)
                0x00036154                std::string::rend()

.text._ZNSs3endEv
                0x0003618c       0x30
 .text._ZNSs3endEv
                0x0003618c       0x30 /home/bseip/MentorGraphics/Sourcery_CodeBench_Lite_for_ARM_EABI/arm-none-eabi/lib/libstdc++.a(string-inst.o)
                0x0003618c                std::string::end()

.text._ZNSsixEj
                0x000361bc       0x30
 .text._ZNSsixEj
                0x000361bc       0x30 /home/bseip/MentorGraphics/Sourcery_CodeBench_Lite_for_ARM_EABI/arm-none-eabi/lib/libstdc++.a(string-inst.o)
                0x000361bc                std::string::operator[](unsigned int)

.text._ZNSs5frontEv
                0x000361ec       0x2c
 .text._ZNSs5frontEv
                0x000361ec       0x2c /home/bseip/MentorGraphics/Sourcery_CodeBench_Lite_for_ARM_EABI/arm-none-eabi/lib/libstdc++.a(string-inst.o)
                0x000361ec                std::string::front()

.text._ZNSs4backEv
                0x00036218       0x34
 .text._ZNSs4backEv
                0x00036218       0x34 /home/bseip/MentorGraphics/Sourcery_CodeBench_Lite_for_ARM_EABI/arm-none-eabi/lib/libstdc++.a(string-inst.o)
                0x00036218                std::string::back()

.text._ZNSs2atEj
                0x0003624c       0x48
 .text._ZNSs2atEj
                0x0003624c       0x48 /home/bseip/MentorGraphics/Sourcery_CodeBench_Lite_for_ARM_EABI/arm-none-eabi/lib/libstdc++.a(string-inst.o)
                0x0003624c                std::string::at(unsigned int)

.text._ZNSs6rbeginEv
                0x00036294       0x40
 .text._ZNSs6rbeginEv
                0x00036294       0x40 /home/bseip/MentorGraphics/Sourcery_CodeBench_Lite_for_ARM_EABI/arm-none-eabi/lib/libstdc++.a(string-inst.o)
                0x00036294                std::string::rbegin()

.text._ZNSs5clearEv
                0x000362d4       0x20
 .text._ZNSs5clearEv
                0x000362d4       0x20 /home/bseip/MentorGraphics/Sourcery_CodeBench_Lite_for_ARM_EABI/arm-none-eabi/lib/libstdc++.a(string-inst.o)
                0x000362d4                std::string::clear()

.text._ZNSs5eraseEjj
                0x000362f4       0x44
 .text._ZNSs5eraseEjj
                0x000362f4       0x44 /home/bseip/MentorGraphics/Sourcery_CodeBench_Lite_for_ARM_EABI/arm-none-eabi/lib/libstdc++.a(string-inst.o)
                0x000362f4                std::string::erase(unsigned int, unsigned int)

.text._ZNSs5eraseEN9__gnu_cxx17__normal_iteratorIPcSsEE
                0x00036338       0x38
 .text._ZNSs5eraseEN9__gnu_cxx17__normal_iteratorIPcSsEE
                0x00036338       0x38 /home/bseip/MentorGraphics/Sourcery_CodeBench_Lite_for_ARM_EABI/arm-none-eabi/lib/libstdc++.a(string-inst.o)
                0x00036338                std::string::erase(__gnu_cxx::__normal_iterator<char*, std::string>)

.text._ZNSs5eraseEN9__gnu_cxx17__normal_iteratorIPcSsEES2_
                0x00036370       0x48
 .text._ZNSs5eraseEN9__gnu_cxx17__normal_iteratorIPcSsEES2_
                0x00036370       0x48 /home/bseip/MentorGraphics/Sourcery_CodeBench_Lite_for_ARM_EABI/arm-none-eabi/lib/libstdc++.a(string-inst.o)
                0x00036370                std::string::erase(__gnu_cxx::__normal_iterator<char*, std::string>, __gnu_cxx::__normal_iterator<char*, std::string>)

.text._ZNSs14_M_replace_auxEjjjc
                0x000363b8       0x70
 .text._ZNSs14_M_replace_auxEjjjc
                0x000363b8       0x70 /home/bseip/MentorGraphics/Sourcery_CodeBench_Lite_for_ARM_EABI/arm-none-eabi/lib/libstdc++.a(string-inst.o)
                0x000363b8                std::string::_M_replace_aux(unsigned int, unsigned int, unsigned int, char)

.text._ZNSs6assignEjc
                0x00036428       0x30
 .text._ZNSs6assignEjc
                0x00036428       0x30 /home/bseip/MentorGraphics/Sourcery_CodeBench_Lite_for_ARM_EABI/arm-none-eabi/lib/libstdc++.a(string-inst.o)
                0x00036428                std::string::assign(unsigned int, char)

.text._ZNSsaSEc
                0x00036458       0x34
 .text._ZNSsaSEc
                0x00036458       0x34 /home/bseip/MentorGraphics/Sourcery_CodeBench_Lite_for_ARM_EABI/arm-none-eabi/lib/libstdc++.a(string-inst.o)
                0x00036458                std::string::operator=(char)

.text._ZNSs6insertEjjc
                0x0003648c       0x40
 .text._ZNSs6insertEjjc
                0x0003648c       0x40 /home/bseip/MentorGraphics/Sourcery_CodeBench_Lite_for_ARM_EABI/arm-none-eabi/lib/libstdc++.a(string-inst.o)
                0x0003648c                std::string::insert(unsigned int, unsigned int, char)

.text._ZNSs6insertEN9__gnu_cxx17__normal_iteratorIPcSsEEc
                0x000364cc       0x44
 .text._ZNSs6insertEN9__gnu_cxx17__normal_iteratorIPcSsEEc
                0x000364cc       0x44 /home/bseip/MentorGraphics/Sourcery_CodeBench_Lite_for_ARM_EABI/arm-none-eabi/lib/libstdc++.a(string-inst.o)
                0x000364cc                std::string::insert(__gnu_cxx::__normal_iterator<char*, std::string>, char)

.text._ZNSs7replaceEjjjc
                0x00036510       0x48
 .text._ZNSs7replaceEjjjc
                0x00036510       0x48 /home/bseip/MentorGraphics/Sourcery_CodeBench_Lite_for_ARM_EABI/arm-none-eabi/lib/libstdc++.a(string-inst.o)
                0x00036510                std::string::replace(unsigned int, unsigned int, unsigned int, char)

.text._ZNSs7replaceEN9__gnu_cxx17__normal_iteratorIPcSsEES2_jc
                0x00036558       0x2c
 .text._ZNSs7replaceEN9__gnu_cxx17__normal_iteratorIPcSsEES2_jc
                0x00036558       0x2c /home/bseip/MentorGraphics/Sourcery_CodeBench_Lite_for_ARM_EABI/arm-none-eabi/lib/libstdc++.a(string-inst.o)
                0x00036558                std::string::replace(__gnu_cxx::__normal_iterator<char*, std::string>, __gnu_cxx::__normal_iterator<char*, std::string>, unsigned int, char)

.text._ZNSs6insertEN9__gnu_cxx17__normal_iteratorIPcSsEEjc
                0x00036584       0x30
 .text._ZNSs6insertEN9__gnu_cxx17__normal_iteratorIPcSsEEjc
                0x00036584       0x30 /home/bseip/MentorGraphics/Sourcery_CodeBench_Lite_for_ARM_EABI/arm-none-eabi/lib/libstdc++.a(string-inst.o)
                0x00036584                std::string::insert(__gnu_cxx::__normal_iterator<char*, std::string>, unsigned int, char)

.text._ZNSs15_M_replace_safeEjjPKcj
                0x000365b4       0x60
 .text._ZNSs15_M_replace_safeEjjPKcj
                0x000365b4       0x60 /home/bseip/MentorGraphics/Sourcery_CodeBench_Lite_for_ARM_EABI/arm-none-eabi/lib/libstdc++.a(string-inst.o)
                0x000365b4                std::string::_M_replace_safe(unsigned int, unsigned int, char const*, unsigned int)

.text._ZNSs6assignEPKcj
                0x00036614       0xf0
 .text._ZNSs6assignEPKcj
                0x00036614       0xf0 /home/bseip/MentorGraphics/Sourcery_CodeBench_Lite_for_ARM_EABI/arm-none-eabi/lib/libstdc++.a(string-inst.o)
                0x00036614                std::string::assign(char const*, unsigned int)

.text._ZNSsaSESt16initializer_listIcE
                0x00036704       0x2c
 .text._ZNSsaSESt16initializer_listIcE
                0x00036704       0x2c /home/bseip/MentorGraphics/Sourcery_CodeBench_Lite_for_ARM_EABI/arm-none-eabi/lib/libstdc++.a(string-inst.o)
                0x00036704                std::string::operator=(std::initializer_list<char>)

.text._ZNSs6assignERKSsjj
                0x00036730       0x40
 .text._ZNSs6assignERKSsjj
                0x00036730       0x40 /home/bseip/MentorGraphics/Sourcery_CodeBench_Lite_for_ARM_EABI/arm-none-eabi/lib/libstdc++.a(string-inst.o)
                0x00036730                std::string::assign(std::string const&, unsigned int, unsigned int)

.text._ZNSs6assignEPKc
                0x00036770       0x2c
 .text._ZNSs6assignEPKc
                0x00036770       0x2c /home/bseip/MentorGraphics/Sourcery_CodeBench_Lite_for_ARM_EABI/arm-none-eabi/lib/libstdc++.a(string-inst.o)
                0x00036770                std::string::assign(char const*)

.text._ZNSs6assignESt16initializer_listIcE
                0x0003679c       0x24
 .text._ZNSs6assignESt16initializer_listIcE
                0x0003679c       0x24 /home/bseip/MentorGraphics/Sourcery_CodeBench_Lite_for_ARM_EABI/arm-none-eabi/lib/libstdc++.a(string-inst.o)
                0x0003679c                std::string::assign(std::initializer_list<char>)

.text._ZNSsaSEPKc
                0x000367c0       0x2c
 .text._ZNSsaSEPKc
                0x000367c0       0x2c /home/bseip/MentorGraphics/Sourcery_CodeBench_Lite_for_ARM_EABI/arm-none-eabi/lib/libstdc++.a(string-inst.o)
                0x000367c0                std::string::operator=(char const*)

.text._ZNSs6insertEjPKcj
                0x000367ec      0x180
 .text._ZNSs6insertEjPKcj
                0x000367ec      0x180 /home/bseip/MentorGraphics/Sourcery_CodeBench_Lite_for_ARM_EABI/arm-none-eabi/lib/libstdc++.a(string-inst.o)
                0x000367ec                std::string::insert(unsigned int, char const*, unsigned int)

.text._ZNSs6insertEN9__gnu_cxx17__normal_iteratorIPcSsEESt16initializer_listIcE
                0x0003696c       0x2c
 .text._ZNSs6insertEN9__gnu_cxx17__normal_iteratorIPcSsEESt16initializer_listIcE
                0x0003696c       0x2c /home/bseip/MentorGraphics/Sourcery_CodeBench_Lite_for_ARM_EABI/arm-none-eabi/lib/libstdc++.a(string-inst.o)
                0x0003696c                std::string::insert(__gnu_cxx::__normal_iterator<char*, std::string>, std::initializer_list<char>)

.text._ZNSs6insertEjRKSsjj
                0x00036998       0x44
 .text._ZNSs6insertEjRKSsjj
                0x00036998       0x44 /home/bseip/MentorGraphics/Sourcery_CodeBench_Lite_for_ARM_EABI/arm-none-eabi/lib/libstdc++.a(string-inst.o)
                0x00036998                std::string::insert(unsigned int, std::string const&, unsigned int, unsigned int)

.text._ZNSs6insertEjPKc
                0x000369dc       0x34
 .text._ZNSs6insertEjPKc
                0x000369dc       0x34 /home/bseip/MentorGraphics/Sourcery_CodeBench_Lite_for_ARM_EABI/arm-none-eabi/lib/libstdc++.a(string-inst.o)
                0x000369dc                std::string::insert(unsigned int, char const*)

.text._ZNSs6insertEjRKSs
                0x00036a10       0x18
 .text._ZNSs6insertEjRKSs
                0x00036a10       0x18 /home/bseip/MentorGraphics/Sourcery_CodeBench_Lite_for_ARM_EABI/arm-none-eabi/lib/libstdc++.a(string-inst.o)
                0x00036a10                std::string::insert(unsigned int, std::string const&)

.text._ZNSs8pop_backEv
                0x00036a28       0x38
 .text._ZNSs8pop_backEv
                0x00036a28       0x38 /home/bseip/MentorGraphics/Sourcery_CodeBench_Lite_for_ARM_EABI/arm-none-eabi/lib/libstdc++.a(string-inst.o)
                0x00036a28                std::string::pop_back()

.text._ZNSs4_Rep10_M_refcopyEv
                0x00036a60       0x20
 .text._ZNSs4_Rep10_M_refcopyEv
                0x00036a60       0x20 /home/bseip/MentorGraphics/Sourcery_CodeBench_Lite_for_ARM_EABI/arm-none-eabi/lib/libstdc++.a(string-inst.o)
                0x00036a60                std::string::_Rep::_M_refcopy()

.text._ZNSs4_Rep8_M_cloneERKSaIcEj
                0x00036a80       0x88
 .text._ZNSs4_Rep8_M_cloneERKSaIcEj
                0x00036a80       0x88 /home/bseip/MentorGraphics/Sourcery_CodeBench_Lite_for_ARM_EABI/arm-none-eabi/lib/libstdc++.a(string-inst.o)
                0x00036a80                std::string::_Rep::_M_clone(std::allocator<char> const&, unsigned int)

.text._ZNSs7reserveEj
                0x00036b08       0x80
 .text._ZNSs7reserveEj
                0x00036b08       0x80 /home/bseip/MentorGraphics/Sourcery_CodeBench_Lite_for_ARM_EABI/arm-none-eabi/lib/libstdc++.a(string-inst.o)
                0x00036b08                std::string::reserve(unsigned int)

.text._ZNSs13shrink_to_fitEv
                0x00036b88       0x3c
 .text._ZNSs13shrink_to_fitEv
                0x00036b88       0x3c /home/bseip/MentorGraphics/Sourcery_CodeBench_Lite_for_ARM_EABI/arm-none-eabi/lib/libstdc++.a(string-inst.o)
                0x00036b88                std::string::shrink_to_fit()

.text._ZNSs6appendERKSs
                0x00036bc4       0xa8
 .text._ZNSs6appendERKSs
                0x00036bc4       0xa8 /home/bseip/MentorGraphics/Sourcery_CodeBench_Lite_for_ARM_EABI/arm-none-eabi/lib/libstdc++.a(string-inst.o)
                0x00036bc4                std::string::append(std::string const&)

.text._ZNSspLERKSs
                0x00036c6c       0x10
 .text._ZNSspLERKSs
                0x00036c6c       0x10 /home/bseip/MentorGraphics/Sourcery_CodeBench_Lite_for_ARM_EABI/arm-none-eabi/lib/libstdc++.a(string-inst.o)
                0x00036c6c                std::string::operator+=(std::string const&)

.text._ZNSs6appendERKSsjj
                0x00036c7c       0xd0
 .text._ZNSs6appendERKSsjj
                0x00036c7c       0xd0 /home/bseip/MentorGraphics/Sourcery_CodeBench_Lite_for_ARM_EABI/arm-none-eabi/lib/libstdc++.a(string-inst.o)
                0x00036c7c                std::string::append(std::string const&, unsigned int, unsigned int)

.text._ZNSs6appendEPKcj
                0x00036d4c       0xf8
 .text._ZNSs6appendEPKcj
                0x00036d4c       0xf8 /home/bseip/MentorGraphics/Sourcery_CodeBench_Lite_for_ARM_EABI/arm-none-eabi/lib/libstdc++.a(string-inst.o)
                0x00036d4c                std::string::append(char const*, unsigned int)

.text._ZNSspLESt16initializer_listIcE
                0x00036e44       0x24
 .text._ZNSspLESt16initializer_listIcE
                0x00036e44       0x24 /home/bseip/MentorGraphics/Sourcery_CodeBench_Lite_for_ARM_EABI/arm-none-eabi/lib/libstdc++.a(string-inst.o)
                0x00036e44                std::string::operator+=(std::initializer_list<char>)

.text._ZNSs6appendEPKc
                0x00036e68       0x2c
 .text._ZNSs6appendEPKc
                0x00036e68       0x2c /home/bseip/MentorGraphics/Sourcery_CodeBench_Lite_for_ARM_EABI/arm-none-eabi/lib/libstdc++.a(string-inst.o)
                0x00036e68                std::string::append(char const*)

.text._ZNSs6appendESt16initializer_listIcE
                0x00036e94       0x24
 .text._ZNSs6appendESt16initializer_listIcE
                0x00036e94       0x24 /home/bseip/MentorGraphics/Sourcery_CodeBench_Lite_for_ARM_EABI/arm-none-eabi/lib/libstdc++.a(string-inst.o)
                0x00036e94                std::string::append(std::initializer_list<char>)

.text._ZNSspLEPKc
                0x00036eb8       0x2c
 .text._ZNSspLEPKc
                0x00036eb8       0x2c /home/bseip/MentorGraphics/Sourcery_CodeBench_Lite_for_ARM_EABI/arm-none-eabi/lib/libstdc++.a(string-inst.o)
                0x00036eb8                std::string::operator+=(char const*)

.text._ZNSs6appendEjc
                0x00036ee4       0xb0
 .text._ZNSs6appendEjc
                0x00036ee4       0xb0 /home/bseip/MentorGraphics/Sourcery_CodeBench_Lite_for_ARM_EABI/arm-none-eabi/lib/libstdc++.a(string-inst.o)
                0x00036ee4                std::string::append(unsigned int, char)

.text._ZNSs6resizeEjc
                0x00036f94       0x58
 .text._ZNSs6resizeEjc
                0x00036f94       0x58 /home/bseip/MentorGraphics/Sourcery_CodeBench_Lite_for_ARM_EABI/arm-none-eabi/lib/libstdc++.a(string-inst.o)
                0x00036f94                std::string::resize(unsigned int, char)

.text._ZNSs6resizeEj
                0x00036fec       0x14
 .text._ZNSs6resizeEj
                0x00036fec       0x14 /home/bseip/MentorGraphics/Sourcery_CodeBench_Lite_for_ARM_EABI/arm-none-eabi/lib/libstdc++.a(string-inst.o)
                0x00036fec                std::string::resize(unsigned int)

.text._ZNSs9push_backEc
                0x00037000       0x70
 .text._ZNSs9push_backEc
                0x00037000       0x70 /home/bseip/MentorGraphics/Sourcery_CodeBench_Lite_for_ARM_EABI/arm-none-eabi/lib/libstdc++.a(string-inst.o)
                0x00037000                std::string::push_back(char)

.text._ZNSspLEc
                0x00037070       0x74
 .text._ZNSspLEc
                0x00037070       0x74 /home/bseip/MentorGraphics/Sourcery_CodeBench_Lite_for_ARM_EABI/arm-none-eabi/lib/libstdc++.a(string-inst.o)
                0x00037070                std::string::operator+=(char)

.text._ZNSs4_Rep7_M_grabERKSaIcES2_
                0x000370e4       0x40
 .text._ZNSs4_Rep7_M_grabERKSaIcES2_
                0x000370e4       0x40 /home/bseip/MentorGraphics/Sourcery_CodeBench_Lite_for_ARM_EABI/arm-none-eabi/lib/libstdc++.a(string-inst.o)
                0x000370e4                std::string::_Rep::_M_grab(std::allocator<char> const&, std::allocator<char> const&)

.text._ZNSsC2ERKSs
                0x00037124       0x5c
 .text._ZNSsC2ERKSs
                0x00037124       0x5c /home/bseip/MentorGraphics/Sourcery_CodeBench_Lite_for_ARM_EABI/arm-none-eabi/lib/libstdc++.a(string-inst.o)
                0x00037124                std::basic_string<char, std::char_traits<char>, std::allocator<char> >::basic_string(std::string const&)
                0x00037124                std::basic_string<char, std::char_traits<char>, std::allocator<char> >::basic_string(std::string const&)

.text._ZNSs6assignERKSs
                0x00037180       0x94
 .text._ZNSs6assignERKSs
                0x00037180       0x94 /home/bseip/MentorGraphics/Sourcery_CodeBench_Lite_for_ARM_EABI/arm-none-eabi/lib/libstdc++.a(string-inst.o)
                0x00037180                std::string::assign(std::string const&)

.text._ZNSsaSERKSs
                0x00037214       0x10
 .text._ZNSsaSERKSs
                0x00037214       0x10 /home/bseip/MentorGraphics/Sourcery_CodeBench_Lite_for_ARM_EABI/arm-none-eabi/lib/libstdc++.a(string-inst.o)
                0x00037214                std::string::operator=(std::string const&)

.text._ZStplIcSt11char_traitsIcESaIcEESbIT_T0_T1_EPKS3_RKS6_
                0x00037224       0x8c
 .text._ZStplIcSt11char_traitsIcESaIcEESbIT_T0_T1_EPKS3_RKS6_
                0x00037224       0x8c /home/bseip/MentorGraphics/Sourcery_CodeBench_Lite_for_ARM_EABI/arm-none-eabi/lib/libstdc++.a(string-inst.o)
                0x00037224                std::basic_string<char, std::char_traits<char>, std::allocator<char> > std::operator+<char, std::char_traits<char>, std::allocator<char> >(char const*, std::basic_string<char, std::char_traits<char>, std::allocator<char> > const&)

.text._ZStplIcSt11char_traitsIcESaIcEESbIT_T0_T1_ES3_RKS6_
                0x000372b0       0x7c
 .text._ZStplIcSt11char_traitsIcESaIcEESbIT_T0_T1_ES3_RKS6_
                0x000372b0       0x7c /home/bseip/MentorGraphics/Sourcery_CodeBench_Lite_for_ARM_EABI/arm-none-eabi/lib/libstdc++.a(string-inst.o)
                0x000372b0                std::basic_string<char, std::char_traits<char>, std::allocator<char> > std::operator+<char, std::char_traits<char>, std::allocator<char> >(char, std::basic_string<char, std::char_traits<char>, std::allocator<char> > const&)

.text._ZStplIcSt11char_traitsIcESaIcEESbIT_T0_T1_ERKS6_S8_
                0x0003732c       0x50
 .text._ZStplIcSt11char_traitsIcESaIcEESbIT_T0_T1_ERKS6_S8_
                0x0003732c       0x50 /home/bseip/MentorGraphics/Sourcery_CodeBench_Lite_for_ARM_EABI/arm-none-eabi/lib/libstdc++.a(string-inst.o)
                0x0003732c                std::basic_string<char, std::char_traits<char>, std::allocator<char> > std::operator+<char, std::char_traits<char>, std::allocator<char> >(std::basic_string<char, std::char_traits<char>, std::allocator<char> > const&, std::basic_string<char, std::char_traits<char>, std::allocator<char> > const&)

.text._ZNSs12_S_constructIN9__gnu_cxx17__normal_iteratorIPcSsEEEES2_T_S4_RKSaIcESt20forward_iterator_tag
                0x0003737c       0x8c
 .text._ZNSs12_S_constructIN9__gnu_cxx17__normal_iteratorIPcSsEEEES2_T_S4_RKSaIcESt20forward_iterator_tag
                0x0003737c       0x8c /home/bseip/MentorGraphics/Sourcery_CodeBench_Lite_for_ARM_EABI/arm-none-eabi/lib/libstdc++.a(string-inst.o)
                0x0003737c                char* std::string::_S_construct<__gnu_cxx::__normal_iterator<char*, std::string> >(__gnu_cxx::__normal_iterator<char*, std::string>, __gnu_cxx::__normal_iterator<char*, std::string>, std::allocator<char> const&, std::forward_iterator_tag)

.text._ZNSsC2IN9__gnu_cxx17__normal_iteratorIPcSsEEEET_S4_RKSaIcE
                0x00037408       0x2c
 .text._ZNSsC2IN9__gnu_cxx17__normal_iteratorIPcSsEEEET_S4_RKSaIcE
                0x00037408       0x2c /home/bseip/MentorGraphics/Sourcery_CodeBench_Lite_for_ARM_EABI/arm-none-eabi/lib/libstdc++.a(string-inst.o)
                0x00037408                std::basic_string<char, std::char_traits<char>, std::allocator<char> >::basic_string<__gnu_cxx::__normal_iterator<char*, std::string> >(__gnu_cxx::__normal_iterator<char*, std::string>, __gnu_cxx::__normal_iterator<char*, std::string>, std::allocator<char> const&)
                0x00037408                std::basic_string<char, std::char_traits<char>, std::allocator<char> >::basic_string<__gnu_cxx::__normal_iterator<char*, std::string> >(__gnu_cxx::__normal_iterator<char*, std::string>, __gnu_cxx::__normal_iterator<char*, std::string>, std::allocator<char> const&)

.text._ZNSs12_S_constructIPcEES0_T_S1_RKSaIcESt20forward_iterator_tag
                0x00037434       0xbc
 .text._ZNSs12_S_constructIPcEES0_T_S1_RKSaIcESt20forward_iterator_tag
                0x00037434       0xbc /home/bseip/MentorGraphics/Sourcery_CodeBench_Lite_for_ARM_EABI/arm-none-eabi/lib/libstdc++.a(string-inst.o)
                0x00037434                char* std::string::_S_construct<char*>(char*, char*, std::allocator<char> const&, std::forward_iterator_tag)

.text._ZNSsC2ERKSsjj
                0x000374f0       0x60
 .text._ZNSsC2ERKSsjj
                0x000374f0       0x60 /home/bseip/MentorGraphics/Sourcery_CodeBench_Lite_for_ARM_EABI/arm-none-eabi/lib/libstdc++.a(string-inst.o)
                0x000374f0                std::basic_string<char, std::char_traits<char>, std::allocator<char> >::basic_string(std::string const&, unsigned int, unsigned int)
                0x000374f0                std::basic_string<char, std::char_traits<char>, std::allocator<char> >::basic_string(std::string const&, unsigned int, unsigned int)

.text._ZNKSs6substrEjj
                0x00037550       0x34
 .text._ZNKSs6substrEjj
                0x00037550       0x34 /home/bseip/MentorGraphics/Sourcery_CodeBench_Lite_for_ARM_EABI/arm-none-eabi/lib/libstdc++.a(string-inst.o)
                0x00037550                std::string::substr(unsigned int, unsigned int) const

.text._ZNSsC2ERKSsjjRKSaIcE
                0x00037584       0x58
 .text._ZNSsC2ERKSsjjRKSaIcE
                0x00037584       0x58 /home/bseip/MentorGraphics/Sourcery_CodeBench_Lite_for_ARM_EABI/arm-none-eabi/lib/libstdc++.a(string-inst.o)
                0x00037584                std::basic_string<char, std::char_traits<char>, std::allocator<char> >::basic_string(std::string const&, unsigned int, unsigned int, std::allocator<char> const&)
                0x00037584                std::basic_string<char, std::char_traits<char>, std::allocator<char> >::basic_string(std::string const&, unsigned int, unsigned int, std::allocator<char> const&)

.text._ZNSsC2IPcEET_S1_RKSaIcE
                0x000375dc       0x2c
 .text._ZNSsC2IPcEET_S1_RKSaIcE
                0x000375dc       0x2c /home/bseip/MentorGraphics/Sourcery_CodeBench_Lite_for_ARM_EABI/arm-none-eabi/lib/libstdc++.a(string-inst.o)
                0x000375dc                std::basic_string<char, std::char_traits<char>, std::allocator<char> >::basic_string<char*>(char*, char*, std::allocator<char> const&)
                0x000375dc                std::basic_string<char, std::char_traits<char>, std::allocator<char> >::basic_string<char*>(char*, char*, std::allocator<char> const&)

.text._ZNSs12_S_constructIPKcEEPcT_S3_RKSaIcESt20forward_iterator_tag
                0x00037608       0xbc
 .text._ZNSs12_S_constructIPKcEEPcT_S3_RKSaIcESt20forward_iterator_tag
                0x00037608       0xbc /home/bseip/MentorGraphics/Sourcery_CodeBench_Lite_for_ARM_EABI/arm-none-eabi/lib/libstdc++.a(string-inst.o)
                0x00037608                char* std::string::_S_construct<char const*>(char const*, char const*, std::allocator<char> const&, std::forward_iterator_tag)

.text._ZNSsC2EPKcjRKSaIcE
                0x000376c4       0x2c
 .text._ZNSsC2EPKcjRKSaIcE
                0x000376c4       0x2c /home/bseip/MentorGraphics/Sourcery_CodeBench_Lite_for_ARM_EABI/arm-none-eabi/lib/libstdc++.a(string-inst.o)
                0x000376c4                std::basic_string<char, std::char_traits<char>, std::allocator<char> >::basic_string(char const*, unsigned int, std::allocator<char> const&)
                0x000376c4                std::basic_string<char, std::char_traits<char>, std::allocator<char> >::basic_string(char const*, unsigned int, std::allocator<char> const&)

.text._ZNSs7replaceEjjPKcj
                0x000376f0      0x19c
 .text._ZNSs7replaceEjjPKcj
                0x000376f0      0x19c /home/bseip/MentorGraphics/Sourcery_CodeBench_Lite_for_ARM_EABI/arm-none-eabi/lib/libstdc++.a(string-inst.o)
                0x000376f0                std::string::replace(unsigned int, unsigned int, char const*, unsigned int)

.text._ZNSs7replaceEjjRKSs
                0x0003788c       0x24
 .text._ZNSs7replaceEjjRKSs
                0x0003788c       0x24 /home/bseip/MentorGraphics/Sourcery_CodeBench_Lite_for_ARM_EABI/arm-none-eabi/lib/libstdc++.a(string-inst.o)
                0x0003788c                std::string::replace(unsigned int, unsigned int, std::string const&)

.text._ZNSs7replaceEjjRKSsjj
                0x000378b0       0x50
 .text._ZNSs7replaceEjjRKSsjj
                0x000378b0       0x50 /home/bseip/MentorGraphics/Sourcery_CodeBench_Lite_for_ARM_EABI/arm-none-eabi/lib/libstdc++.a(string-inst.o)
                0x000378b0                std::string::replace(unsigned int, unsigned int, std::string const&, unsigned int, unsigned int)

.text._ZNSs7replaceEjjPKc
                0x00037900       0x44
 .text._ZNSs7replaceEjjPKc
                0x00037900       0x44 /home/bseip/MentorGraphics/Sourcery_CodeBench_Lite_for_ARM_EABI/arm-none-eabi/lib/libstdc++.a(string-inst.o)
                0x00037900                std::string::replace(unsigned int, unsigned int, char const*)

.text._ZNSs7replaceEN9__gnu_cxx17__normal_iteratorIPcSsEES2_PKcj
                0x00037944       0x2c
 .text._ZNSs7replaceEN9__gnu_cxx17__normal_iteratorIPcSsEES2_PKcj
                0x00037944       0x2c /home/bseip/MentorGraphics/Sourcery_CodeBench_Lite_for_ARM_EABI/arm-none-eabi/lib/libstdc++.a(string-inst.o)
                0x00037944                std::string::replace(__gnu_cxx::__normal_iterator<char*, std::string>, __gnu_cxx::__normal_iterator<char*, std::string>, char const*, unsigned int)

.text._ZNSs7replaceEN9__gnu_cxx17__normal_iteratorIPcSsEES2_RKSs
                0x00037970       0x30
 .text._ZNSs7replaceEN9__gnu_cxx17__normal_iteratorIPcSsEES2_RKSs
                0x00037970       0x30 /home/bseip/MentorGraphics/Sourcery_CodeBench_Lite_for_ARM_EABI/arm-none-eabi/lib/libstdc++.a(string-inst.o)
                0x00037970                std::string::replace(__gnu_cxx::__normal_iterator<char*, std::string>, __gnu_cxx::__normal_iterator<char*, std::string>, std::string const&)

.text._ZNSs7replaceEN9__gnu_cxx17__normal_iteratorIPcSsEES2_PKc
                0x000379a0       0x48
 .text._ZNSs7replaceEN9__gnu_cxx17__normal_iteratorIPcSsEES2_PKc
                0x000379a0       0x48 /home/bseip/MentorGraphics/Sourcery_CodeBench_Lite_for_ARM_EABI/arm-none-eabi/lib/libstdc++.a(string-inst.o)
                0x000379a0                std::string::replace(__gnu_cxx::__normal_iterator<char*, std::string>, __gnu_cxx::__normal_iterator<char*, std::string>, char const*)

.text._ZNSs7replaceEN9__gnu_cxx17__normal_iteratorIPcSsEES2_S1_S1_
                0x000379e8       0x30
 .text._ZNSs7replaceEN9__gnu_cxx17__normal_iteratorIPcSsEES2_S1_S1_
                0x000379e8       0x30 /home/bseip/MentorGraphics/Sourcery_CodeBench_Lite_for_ARM_EABI/arm-none-eabi/lib/libstdc++.a(string-inst.o)
                0x000379e8                std::string::replace(__gnu_cxx::__normal_iterator<char*, std::string>, __gnu_cxx::__normal_iterator<char*, std::string>, char*, char*)

.text._ZNSs7replaceEN9__gnu_cxx17__normal_iteratorIPcSsEES2_PKcS4_
                0x00037a18       0x30
 .text._ZNSs7replaceEN9__gnu_cxx17__normal_iteratorIPcSsEES2_PKcS4_
                0x00037a18       0x30 /home/bseip/MentorGraphics/Sourcery_CodeBench_Lite_for_ARM_EABI/arm-none-eabi/lib/libstdc++.a(string-inst.o)
                0x00037a18                std::string::replace(__gnu_cxx::__normal_iterator<char*, std::string>, __gnu_cxx::__normal_iterator<char*, std::string>, char const*, char const*)

.text._ZNSs7replaceEN9__gnu_cxx17__normal_iteratorIPcSsEES2_St16initializer_listIcE
                0x00037a48       0x38
 .text._ZNSs7replaceEN9__gnu_cxx17__normal_iteratorIPcSsEES2_St16initializer_listIcE
                0x00037a48       0x38 /home/bseip/MentorGraphics/Sourcery_CodeBench_Lite_for_ARM_EABI/arm-none-eabi/lib/libstdc++.a(string-inst.o)
                0x00037a48                std::string::replace(__gnu_cxx::__normal_iterator<char*, std::string>, __gnu_cxx::__normal_iterator<char*, std::string>, std::initializer_list<char>)

.text._ZNSs7replaceEN9__gnu_cxx17__normal_iteratorIPcSsEES2_S2_S2_
                0x00037a80       0x30
 .text._ZNSs7replaceEN9__gnu_cxx17__normal_iteratorIPcSsEES2_S2_S2_
                0x00037a80       0x30 /home/bseip/MentorGraphics/Sourcery_CodeBench_Lite_for_ARM_EABI/arm-none-eabi/lib/libstdc++.a(string-inst.o)
                0x00037a80                std::string::replace(__gnu_cxx::__normal_iterator<char*, std::string>, __gnu_cxx::__normal_iterator<char*, std::string>, __gnu_cxx::__normal_iterator<char*, std::string>, __gnu_cxx::__normal_iterator<char*, std::string>)

.text._ZNSs7replaceEN9__gnu_cxx17__normal_iteratorIPcSsEES2_NS0_IPKcSsEES5_
                0x00037ab0       0x30
 .text._ZNSs7replaceEN9__gnu_cxx17__normal_iteratorIPcSsEES2_NS0_IPKcSsEES5_
                0x00037ab0       0x30 /home/bseip/MentorGraphics/Sourcery_CodeBench_Lite_for_ARM_EABI/arm-none-eabi/lib/libstdc++.a(string-inst.o)
                0x00037ab0                std::string::replace(__gnu_cxx::__normal_iterator<char*, std::string>, __gnu_cxx::__normal_iterator<char*, std::string>, __gnu_cxx::__normal_iterator<char const*, std::string>, __gnu_cxx::__normal_iterator<char const*, std::string>)

.text._ZNSsC2EPKcRKSaIcE
                0x00037ae0       0x44
 .text._ZNSsC2EPKcRKSaIcE
                0x00037ae0       0x44 /home/bseip/MentorGraphics/Sourcery_CodeBench_Lite_for_ARM_EABI/arm-none-eabi/lib/libstdc++.a(string-inst.o)
                0x00037ae0                std::basic_string<char, std::char_traits<char>, std::allocator<char> >::basic_string(char const*, std::allocator<char> const&)
                0x00037ae0                std::basic_string<char, std::char_traits<char>, std::allocator<char> >::basic_string(char const*, std::allocator<char> const&)

.text._ZNSsC2ESt16initializer_listIcERKSaIcE
                0x00037b24       0x44
 .text._ZNSsC2ESt16initializer_listIcERKSaIcE
                0x00037b24       0x44 /home/bseip/MentorGraphics/Sourcery_CodeBench_Lite_for_ARM_EABI/arm-none-eabi/lib/libstdc++.a(string-inst.o)
                0x00037b24                std::basic_string<char, std::char_traits<char>, std::allocator<char> >::basic_string(std::initializer_list<char>, std::allocator<char> const&)
                0x00037b24                std::basic_string<char, std::char_traits<char>, std::allocator<char> >::basic_string(std::initializer_list<char>, std::allocator<char> const&)

.text._ZNSsC2IPKcEET_S2_RKSaIcE
                0x00037b68       0x2c
 .text._ZNSsC2IPKcEET_S2_RKSaIcE
                0x00037b68       0x2c /home/bseip/MentorGraphics/Sourcery_CodeBench_Lite_for_ARM_EABI/arm-none-eabi/lib/libstdc++.a(string-inst.o)
                0x00037b68                std::basic_string<char, std::char_traits<char>, std::allocator<char> >::basic_string<char const*>(char const*, char const*, std::allocator<char> const&)
                0x00037b68                std::basic_string<char, std::char_traits<char>, std::allocator<char> >::basic_string<char const*>(char const*, char const*, std::allocator<char> const&)

.text._ZN9__gnu_cxxeqIPcSsEEbRKNS_17__normal_iteratorIT_T0_EES7_
                0x00037b94       0x18
 .text._ZN9__gnu_cxxeqIPcSsEEbRKNS_17__normal_iteratorIT_T0_EES7_
                0x00037b94       0x18 /home/bseip/MentorGraphics/Sourcery_CodeBench_Lite_for_ARM_EABI/arm-none-eabi/lib/libstdc++.a(string-inst.o)
                0x00037b94                bool __gnu_cxx::operator==<char*, std::string>(__gnu_cxx::__normal_iterator<char*, std::string> const&, __gnu_cxx::__normal_iterator<char*, std::string> const&)

.text._ZN9__gnu_cxxeqIPKcSsEEbRKNS_17__normal_iteratorIT_T0_EES8_
                0x00037bac       0x18
 .text._ZN9__gnu_cxxeqIPKcSsEEbRKNS_17__normal_iteratorIT_T0_EES8_
                0x00037bac       0x18 /home/bseip/MentorGraphics/Sourcery_CodeBench_Lite_for_ARM_EABI/arm-none-eabi/lib/libstdc++.a(string-inst.o)
                0x00037bac                bool __gnu_cxx::operator==<char const*, std::string>(__gnu_cxx::__normal_iterator<char const*, std::string> const&, __gnu_cxx::__normal_iterator<char const*, std::string> const&)

.text._ZNK12_GLOBAL__N_121future_error_category4nameEv
                0x00037bc4        0xc
 .text._ZNK12_GLOBAL__N_121future_error_category4nameEv
                0x00037bc4        0xc /home/bseip/MentorGraphics/Sourcery_CodeBench_Lite_for_ARM_EABI/arm-none-eabi/lib/libstdc++.a(future.o)

.text._ZN12_GLOBAL__N_121future_error_categoryD2Ev
                0x00037bd0       0x24
 .text._ZN12_GLOBAL__N_121future_error_categoryD2Ev
                0x00037bd0       0x24 /home/bseip/MentorGraphics/Sourcery_CodeBench_Lite_for_ARM_EABI/arm-none-eabi/lib/libstdc++.a(future.o)

.text._ZN12_GLOBAL__N_121future_error_categoryD0Ev
                0x00037bf4       0x2c
 .text._ZN12_GLOBAL__N_121future_error_categoryD0Ev
                0x00037bf4       0x2c /home/bseip/MentorGraphics/Sourcery_CodeBench_Lite_for_ARM_EABI/arm-none-eabi/lib/libstdc++.a(future.o)

.text._ZNSt12future_errorD2Ev
                0x00037c20       0x24
 .text._ZNSt12future_errorD2Ev
                0x00037c20       0x24 /home/bseip/MentorGraphics/Sourcery_CodeBench_Lite_for_ARM_EABI/arm-none-eabi/lib/libstdc++.a(future.o)
                0x00037c20                std::future_error::~future_error()
                0x00037c20                std::future_error::~future_error()

.text._ZNSt12future_errorD0Ev
                0x00037c44       0x2c
 .text._ZNSt12future_errorD0Ev
                0x00037c44       0x2c /home/bseip/MentorGraphics/Sourcery_CodeBench_Lite_for_ARM_EABI/arm-none-eabi/lib/libstdc++.a(future.o)
                0x00037c44                std::future_error::~future_error()

.text._ZNKSt12future_error4whatEv
                0x00037c70       0x6c
 .text._ZNKSt12future_error4whatEv
                0x00037c70       0x6c /home/bseip/MentorGraphics/Sourcery_CodeBench_Lite_for_ARM_EABI/arm-none-eabi/lib/libstdc++.a(future.o)
                0x00037c70                std::future_error::what() const

.text._ZNK12_GLOBAL__N_121future_error_category7messageEi
                0x00037cdc       0xec
 .text._ZNK12_GLOBAL__N_121future_error_category7messageEi
                0x00037cdc       0xec /home/bseip/MentorGraphics/Sourcery_CodeBench_Lite_for_ARM_EABI/arm-none-eabi/lib/libstdc++.a(future.o)

.text._ZSt15future_categoryv
                0x00037dc8       0x80
 .text._ZSt15future_categoryv
                0x00037dc8       0x80 /home/bseip/MentorGraphics/Sourcery_CodeBench_Lite_for_ARM_EABI/arm-none-eabi/lib/libstdc++.a(future.o)
                0x00037dc8                std::future_category()

.text._ZNKSt17bad_function_call4whatEv
                0x00037e48        0xc
 .text._ZNKSt17bad_function_call4whatEv
                0x00037e48        0xc /home/bseip/MentorGraphics/Sourcery_CodeBench_Lite_for_ARM_EABI/arm-none-eabi/lib/libstdc++.a(functional.o)
                0x00037e48                std::bad_function_call::what() const

.text._ZNSt17bad_function_callD2Ev
                0x00037e54       0x24
 .text._ZNSt17bad_function_callD2Ev
                0x00037e54       0x24 /home/bseip/MentorGraphics/Sourcery_CodeBench_Lite_for_ARM_EABI/arm-none-eabi/lib/libstdc++.a(functional.o)
                0x00037e54                std::bad_function_call::~bad_function_call()
                0x00037e54                std::bad_function_call::~bad_function_call()

.text._ZNSt17bad_function_callD0Ev
                0x00037e78       0x2c
 .text._ZNSt17bad_function_callD0Ev
                0x00037e78       0x2c /home/bseip/MentorGraphics/Sourcery_CodeBench_Lite_for_ARM_EABI/arm-none-eabi/lib/libstdc++.a(functional.o)
                0x00037e78                std::bad_function_call::~bad_function_call()

.text._ZNSt11regex_errorD2Ev
                0x00037ea4       0x24
 .text._ZNSt11regex_errorD2Ev
                0x00037ea4       0x24 /home/bseip/MentorGraphics/Sourcery_CodeBench_Lite_for_ARM_EABI/arm-none-eabi/lib/libstdc++.a(regex.o)
                0x00037ea4                std::regex_error::~regex_error()
                0x00037ea4                std::regex_error::~regex_error()

.text._ZNSt11regex_errorD0Ev
                0x00037ec8       0x2c
 .text._ZNSt11regex_errorD0Ev
                0x00037ec8       0x2c /home/bseip/MentorGraphics/Sourcery_CodeBench_Lite_for_ARM_EABI/arm-none-eabi/lib/libstdc++.a(regex.o)
                0x00037ec8                std::regex_error::~regex_error()

.text._ZNSt11regex_errorC2ENSt15regex_constants10error_typeE
                0x00037ef4       0x9c
 .text._ZNSt11regex_errorC2ENSt15regex_constants10error_typeE
                0x00037ef4       0x9c /home/bseip/MentorGraphics/Sourcery_CodeBench_Lite_for_ARM_EABI/arm-none-eabi/lib/libstdc++.a(regex.o)
                0x00037ef4                std::regex_error::regex_error(std::regex_constants::error_type)
                0x00037ef4                std::regex_error::regex_error(std::regex_constants::error_type)

.text._ZNKSt8bad_cast4whatEv
                0x00037f90        0xc
 .text._ZNKSt8bad_cast4whatEv
                0x00037f90        0xc /home/bseip/MentorGraphics/Sourcery_CodeBench_Lite_for_ARM_EABI/arm-none-eabi/lib/libstdc++.a(bad_cast.o)
                0x00037f90                std::bad_cast::what() const

.text._ZNSt8bad_castD2Ev
                0x00037f9c       0x24
 .text._ZNSt8bad_castD2Ev
                0x00037f9c       0x24 /home/bseip/MentorGraphics/Sourcery_CodeBench_Lite_for_ARM_EABI/arm-none-eabi/lib/libstdc++.a(bad_cast.o)
                0x00037f9c                std::bad_cast::~bad_cast()
                0x00037f9c                std::bad_cast::~bad_cast()

.text._ZNSt8bad_castD0Ev
                0x00037fc0       0x2c
 .text._ZNSt8bad_castD0Ev
                0x00037fc0       0x2c /home/bseip/MentorGraphics/Sourcery_CodeBench_Lite_for_ARM_EABI/arm-none-eabi/lib/libstdc++.a(bad_cast.o)
                0x00037fc0                std::bad_cast::~bad_cast()

.text._ZNKSt10bad_typeid4whatEv
                0x00037fec        0xc
 .text._ZNKSt10bad_typeid4whatEv
                0x00037fec        0xc /home/bseip/MentorGraphics/Sourcery_CodeBench_Lite_for_ARM_EABI/arm-none-eabi/lib/libstdc++.a(bad_typeid.o)
                0x00037fec                std::bad_typeid::what() const

.text._ZNSt10bad_typeidD2Ev
                0x00037ff8       0x24
 .text._ZNSt10bad_typeidD2Ev
                0x00037ff8       0x24 /home/bseip/MentorGraphics/Sourcery_CodeBench_Lite_for_ARM_EABI/arm-none-eabi/lib/libstdc++.a(bad_typeid.o)
                0x00037ff8                std::bad_typeid::~bad_typeid()
                0x00037ff8                std::bad_typeid::~bad_typeid()

.text._ZNSt10bad_typeidD0Ev
                0x0003801c       0x2c
 .text._ZNSt10bad_typeidD0Ev
                0x0003801c       0x2c /home/bseip/MentorGraphics/Sourcery_CodeBench_Lite_for_ARM_EABI/arm-none-eabi/lib/libstdc++.a(bad_typeid.o)
                0x0003801c                std::bad_typeid::~bad_typeid()

.text.__cxa_guard_acquire
                0x00038048       0x64
 .text.__cxa_guard_acquire
                0x00038048       0x64 /home/bseip/MentorGraphics/Sourcery_CodeBench_Lite_for_ARM_EABI/arm-none-eabi/lib/libstdc++.a(guard.o)
                0x00038048                __cxa_guard_acquire

.text.__cxa_guard_abort
                0x000380ac        0xc
 .text.__cxa_guard_abort
                0x000380ac        0xc /home/bseip/MentorGraphics/Sourcery_CodeBench_Lite_for_ARM_EABI/arm-none-eabi/lib/libstdc++.a(guard.o)
                0x000380ac                __cxa_guard_abort

.text.__cxa_guard_release
                0x000380b8        0xc
 .text.__cxa_guard_release
                0x000380b8        0xc /home/bseip/MentorGraphics/Sourcery_CodeBench_Lite_for_ARM_EABI/arm-none-eabi/lib/libstdc++.a(guard.o)
                0x000380b8                __cxa_guard_release

.text._ZN9__gnu_cxx27__verbose_terminate_handlerEv
                0x000380c4      0x1a0
 .text._ZN9__gnu_cxx27__verbose_terminate_handlerEv
                0x000380c4      0x1a0 /home/bseip/MentorGraphics/Sourcery_CodeBench_Lite_for_ARM_EABI/arm-none-eabi/lib/libstdc++.a(vterminate.o)
                0x000380c4                __gnu_cxx::__verbose_terminate_handler()

.text.__cxa_current_exception_type
                0x00038264       0x30
 .text.__cxa_current_exception_type
                0x00038264       0x30 /home/bseip/MentorGraphics/Sourcery_CodeBench_Lite_for_ARM_EABI/arm-none-eabi/lib/libstdc++.a(eh_type.o)
                0x00038264                __cxa_current_exception_type

.text._ZNKSt8ios_base7failure4whatEv
                0x00038294        0x8
 .text._ZNKSt8ios_base7failure4whatEv
                0x00038294        0x8 /home/bseip/MentorGraphics/Sourcery_CodeBench_Lite_for_ARM_EABI/arm-none-eabi/lib/libstdc++.a(ios_failure.o)
                0x00038294                std::ios_base::failure::what() const

.text._ZNSt8ios_base7failureD2Ev
                0x0003829c       0x68
 .text._ZNSt8ios_base7failureD2Ev
                0x0003829c       0x68 /home/bseip/MentorGraphics/Sourcery_CodeBench_Lite_for_ARM_EABI/arm-none-eabi/lib/libstdc++.a(ios_failure.o)
                0x0003829c                std::ios_base::failure::~failure()
                0x0003829c                std::ios_base::failure::~failure()

.text._ZNSt8ios_base7failureD0Ev
                0x00038304       0x20
 .text._ZNSt8ios_base7failureD0Ev
                0x00038304       0x20 /home/bseip/MentorGraphics/Sourcery_CodeBench_Lite_for_ARM_EABI/arm-none-eabi/lib/libstdc++.a(ios_failure.o)
                0x00038304                std::ios_base::failure::~failure()

.text._ZNSt8ios_base7failureC2ERKSs
                0x00038324       0x44
 .text._ZNSt8ios_base7failureC2ERKSs
                0x00038324       0x44 /home/bseip/MentorGraphics/Sourcery_CodeBench_Lite_for_ARM_EABI/arm-none-eabi/lib/libstdc++.a(ios_failure.o)
                0x00038324                std::ios_base::failure::failure(std::string const&)
                0x00038324                std::ios_base::failure::failure(std::string const&)

.text._ZNKSt11logic_error4whatEv
                0x00038368        0x8
 .text._ZNKSt11logic_error4whatEv
                0x00038368        0x8 /home/bseip/MentorGraphics/Sourcery_CodeBench_Lite_for_ARM_EABI/arm-none-eabi/lib/libstdc++.a(stdexcept.o)
                0x00038368                std::logic_error::what() const

.text._ZNKSt13runtime_error4whatEv
                0x00038370        0x8
 .text._ZNKSt13runtime_error4whatEv
                0x00038370        0x8 /home/bseip/MentorGraphics/Sourcery_CodeBench_Lite_for_ARM_EABI/arm-none-eabi/lib/libstdc++.a(stdexcept.o)
                0x00038370                std::runtime_error::what() const

.text._ZNSt11logic_errorD2Ev
                0x00038378       0x68
 .text._ZNSt11logic_errorD2Ev
                0x00038378       0x68 /home/bseip/MentorGraphics/Sourcery_CodeBench_Lite_for_ARM_EABI/arm-none-eabi/lib/libstdc++.a(stdexcept.o)
                0x00038378                std::logic_error::~logic_error()
                0x00038378                std::logic_error::~logic_error()

.text._ZNSt11logic_errorD0Ev
                0x000383e0       0x20
 .text._ZNSt11logic_errorD0Ev
                0x000383e0       0x20 /home/bseip/MentorGraphics/Sourcery_CodeBench_Lite_for_ARM_EABI/arm-none-eabi/lib/libstdc++.a(stdexcept.o)
                0x000383e0                std::logic_error::~logic_error()

.text._ZNSt12domain_errorD2Ev
                0x00038400       0x24
 .text._ZNSt12domain_errorD2Ev
                0x00038400       0x24 /home/bseip/MentorGraphics/Sourcery_CodeBench_Lite_for_ARM_EABI/arm-none-eabi/lib/libstdc++.a(stdexcept.o)
                0x00038400                std::domain_error::~domain_error()
                0x00038400                std::domain_error::~domain_error()

.text._ZNSt12domain_errorD0Ev
                0x00038424       0x2c
 .text._ZNSt12domain_errorD0Ev
                0x00038424       0x2c /home/bseip/MentorGraphics/Sourcery_CodeBench_Lite_for_ARM_EABI/arm-none-eabi/lib/libstdc++.a(stdexcept.o)
                0x00038424                std::domain_error::~domain_error()

.text._ZNSt16invalid_argumentD2Ev
                0x00038450       0x24
 .text._ZNSt16invalid_argumentD2Ev
                0x00038450       0x24 /home/bseip/MentorGraphics/Sourcery_CodeBench_Lite_for_ARM_EABI/arm-none-eabi/lib/libstdc++.a(stdexcept.o)
                0x00038450                std::invalid_argument::~invalid_argument()
                0x00038450                std::invalid_argument::~invalid_argument()

.text._ZNSt16invalid_argumentD0Ev
                0x00038474       0x2c
 .text._ZNSt16invalid_argumentD0Ev
                0x00038474       0x2c /home/bseip/MentorGraphics/Sourcery_CodeBench_Lite_for_ARM_EABI/arm-none-eabi/lib/libstdc++.a(stdexcept.o)
                0x00038474                std::invalid_argument::~invalid_argument()

.text._ZNSt12length_errorD2Ev
                0x000384a0       0x24
 .text._ZNSt12length_errorD2Ev
                0x000384a0       0x24 /home/bseip/MentorGraphics/Sourcery_CodeBench_Lite_for_ARM_EABI/arm-none-eabi/lib/libstdc++.a(stdexcept.o)
                0x000384a0                std::length_error::~length_error()
                0x000384a0                std::length_error::~length_error()

.text._ZNSt12length_errorD0Ev
                0x000384c4       0x2c
 .text._ZNSt12length_errorD0Ev
                0x000384c4       0x2c /home/bseip/MentorGraphics/Sourcery_CodeBench_Lite_for_ARM_EABI/arm-none-eabi/lib/libstdc++.a(stdexcept.o)
                0x000384c4                std::length_error::~length_error()

.text._ZNSt12out_of_rangeD2Ev
                0x000384f0       0x24
 .text._ZNSt12out_of_rangeD2Ev
                0x000384f0       0x24 /home/bseip/MentorGraphics/Sourcery_CodeBench_Lite_for_ARM_EABI/arm-none-eabi/lib/libstdc++.a(stdexcept.o)
                0x000384f0                std::out_of_range::~out_of_range()
                0x000384f0                std::out_of_range::~out_of_range()

.text._ZNSt12out_of_rangeD0Ev
                0x00038514       0x2c
 .text._ZNSt12out_of_rangeD0Ev
                0x00038514       0x2c /home/bseip/MentorGraphics/Sourcery_CodeBench_Lite_for_ARM_EABI/arm-none-eabi/lib/libstdc++.a(stdexcept.o)
                0x00038514                std::out_of_range::~out_of_range()

.text._ZNSt13runtime_errorD2Ev
                0x00038540       0x68
 .text._ZNSt13runtime_errorD2Ev
                0x00038540       0x68 /home/bseip/MentorGraphics/Sourcery_CodeBench_Lite_for_ARM_EABI/arm-none-eabi/lib/libstdc++.a(stdexcept.o)
                0x00038540                std::runtime_error::~runtime_error()
                0x00038540                std::runtime_error::~runtime_error()

.text._ZNSt13runtime_errorD0Ev
                0x000385a8       0x20
 .text._ZNSt13runtime_errorD0Ev
                0x000385a8       0x20 /home/bseip/MentorGraphics/Sourcery_CodeBench_Lite_for_ARM_EABI/arm-none-eabi/lib/libstdc++.a(stdexcept.o)
                0x000385a8                std::runtime_error::~runtime_error()

.text._ZNSt11range_errorD2Ev
                0x000385c8       0x24
 .text._ZNSt11range_errorD2Ev
                0x000385c8       0x24 /home/bseip/MentorGraphics/Sourcery_CodeBench_Lite_for_ARM_EABI/arm-none-eabi/lib/libstdc++.a(stdexcept.o)
                0x000385c8                std::range_error::~range_error()
                0x000385c8                std::range_error::~range_error()

.text._ZNSt11range_errorD0Ev
                0x000385ec       0x2c
 .text._ZNSt11range_errorD0Ev
                0x000385ec       0x2c /home/bseip/MentorGraphics/Sourcery_CodeBench_Lite_for_ARM_EABI/arm-none-eabi/lib/libstdc++.a(stdexcept.o)
                0x000385ec                std::range_error::~range_error()

.text._ZNSt14overflow_errorD2Ev
                0x00038618       0x24
 .text._ZNSt14overflow_errorD2Ev
                0x00038618       0x24 /home/bseip/MentorGraphics/Sourcery_CodeBench_Lite_for_ARM_EABI/arm-none-eabi/lib/libstdc++.a(stdexcept.o)
                0x00038618                std::overflow_error::~overflow_error()
                0x00038618                std::overflow_error::~overflow_error()

.text._ZNSt14overflow_errorD0Ev
                0x0003863c       0x2c
 .text._ZNSt14overflow_errorD0Ev
                0x0003863c       0x2c /home/bseip/MentorGraphics/Sourcery_CodeBench_Lite_for_ARM_EABI/arm-none-eabi/lib/libstdc++.a(stdexcept.o)
                0x0003863c                std::overflow_error::~overflow_error()

.text._ZNSt15underflow_errorD2Ev
                0x00038668       0x24
 .text._ZNSt15underflow_errorD2Ev
                0x00038668       0x24 /home/bseip/MentorGraphics/Sourcery_CodeBench_Lite_for_ARM_EABI/arm-none-eabi/lib/libstdc++.a(stdexcept.o)
                0x00038668                std::underflow_error::~underflow_error()
                0x00038668                std::underflow_error::~underflow_error()

.text._ZNSt15underflow_errorD0Ev
                0x0003868c       0x2c
 .text._ZNSt15underflow_errorD0Ev
                0x0003868c       0x2c /home/bseip/MentorGraphics/Sourcery_CodeBench_Lite_for_ARM_EABI/arm-none-eabi/lib/libstdc++.a(stdexcept.o)
                0x0003868c                std::underflow_error::~underflow_error()

.text._ZNSt11logic_errorC2ERKSs
                0x000386b8       0x30
 .text._ZNSt11logic_errorC2ERKSs
                0x000386b8       0x30 /home/bseip/MentorGraphics/Sourcery_CodeBench_Lite_for_ARM_EABI/arm-none-eabi/lib/libstdc++.a(stdexcept.o)
                0x000386b8                std::logic_error::logic_error(std::string const&)
                0x000386b8                std::logic_error::logic_error(std::string const&)

.text._ZNSt12domain_errorC2ERKSs
                0x000386e8       0x24
 .text._ZNSt12domain_errorC2ERKSs
                0x000386e8       0x24 /home/bseip/MentorGraphics/Sourcery_CodeBench_Lite_for_ARM_EABI/arm-none-eabi/lib/libstdc++.a(stdexcept.o)
                0x000386e8                std::domain_error::domain_error(std::string const&)
                0x000386e8                std::domain_error::domain_error(std::string const&)

.text._ZNSt16invalid_argumentC2ERKSs
                0x0003870c       0x24
 .text._ZNSt16invalid_argumentC2ERKSs
                0x0003870c       0x24 /home/bseip/MentorGraphics/Sourcery_CodeBench_Lite_for_ARM_EABI/arm-none-eabi/lib/libstdc++.a(stdexcept.o)
                0x0003870c                std::invalid_argument::invalid_argument(std::string const&)
                0x0003870c                std::invalid_argument::invalid_argument(std::string const&)

.text._ZNSt12length_errorC2ERKSs
                0x00038730       0x24
 .text._ZNSt12length_errorC2ERKSs
                0x00038730       0x24 /home/bseip/MentorGraphics/Sourcery_CodeBench_Lite_for_ARM_EABI/arm-none-eabi/lib/libstdc++.a(stdexcept.o)
                0x00038730                std::length_error::length_error(std::string const&)
                0x00038730                std::length_error::length_error(std::string const&)

.text._ZNSt12out_of_rangeC2ERKSs
                0x00038754       0x24
 .text._ZNSt12out_of_rangeC2ERKSs
                0x00038754       0x24 /home/bseip/MentorGraphics/Sourcery_CodeBench_Lite_for_ARM_EABI/arm-none-eabi/lib/libstdc++.a(stdexcept.o)
                0x00038754                std::out_of_range::out_of_range(std::string const&)
                0x00038754                std::out_of_range::out_of_range(std::string const&)

.text._ZNSt13runtime_errorC2ERKSs
                0x00038778       0x30
 .text._ZNSt13runtime_errorC2ERKSs
                0x00038778       0x30 /home/bseip/MentorGraphics/Sourcery_CodeBench_Lite_for_ARM_EABI/arm-none-eabi/lib/libstdc++.a(stdexcept.o)
                0x00038778                std::runtime_error::runtime_error(std::string const&)
                0x00038778                std::runtime_error::runtime_error(std::string const&)

.text._ZNSt11range_errorC2ERKSs
                0x000387a8       0x24
 .text._ZNSt11range_errorC2ERKSs
                0x000387a8       0x24 /home/bseip/MentorGraphics/Sourcery_CodeBench_Lite_for_ARM_EABI/arm-none-eabi/lib/libstdc++.a(stdexcept.o)
                0x000387a8                std::range_error::range_error(std::string const&)
                0x000387a8                std::range_error::range_error(std::string const&)

.text._ZNSt14overflow_errorC2ERKSs
                0x000387cc       0x24
 .text._ZNSt14overflow_errorC2ERKSs
                0x000387cc       0x24 /home/bseip/MentorGraphics/Sourcery_CodeBench_Lite_for_ARM_EABI/arm-none-eabi/lib/libstdc++.a(stdexcept.o)
                0x000387cc                std::overflow_error::overflow_error(std::string const&)
                0x000387cc                std::overflow_error::overflow_error(std::string const&)

.text._ZNSt15underflow_errorC2ERKSs
                0x000387f0       0x24
 .text._ZNSt15underflow_errorC2ERKSs
                0x000387f0       0x24 /home/bseip/MentorGraphics/Sourcery_CodeBench_Lite_for_ARM_EABI/arm-none-eabi/lib/libstdc++.a(stdexcept.o)
                0x000387f0                std::underflow_error::underflow_error(std::string const&)
                0x000387f0                std::underflow_error::underflow_error(std::string const&)

.text._ZNK12_GLOBAL__N_122generic_error_category4nameEv
                0x00038814        0xc
 .text._ZNK12_GLOBAL__N_122generic_error_category4nameEv
                0x00038814        0xc /home/bseip/MentorGraphics/Sourcery_CodeBench_Lite_for_ARM_EABI/arm-none-eabi/lib/libstdc++.a(system_error.o)

.text._ZNK12_GLOBAL__N_121system_error_category4nameEv
                0x00038820        0xc
 .text._ZNK12_GLOBAL__N_121system_error_category4nameEv
                0x00038820        0xc /home/bseip/MentorGraphics/Sourcery_CodeBench_Lite_for_ARM_EABI/arm-none-eabi/lib/libstdc++.a(system_error.o)

.text._ZNSt14error_categoryD2Ev
                0x0003882c       0x10
 .text._ZNSt14error_categoryD2Ev
                0x0003882c       0x10 /home/bseip/MentorGraphics/Sourcery_CodeBench_Lite_for_ARM_EABI/arm-none-eabi/lib/libstdc++.a(system_error.o)
                0x0003882c                std::error_category::~error_category()
                0x0003882c                std::error_category::~error_category()

.text._ZNKSt14error_category23default_error_conditionEi
                0x0003883c        0xc
 .text._ZNKSt14error_category23default_error_conditionEi
                0x0003883c        0xc /home/bseip/MentorGraphics/Sourcery_CodeBench_Lite_for_ARM_EABI/arm-none-eabi/lib/libstdc++.a(system_error.o)
                0x0003883c                std::error_category::default_error_condition(int) const

.text._ZNKSt14error_category10equivalentEiRKSt15error_condition
                0x00038848       0x68
 .text._ZNKSt14error_category10equivalentEiRKSt15error_condition
                0x00038848       0x68 /home/bseip/MentorGraphics/Sourcery_CodeBench_Lite_for_ARM_EABI/arm-none-eabi/lib/libstdc++.a(system_error.o)
                0x00038848                std::error_category::equivalent(int, std::error_condition const&) const

.text._ZNKSt14error_category10equivalentERKSt10error_codei
                0x000388b0       0x28
 .text._ZNKSt14error_category10equivalentERKSt10error_codei
                0x000388b0       0x28 /home/bseip/MentorGraphics/Sourcery_CodeBench_Lite_for_ARM_EABI/arm-none-eabi/lib/libstdc++.a(system_error.o)
                0x000388b0                std::error_category::equivalent(std::error_code const&, int) const

.text._ZN12_GLOBAL__N_121system_error_categoryD2Ev
                0x000388d8       0x10
 .text._ZN12_GLOBAL__N_121system_error_categoryD2Ev
                0x000388d8       0x10 /home/bseip/MentorGraphics/Sourcery_CodeBench_Lite_for_ARM_EABI/arm-none-eabi/lib/libstdc++.a(system_error.o)

.text._ZN12_GLOBAL__N_122generic_error_categoryD2Ev
                0x000388e8       0x10
 .text._ZN12_GLOBAL__N_122generic_error_categoryD2Ev
                0x000388e8       0x10 /home/bseip/MentorGraphics/Sourcery_CodeBench_Lite_for_ARM_EABI/arm-none-eabi/lib/libstdc++.a(system_error.o)

.text._ZNSt14error_categoryD0Ev
                0x000388f8       0x24
 .text._ZNSt14error_categoryD0Ev
                0x000388f8       0x24 /home/bseip/MentorGraphics/Sourcery_CodeBench_Lite_for_ARM_EABI/arm-none-eabi/lib/libstdc++.a(system_error.o)
                0x000388f8                std::error_category::~error_category()

.text._ZN12_GLOBAL__N_121system_error_categoryD0Ev
                0x0003891c       0x24
 .text._ZN12_GLOBAL__N_121system_error_categoryD0Ev
                0x0003891c       0x24 /home/bseip/MentorGraphics/Sourcery_CodeBench_Lite_for_ARM_EABI/arm-none-eabi/lib/libstdc++.a(system_error.o)

.text._ZN12_GLOBAL__N_122generic_error_categoryD0Ev
                0x00038940       0x24
 .text._ZN12_GLOBAL__N_122generic_error_categoryD0Ev
                0x00038940       0x24 /home/bseip/MentorGraphics/Sourcery_CodeBench_Lite_for_ARM_EABI/arm-none-eabi/lib/libstdc++.a(system_error.o)

.text._ZNSt12system_errorD2Ev
                0x00038964       0x24
 .text._ZNSt12system_errorD2Ev
                0x00038964       0x24 /home/bseip/MentorGraphics/Sourcery_CodeBench_Lite_for_ARM_EABI/arm-none-eabi/lib/libstdc++.a(system_error.o)
                0x00038964                std::system_error::~system_error()
                0x00038964                std::system_error::~system_error()

.text._ZNSt12system_errorD0Ev
                0x00038988       0x2c
 .text._ZNSt12system_errorD0Ev
                0x00038988       0x2c /home/bseip/MentorGraphics/Sourcery_CodeBench_Lite_for_ARM_EABI/arm-none-eabi/lib/libstdc++.a(system_error.o)
                0x00038988                std::system_error::~system_error()

.text._ZNK12_GLOBAL__N_121system_error_category7messageEi
                0x000389b4       0x34
 .text._ZNK12_GLOBAL__N_121system_error_category7messageEi
                0x000389b4       0x34 /home/bseip/MentorGraphics/Sourcery_CodeBench_Lite_for_ARM_EABI/arm-none-eabi/lib/libstdc++.a(system_error.o)

.text._ZNK12_GLOBAL__N_122generic_error_category7messageEi
                0x000389e8       0x34
 .text._ZNK12_GLOBAL__N_122generic_error_category7messageEi
                0x000389e8       0x34 /home/bseip/MentorGraphics/Sourcery_CodeBench_Lite_for_ARM_EABI/arm-none-eabi/lib/libstdc++.a(system_error.o)

.text._ZNSt14error_categoryC2Ev
                0x00038a1c       0x10
 .text._ZNSt14error_categoryC2Ev
                0x00038a1c       0x10 /home/bseip/MentorGraphics/Sourcery_CodeBench_Lite_for_ARM_EABI/arm-none-eabi/lib/libstdc++.a(system_error.o)
                0x00038a1c                std::error_category::error_category()
                0x00038a1c                std::error_category::error_category()

.text._ZSt15system_categoryv
                0x00038a2c        0xc
 .text._ZSt15system_categoryv
                0x00038a2c        0xc /home/bseip/MentorGraphics/Sourcery_CodeBench_Lite_for_ARM_EABI/arm-none-eabi/lib/libstdc++.a(system_error.o)
                0x00038a2c                std::system_category()

.text._ZSt16generic_categoryv
                0x00038a38        0xc
 .text._ZSt16generic_categoryv
                0x00038a38        0xc /home/bseip/MentorGraphics/Sourcery_CodeBench_Lite_for_ARM_EABI/arm-none-eabi/lib/libstdc++.a(system_error.o)
                0x00038a38                std::generic_category()

.text._ZNKSt10error_code23default_error_conditionEv
                0x00038a44       0x2c
 .text._ZNKSt10error_code23default_error_conditionEv
                0x00038a44       0x2c /home/bseip/MentorGraphics/Sourcery_CodeBench_Lite_for_ARM_EABI/arm-none-eabi/lib/libstdc++.a(system_error.o)
                0x00038a44                std::error_code::default_error_condition() const

.text.startup._GLOBAL__sub_I__ZNSt14error_categoryC2Ev
                0x00038a70       0x64
 .text.startup._GLOBAL__sub_I__ZNSt14error_categoryC2Ev
                0x00038a70       0x64 /home/bseip/MentorGraphics/Sourcery_CodeBench_Lite_for_ARM_EABI/arm-none-eabi/lib/libstdc++.a(system_error.o)

.text._ZN9__gnu_cxx20recursive_init_errorD2Ev
                0x00038ad4       0x24
 .text._ZN9__gnu_cxx20recursive_init_errorD2Ev
                0x00038ad4       0x24 /home/bseip/MentorGraphics/Sourcery_CodeBench_Lite_for_ARM_EABI/arm-none-eabi/lib/libstdc++.a(guard_error.o)
                0x00038ad4                __gnu_cxx::recursive_init_error::~recursive_init_error()
                0x00038ad4                __gnu_cxx::recursive_init_error::~recursive_init_error()

.text._ZN9__gnu_cxx20recursive_init_errorD0Ev
                0x00038af8       0x2c
 .text._ZN9__gnu_cxx20recursive_init_errorD0Ev
                0x00038af8       0x2c /home/bseip/MentorGraphics/Sourcery_CodeBench_Lite_for_ARM_EABI/arm-none-eabi/lib/libstdc++.a(guard_error.o)
                0x00038af8                __gnu_cxx::recursive_init_error::~recursive_init_error()

.data           0x00038b28     0x1b3c
                0x00038b28                _DATA_START_ = .
 *(.data)
 .data          0x00038b28        0x0 build/bcm2835.o
 .data          0x00038b28        0x8 build/main.o
                0x00038b28                echo
                0x00038b2c                color
 .data          0x00038b30        0x0 build/other.o
 .data          0x00038b30        0x0 build/uart.o
 .data          0x00038b30      0xf6c build/gapi/binaries.o
                0x00038b30                ar_pinky_walk_1
                0x00038b48                ar_pinky_walk_1_count
                0x00038b4c                ar_pinky_turn_1
                0x00038b82                ar_pinky_turn_1_count
                0x00038b84                ar_pinky_jump_1
                0x00038bbe                ar_pinky_jump_1_count
                0x00038bc0                ar_pinky_fly_1
                0x00038c14                ar_pinky_fly_1_count
                0x00038c18                ar_pinky_fall_1
                0x00038c5e                ar_pinky_fall_1_count
                0x00038c60                ar_littlepinky_walk_west
                0x00038c70                ar_littlepinky_walk_west_count
                0x00038c74                ar_littlepinky_walk_south
                0x00038c84                ar_littlepinky_walk_south_count
                0x00038c88                ar_littlepinky_walk_southwest
                0x00038c98                ar_littlepinky_walk_southwest_count
                0x00038c9c                ar_littlepinky_walk_southeast
                0x00038cac                ar_littlepinky_walk_southeast_count
                0x00038cb0                ar_littlepinky_walk_north
                0x00038cc0                ar_littlepinky_walk_north_count
                0x00038cc4                ar_littlepinky_walk_northwest
                0x00038cd4                ar_littlepinky_walk_northwest_count
                0x00038cd8                ar_littlepinky_walk_northeast
                0x00038ce8                ar_littlepinky_walk_northeast_count
                0x00038cec                ar_littlepinky_walk_east
                0x00038cfc                ar_littlepinky_walk_east_count
                0x00038d00                ar_extras_bubbles_tap
                0x00038d14                ar_extras_bubbles_tap_count
                0x00038d18                ar_extras_bubbles_taphot
                0x00038d2c                ar_extras_bubbles_taphot_count
                0x00038d30                ar_extras_bubbles_tapcold
                0x00038d44                ar_extras_bubbles_tapcold_count
                0x00038d48                ar_extras_bubbles_foam
                0x00038d66                ar_extras_bubbles_foam_count
                0x00038d68                ar_bigpinky_kitzel_3
                0x00038dbe                ar_bigpinky_kitzel_3_count
                0x00038dc0                ar_bigpinky_kitzel_2
                0x00038de8                ar_bigpinky_kitzel_2_count
                0x00038dec                ar_bigpinky_kitzel_1
                0x00038e04                ar_bigpinky_kitzel_1_count
                0x00038e08                ar_bigpinky_kitzel_0
                0x00038e32                ar_bigpinky_kitzel_0_count
                0x00038e34                ar_bigpinky_bubbles_turnsittingfront
                0x00038e4c                ar_bigpinky_bubbles_turnsittingfront_count
                0x00038e50                ar_bigpinky_bubbles_turnrightback
                0x00038e64                ar_bigpinky_bubbles_turnrightback_count
                0x00038e68                ar_bigpinky_bubbles_towel
                0x00038eec                ar_bigpinky_bubbles_towel_count
                0x00038ef0                ar_bigpinky_bubbles_towelback
                0x00038f38                ar_bigpinky_bubbles_towelback_count
                0x00038f3c                ar_bigpinky_bubbles_standup
                0x00038f5a                ar_bigpinky_bubbles_standup_count
                0x00038f5c                ar_bigpinky_bubbles_splash
                0x00038f90                ar_bigpinky_bubbles_splash_count
                0x00038f94                ar_bigpinky_bubbles_splashfront
                0x00038fe8                ar_bigpinky_bubbles_splashfront_count
                0x00038fec                ar_bigpinky_bubbles_sitdown
                0x00038ff6                ar_bigpinky_bubbles_sitdown_count
                0x00038ff8                ar_bigpinky_bubbles_jumpout
                0x00039034                ar_bigpinky_bubbles_jumpout_count
                0x00039038                ar_bigpinky_bubbles_joyjoy
                0x00039088                ar_bigpinky_bubbles_joyjoy_count
                0x0003908c                ar_bigpinky_bubbles_hotstanding
                0x000390bc                ar_bigpinky_bubbles_hotstanding_count
                0x000390c0                ar_bigpinky_bubbles_hotsitting
                0x000390da                ar_bigpinky_bubbles_hotsitting_count
                0x000390dc                ar_bigpinky_bubbles_foamC
                0x000390ee                ar_bigpinky_bubbles_foamC_count
                0x000390f0                ar_bigpinky_bubbles_foamB
                0x00039102                ar_bigpinky_bubbles_foamB_count
                0x00039104                ar_bigpinky_bubbles_foamA
                0x00039122                ar_bigpinky_bubbles_foamA_count
                0x00039124                ar_bigpinky_bubbles_drynaked
                0x000391c4                ar_bigpinky_bubbles_drynaked_count
                0x000391c8                ar_bigpinky_bubbles_dive
                0x00039232                ar_bigpinky_bubbles_dive_count
                0x00039234                ar_bigpinky_bubbles_controlhot
                0x0003925c                ar_bigpinky_bubbles_controlhot_count
                0x00039260                ar_bigpinky_bubbles_controlcold
                0x0003927c                ar_bigpinky_bubbles_controlcold_count
                0x00039280                ar_bigpinky_bubbles_coldstanding
                0x000392b0                ar_bigpinky_bubbles_coldstanding_count
                0x000392b4                ar_bigpinky_bubbles_coldsitting
                0x000392ce                ar_bigpinky_bubbles_coldsitting_count
                0x000392d0                ar_bigpinky_bubbles_climbout
                0x00039350                ar_bigpinky_bubbles_climbout_count
                0x00039354                ar_bigpinky_bubbles_climbin
                0x0003938c                ar_bigpinky_bubbles_climbin_count
                0x00039390                ar_bigpinky_bubbles_checkwater
                0x0003939a                ar_bigpinky_bubbles_checkwater_count
                0x0003939c                ar_bigpinky_bubbles_blinkleft
                0x000393ba                ar_bigpinky_bubbles_blinkleft_count
                0x000393bc                ar_bigpinky_bubbles_blinkfront
                0x000393da                ar_bigpinky_bubbles_blinkfront_count
                0x000393dc                ar_bigpinky_allgemein_simpleright
                0x000393f0                ar_bigpinky_allgemein_simpleright_count
                0x000393f4                ar_bigpinky_allgemein_simpleleft
                0x00039408                ar_bigpinky_allgemein_simpleleft_count
                0x0003940c                ar_alphalittlepinky_walk_west
                0x0003941c                ar_alphalittlepinky_walk_west_count
                0x00039420                ar_alphalittlepinky_walk_south
                0x00039430                ar_alphalittlepinky_walk_south_count
                0x00039434                ar_alphalittlepinky_walk_southwest
                0x00039444                ar_alphalittlepinky_walk_southwest_count
                0x00039448                ar_alphalittlepinky_walk_southeast
                0x00039458                ar_alphalittlepinky_walk_southeast_count
                0x0003945c                ar_alphalittlepinky_walk_north
                0x0003946c                ar_alphalittlepinky_walk_north_count
                0x00039470                ar_alphalittlepinky_walk_northwest
                0x00039480                ar_alphalittlepinky_walk_northwest_count
                0x00039484                ar_alphalittlepinky_walk_northeast
                0x00039494                ar_alphalittlepinky_walk_northeast_count
                0x00039498                ar_alphalittlepinky_walk_east
                0x000394a8                ar_alphalittlepinky_walk_east_count
                0x000394ac                ar_alphabigpinky_bubbles_walkright
                0x000394c0                ar_alphabigpinky_bubbles_walkright_count
                0x000394c4                ar_alphabigpinky_bubbles_turnsittingfront
                0x000394dc                ar_alphabigpinky_bubbles_turnsittingfront_count
                0x000394e0                ar_alphabigpinky_bubbles_turnrightback
                0x000394f4                ar_alphabigpinky_bubbles_turnrightback_count
                0x000394f8                ar_alphabigpinky_bubbles_towel
                0x0003957c                ar_alphabigpinky_bubbles_towel_count
                0x00039580                ar_alphabigpinky_bubbles_towelback
                0x000395c8                ar_alphabigpinky_bubbles_towelback_count
                0x000395cc                ar_alphabigpinky_bubbles_standup
                0x000395ea                ar_alphabigpinky_bubbles_standup_count
                0x000395ec                ar_alphabigpinky_bubbles_splash
                0x00039620                ar_alphabigpinky_bubbles_splash_count
                0x00039624                ar_alphabigpinky_bubbles_splashfront
                0x00039678                ar_alphabigpinky_bubbles_splashfront_count
                0x0003967c                ar_alphabigpinky_bubbles_sitdown
                0x00039686                ar_alphabigpinky_bubbles_sitdown_count
                0x00039688                ar_alphabigpinky_bubbles_jumpout
                0x000396c4                ar_alphabigpinky_bubbles_jumpout_count
                0x000396c8                ar_alphabigpinky_bubbles_joyjoy
                0x00039718                ar_alphabigpinky_bubbles_joyjoy_count
                0x0003971c                ar_alphabigpinky_bubbles_hotstanding
                0x0003974c                ar_alphabigpinky_bubbles_hotstanding_count
                0x00039750                ar_alphabigpinky_bubbles_hotsitting
                0x0003976a                ar_alphabigpinky_bubbles_hotsitting_count
                0x0003976c                ar_alphabigpinky_bubbles_foamC
                0x0003977e                ar_alphabigpinky_bubbles_foamC_count
                0x00039780                ar_alphabigpinky_bubbles_foamB
                0x00039792                ar_alphabigpinky_bubbles_foamB_count
                0x00039794                ar_alphabigpinky_bubbles_foamA
                0x000397b2                ar_alphabigpinky_bubbles_foamA_count
                0x000397b4                ar_alphabigpinky_bubbles_drynaked
                0x00039854                ar_alphabigpinky_bubbles_drynaked_count
                0x00039858                ar_alphabigpinky_bubbles_dive
                0x000398c2                ar_alphabigpinky_bubbles_dive_count
                0x000398c4                ar_alphabigpinky_bubbles_controlhot
                0x000398ec                ar_alphabigpinky_bubbles_controlhot_count
                0x000398f0                ar_alphabigpinky_bubbles_controlcold
                0x0003990c                ar_alphabigpinky_bubbles_controlcold_count
                0x00039910                ar_alphabigpinky_bubbles_coldstanding
                0x00039940                ar_alphabigpinky_bubbles_coldstanding_count
                0x00039944                ar_alphabigpinky_bubbles_coldsitting
                0x0003995e                ar_alphabigpinky_bubbles_coldsitting_count
                0x00039960                ar_alphabigpinky_bubbles_climbout
                0x000399e0                ar_alphabigpinky_bubbles_climbout_count
                0x000399e4                ar_alphabigpinky_bubbles_climbin
                0x00039a1c                ar_alphabigpinky_bubbles_climbin_count
                0x00039a20                ar_alphabigpinky_bubbles_checkwater
                0x00039a2a                ar_alphabigpinky_bubbles_checkwater_count
                0x00039a2c                ar_alphabigpinky_bubbles_blinkleft
                0x00039a4a                ar_alphabigpinky_bubbles_blinkleft_count
                0x00039a4c                ar_alphabigpinky_bubbles_blinkfront
                0x00039a6a                ar_alphabigpinky_bubbles_blinkfront_count
                0x00039a6c                ar_alphabigpinky_allgemein_simpleright
                0x00039a80                ar_alphabigpinky_allgemein_simpleright_count
                0x00039a84                ar_alphabigpinky_allgemein_simpleleft
                0x00039a98                ar_alphabigpinky_allgemein_simpleleft_count
 .data          0x00039a9c        0x0 build/gapi/bitmap.o
 .data          0x00039a9c        0x4 build/gapi/common.o
                0x00039a9c                inactivity_threshold
 .data          0x00039aa0        0x0 build/gapi/controlbutton.o
 .data          0x00039aa0        0x0 build/gapi/flipbook.o
 .data          0x00039aa0        0x0 build/gapi/font.o
 .data          0x00039aa0        0x0 build/gapi/memory_tracking.o
 .data          0x00039aa0        0x0 build/gapi/rectangle.o
 .data          0x00039aa0        0x0 build/gapi/screen.o
 .data          0x00039aa0        0x0 build/gapi/screenraspi.o
 .data          0x00039aa0        0x0 build/gapi/wconsole.o
 .data          0x00039aa0        0x0 build/gapi/window.o
 .data          0x00039aa0        0x4 build/syscalls.o
                0x00039aa0                environ
 .data          0x00039aa4        0x0 build/fonts/6x8.o
 .data          0x00039aa4        0x0 build/fonts/ComicSansMS10.o
 .data          0x00039aa4        0x0 build/fonts/ComicSansMS10.height.o
 .data          0x00039aa4        0x0 build/fonts/ComicSansMS10.width.o
 .data          0x00039aa4        0x0 build/fonts/ComicSansMS12.o
 .data          0x00039aa4        0x0 build/fonts/ComicSansMS12.height.o
 .data          0x00039aa4        0x0 build/fonts/ComicSansMS12.width.o
 .data          0x00039aa4        0x0 build/fonts/EGA_8x8.o
 .data          0x00039aa4        0x0 build/fonts/font6x8.o
 .data          0x00039aa4        0x0 build/fonts/font6x8_width.o
 .data          0x00039aa4        0x0 build/fonts/LucidaConsole10.o
 .data          0x00039aa4        0x0 build/fonts/LucidaConsole10.width.o
 .data          0x00039aa4        0x0 build/fonts/Noritake5x5.o
 .data          0x00039aa4        0x0 build/fonts/Noritake5x5.width.o
 .data          0x00039aa4        0x0 build/fonts/VGA_16x16.o
 .data          0x00039aa4        0x4 build/fatfs/diskio.o
                0x00039aa4                drvstatus
 .data          0x00039aa8        0x0 build/fatfs/ff.o
 .data          0x00039aa8        0x0 build/mmc/block.o
 .data          0x00039aa8       0x10 build/mmc/emmc.o
 .data          0x00039ab8        0x0 build/mmc/mbox.o
 .data          0x00039ab8        0x0 build/mmc/mmio.o
 .data          0x00039ab8        0x0 build/mmc/timer.o
 .data          0x00039ab8        0x0 build/gpio.o
 .data          0x00039ab8        0x0 build/mailbox.o
 .data          0x00039ab8        0x0 build/screens.o
 .data          0x00039ab8        0x0 build/startup.o
 .data          0x00039ab8        0x0 /home/bseip/MentorGraphics/Sourcery_CodeBench_Lite_for_ARM_EABI/lib/gcc/arm-none-eabi/4.8.1/libgcc.a(_udivsi3.o)
 .data          0x00039ab8        0x0 /home/bseip/MentorGraphics/Sourcery_CodeBench_Lite_for_ARM_EABI/lib/gcc/arm-none-eabi/4.8.1/libgcc.a(_divsi3.o)
 .data          0x00039ab8        0x0 /home/bseip/MentorGraphics/Sourcery_CodeBench_Lite_for_ARM_EABI/lib/gcc/arm-none-eabi/4.8.1/libgcc.a(_dvmd_tls.o)
 .data          0x00039ab8        0x0 /home/bseip/MentorGraphics/Sourcery_CodeBench_Lite_for_ARM_EABI/lib/gcc/arm-none-eabi/4.8.1/libgcc.a(unwind-arm.o)
 .data          0x00039ab8        0x0 /home/bseip/MentorGraphics/Sourcery_CodeBench_Lite_for_ARM_EABI/lib/gcc/arm-none-eabi/4.8.1/libgcc.a(libunwind.o)
 .data          0x00039ab8        0x0 /home/bseip/MentorGraphics/Sourcery_CodeBench_Lite_for_ARM_EABI/lib/gcc/arm-none-eabi/4.8.1/libgcc.a(pr-support.o)
 .data          0x00039ab8        0x0 /home/bseip/MentorGraphics/Sourcery_CodeBench_Lite_for_ARM_EABI/arm-none-eabi/lib/libc.a(lib_a-aeabi_atexit.o)
 .data          0x00039ab8        0x0 /home/bseip/MentorGraphics/Sourcery_CodeBench_Lite_for_ARM_EABI/arm-none-eabi/lib/libc.a(lib_a-assert.o)
 .data          0x00039ab8        0x0 /home/bseip/MentorGraphics/Sourcery_CodeBench_Lite_for_ARM_EABI/arm-none-eabi/lib/libc.a(lib_a-cxa_atexit.o)
 .data          0x00039ab8        0x0 /home/bseip/MentorGraphics/Sourcery_CodeBench_Lite_for_ARM_EABI/arm-none-eabi/lib/libc.a(lib_a-fiprintf.o)
 .data          0x00039ab8        0x0 /home/bseip/MentorGraphics/Sourcery_CodeBench_Lite_for_ARM_EABI/arm-none-eabi/lib/libc.a(lib_a-fprintf.o)
 .data          0x00039ab8      0x430 /home/bseip/MentorGraphics/Sourcery_CodeBench_Lite_for_ARM_EABI/arm-none-eabi/lib/libc.a(lib_a-impure.o)
                0x00039ab8                _impure_ptr
 .data          0x00039ee8        0x0 /home/bseip/MentorGraphics/Sourcery_CodeBench_Lite_for_ARM_EABI/arm-none-eabi/lib/libc.a(lib_a-malloc.o)
 .data          0x00039ee8      0x410 /home/bseip/MentorGraphics/Sourcery_CodeBench_Lite_for_ARM_EABI/arm-none-eabi/lib/libc.a(lib_a-mallocr.o)
                0x00039ee8                __malloc_av_
                0x0003a2f0                __malloc_sbrk_base
                0x0003a2f4                __malloc_trim_threshold
 .data          0x0003a2f8        0x0 /home/bseip/MentorGraphics/Sourcery_CodeBench_Lite_for_ARM_EABI/arm-none-eabi/lib/libc.a(lib_a-memcpy-stub.o)
 .data          0x0003a2f8        0x0 /home/bseip/MentorGraphics/Sourcery_CodeBench_Lite_for_ARM_EABI/arm-none-eabi/lib/libc.a(lib_a-memmove.o)
 .data          0x0003a2f8        0x0 /home/bseip/MentorGraphics/Sourcery_CodeBench_Lite_for_ARM_EABI/arm-none-eabi/lib/libc.a(lib_a-memset.o)
 .data          0x0003a2f8        0x0 /home/bseip/MentorGraphics/Sourcery_CodeBench_Lite_for_ARM_EABI/arm-none-eabi/lib/libc.a(lib_a-mlock.o)
 .data          0x0003a2f8        0x0 /home/bseip/MentorGraphics/Sourcery_CodeBench_Lite_for_ARM_EABI/arm-none-eabi/lib/libc.a(lib_a-printf.o)
 .data          0x0003a2f8        0x0 /home/bseip/MentorGraphics/Sourcery_CodeBench_Lite_for_ARM_EABI/arm-none-eabi/lib/libc.a(lib_a-reent.o)
 .data          0x0003a2f8        0x0 /home/bseip/MentorGraphics/Sourcery_CodeBench_Lite_for_ARM_EABI/arm-none-eabi/lib/libc.a(lib_a-sbrkr.o)
 .data          0x0003a2f8        0x0 /home/bseip/MentorGraphics/Sourcery_CodeBench_Lite_for_ARM_EABI/arm-none-eabi/lib/libc.a(lib_a-sprintf.o)
 .data          0x0003a2f8        0x0 /home/bseip/MentorGraphics/Sourcery_CodeBench_Lite_for_ARM_EABI/arm-none-eabi/lib/libc.a(lib_a-sscanf.o)
 .data          0x0003a2f8        0x0 /home/bseip/MentorGraphics/Sourcery_CodeBench_Lite_for_ARM_EABI/arm-none-eabi/lib/libc.a(lib_a-stdio.o)
 .data          0x0003a2f8        0x0 /home/bseip/MentorGraphics/Sourcery_CodeBench_Lite_for_ARM_EABI/arm-none-eabi/lib/libc.a(lib_a-strlen.o)
 .data          0x0003a2f8        0x0 /home/bseip/MentorGraphics/Sourcery_CodeBench_Lite_for_ARM_EABI/arm-none-eabi/lib/libc.a(lib_a-strncpy.o)
 .data          0x0003a2f8        0x0 /home/bseip/MentorGraphics/Sourcery_CodeBench_Lite_for_ARM_EABI/arm-none-eabi/lib/libc.a(lib_a-svfprintf.o)
 .data          0x0003a2f8        0x0 /home/bseip/MentorGraphics/Sourcery_CodeBench_Lite_for_ARM_EABI/arm-none-eabi/lib/libc.a(lib_a-svfscanf.o)
 .data          0x0003a2f8        0x0 /home/bseip/MentorGraphics/Sourcery_CodeBench_Lite_for_ARM_EABI/arm-none-eabi/lib/libc.a(lib_a-toupper.o)
 .data          0x0003a2f8        0x0 /home/bseip/MentorGraphics/Sourcery_CodeBench_Lite_for_ARM_EABI/arm-none-eabi/lib/libc.a(lib_a-vfiprintf.o)
 .data          0x0003a2f8        0x0 /home/bseip/MentorGraphics/Sourcery_CodeBench_Lite_for_ARM_EABI/arm-none-eabi/lib/libc.a(lib_a-vfprintf.o)
 .data          0x0003a2f8        0x0 /home/bseip/MentorGraphics/Sourcery_CodeBench_Lite_for_ARM_EABI/arm-none-eabi/lib/libc.a(lib_a-writer.o)
 .data          0x0003a2f8        0x0 /home/bseip/MentorGraphics/Sourcery_CodeBench_Lite_for_ARM_EABI/arm-none-eabi/lib/libc.a(lib_a-wsetup.o)
 .data          0x0003a2f8        0x0 /home/bseip/MentorGraphics/Sourcery_CodeBench_Lite_for_ARM_EABI/arm-none-eabi/lib/libc.a(lib_a-__atexit.o)
 .data          0x0003a2f8        0x0 /home/bseip/MentorGraphics/Sourcery_CodeBench_Lite_for_ARM_EABI/arm-none-eabi/lib/libc.a(lib_a-closer.o)
 .data          0x0003a2f8        0x4 /home/bseip/MentorGraphics/Sourcery_CodeBench_Lite_for_ARM_EABI/arm-none-eabi/lib/libc.a(lib_a-ctype_.o)
                0x0003a2f8                __ctype_ptr__
 .data          0x0003a2fc        0x0 /home/bseip/MentorGraphics/Sourcery_CodeBench_Lite_for_ARM_EABI/arm-none-eabi/lib/libc.a(lib_a-dtoa.o)
 .data          0x0003a2fc        0x0 /home/bseip/MentorGraphics/Sourcery_CodeBench_Lite_for_ARM_EABI/arm-none-eabi/lib/libc.a(lib_a-fflush.o)
 .data          0x0003a2fc        0x0 /home/bseip/MentorGraphics/Sourcery_CodeBench_Lite_for_ARM_EABI/arm-none-eabi/lib/libc.a(lib_a-findfp.o)
 .data          0x0003a2fc        0x0 /home/bseip/MentorGraphics/Sourcery_CodeBench_Lite_for_ARM_EABI/arm-none-eabi/lib/libc.a(lib_a-fputwc.o)
 .data          0x0003a2fc        0x0 /home/bseip/MentorGraphics/Sourcery_CodeBench_Lite_for_ARM_EABI/arm-none-eabi/lib/libc.a(lib_a-freer.o)
 .data          0x0003a2fc        0x0 /home/bseip/MentorGraphics/Sourcery_CodeBench_Lite_for_ARM_EABI/arm-none-eabi/lib/libc.a(lib_a-fvwrite.o)
 .data          0x0003a2fc        0x0 /home/bseip/MentorGraphics/Sourcery_CodeBench_Lite_for_ARM_EABI/arm-none-eabi/lib/libc.a(lib_a-fwalk.o)
 .data          0x0003a2fc        0x0 /home/bseip/MentorGraphics/Sourcery_CodeBench_Lite_for_ARM_EABI/arm-none-eabi/lib/libc.a(lib_a-iswspace.o)
 .data          0x0003a2fc       0x7c /home/bseip/MentorGraphics/Sourcery_CodeBench_Lite_for_ARM_EABI/arm-none-eabi/lib/libc.a(lib_a-locale.o)
                0x0003a31c                __mb_cur_max
 .data          0x0003a378        0x0 /home/bseip/MentorGraphics/Sourcery_CodeBench_Lite_for_ARM_EABI/arm-none-eabi/lib/libc.a(lib_a-lseekr.o)
 .data          0x0003a378        0x0 /home/bseip/MentorGraphics/Sourcery_CodeBench_Lite_for_ARM_EABI/arm-none-eabi/lib/libc.a(lib_a-makebuf.o)
 .data          0x0003a378        0x0 /home/bseip/MentorGraphics/Sourcery_CodeBench_Lite_for_ARM_EABI/arm-none-eabi/lib/libc.a(lib_a-mbrtowc.o)
 .data          0x0003a378        0x4 /home/bseip/MentorGraphics/Sourcery_CodeBench_Lite_for_ARM_EABI/arm-none-eabi/lib/libc.a(lib_a-mbtowc_r.o)
                0x0003a378                __mbtowc
 .data          0x0003a37c        0x0 /home/bseip/MentorGraphics/Sourcery_CodeBench_Lite_for_ARM_EABI/arm-none-eabi/lib/libc.a(lib_a-memchr-stub.o)
 .data          0x0003a37c        0x0 /home/bseip/MentorGraphics/Sourcery_CodeBench_Lite_for_ARM_EABI/arm-none-eabi/lib/libc.a(lib_a-mprec.o)
 .data          0x0003a37c        0x0 /home/bseip/MentorGraphics/Sourcery_CodeBench_Lite_for_ARM_EABI/arm-none-eabi/lib/libc.a(lib_a-readr.o)
 .data          0x0003a37c        0x0 /home/bseip/MentorGraphics/Sourcery_CodeBench_Lite_for_ARM_EABI/arm-none-eabi/lib/libc.a(lib_a-reallocr.o)
 .data          0x0003a37c        0x0 /home/bseip/MentorGraphics/Sourcery_CodeBench_Lite_for_ARM_EABI/arm-none-eabi/lib/libc.a(lib_a-s_fpclassify.o)
 .data          0x0003a37c        0x0 /home/bseip/MentorGraphics/Sourcery_CodeBench_Lite_for_ARM_EABI/arm-none-eabi/lib/libc.a(lib_a-sccl.o)
 .data          0x0003a37c        0x0 /home/bseip/MentorGraphics/Sourcery_CodeBench_Lite_for_ARM_EABI/arm-none-eabi/lib/libc.a(lib_a-sf_nan.o)
 .data          0x0003a37c        0x0 /home/bseip/MentorGraphics/Sourcery_CodeBench_Lite_for_ARM_EABI/arm-none-eabi/lib/libc.a(lib_a-strcmp.o)
 .data          0x0003a37c        0x0 /home/bseip/MentorGraphics/Sourcery_CodeBench_Lite_for_ARM_EABI/arm-none-eabi/lib/libc.a(lib_a-strtod.o)
 .data          0x0003a37c        0x0 /home/bseip/MentorGraphics/Sourcery_CodeBench_Lite_for_ARM_EABI/arm-none-eabi/lib/libc.a(lib_a-strtol.o)
 .data          0x0003a37c        0x0 /home/bseip/MentorGraphics/Sourcery_CodeBench_Lite_for_ARM_EABI/arm-none-eabi/lib/libc.a(lib_a-strtoll_r.o)
 .data          0x0003a37c        0x0 /home/bseip/MentorGraphics/Sourcery_CodeBench_Lite_for_ARM_EABI/arm-none-eabi/lib/libc.a(lib_a-strtoul.o)
 .data          0x0003a37c        0x0 /home/bseip/MentorGraphics/Sourcery_CodeBench_Lite_for_ARM_EABI/arm-none-eabi/lib/libc.a(lib_a-strtoull_r.o)
 .data          0x0003a37c        0x0 /home/bseip/MentorGraphics/Sourcery_CodeBench_Lite_for_ARM_EABI/arm-none-eabi/lib/libc.a(lib_a-svfiprintf.o)
 .data          0x0003a37c        0x0 /home/bseip/MentorGraphics/Sourcery_CodeBench_Lite_for_ARM_EABI/arm-none-eabi/lib/libc.a(lib_a-svfiscanf.o)
 .data          0x0003a37c        0x0 /home/bseip/MentorGraphics/Sourcery_CodeBench_Lite_for_ARM_EABI/arm-none-eabi/lib/libc.a(lib_a-ungetc.o)
 .data          0x0003a37c        0x0 /home/bseip/MentorGraphics/Sourcery_CodeBench_Lite_for_ARM_EABI/arm-none-eabi/lib/libc.a(lib_a-wbuf.o)
 .data          0x0003a37c        0x0 /home/bseip/MentorGraphics/Sourcery_CodeBench_Lite_for_ARM_EABI/arm-none-eabi/lib/libc.a(lib_a-wcrtomb.o)
 .data          0x0003a37c        0x4 /home/bseip/MentorGraphics/Sourcery_CodeBench_Lite_for_ARM_EABI/arm-none-eabi/lib/libc.a(lib_a-wctomb_r.o)
                0x0003a37c                __wctomb
 .data          0x0003a380        0x0 /home/bseip/MentorGraphics/Sourcery_CodeBench_Lite_for_ARM_EABI/arm-none-eabi/lib/libc.a(lib_a-callocr.o)
 .data          0x0003a380        0x0 /home/bseip/MentorGraphics/Sourcery_CodeBench_Lite_for_ARM_EABI/arm-none-eabi/lib/libc.a(lib_a-fclose.o)
 .data          0x0003a380        0x0 /home/bseip/MentorGraphics/Sourcery_CodeBench_Lite_for_ARM_EABI/arm-none-eabi/lib/libc.a(lib_a-fstatr.o)
 .data          0x0003a380        0x0 /home/bseip/MentorGraphics/Sourcery_CodeBench_Lite_for_ARM_EABI/arm-none-eabi/lib/libc.a(lib_a-gdtoa-gethex.o)
 .data          0x0003a380        0x0 /home/bseip/MentorGraphics/Sourcery_CodeBench_Lite_for_ARM_EABI/arm-none-eabi/lib/libc.a(lib_a-gdtoa-hexnan.o)
 .data          0x0003a380        0x0 /home/bseip/MentorGraphics/Sourcery_CodeBench_Lite_for_ARM_EABI/arm-none-eabi/lib/libc.a(lib_a-isattyr.o)
 .data          0x0003a380        0x0 /home/bseip/MentorGraphics/Sourcery_CodeBench_Lite_for_ARM_EABI/arm-none-eabi/lib/libc.a(lib_a-strncmp.o)
 .data          0x0003a380        0x0 /home/bseip/MentorGraphics/Sourcery_CodeBench_Lite_for_ARM_EABI/arm-none-eabi/lib/libstdc++.a(eh_catch.o)
 .data          0x0003a380        0x0 /home/bseip/MentorGraphics/Sourcery_CodeBench_Lite_for_ARM_EABI/arm-none-eabi/lib/libstdc++.a(si_class_type_info.o)
 .data          0x0003a380        0x0 /home/bseip/MentorGraphics/Sourcery_CodeBench_Lite_for_ARM_EABI/arm-none-eabi/lib/libstdc++.a(eh_terminate.o)
 .data          0x0003a380        0x0 /home/bseip/MentorGraphics/Sourcery_CodeBench_Lite_for_ARM_EABI/arm-none-eabi/lib/libstdc++.a(tinfo.o)
 .data          0x0003a380        0x0 /home/bseip/MentorGraphics/Sourcery_CodeBench_Lite_for_ARM_EABI/arm-none-eabi/lib/libstdc++.a(eh_alloc.o)
 .data          0x0003a380        0x0 /home/bseip/MentorGraphics/Sourcery_CodeBench_Lite_for_ARM_EABI/arm-none-eabi/lib/libstdc++.a(eh_personality.o)
 .data          0x0003a380        0x0 /home/bseip/MentorGraphics/Sourcery_CodeBench_Lite_for_ARM_EABI/arm-none-eabi/lib/libstdc++.a(eh_arm.o)
 .data          0x0003a380        0x0 /home/bseip/MentorGraphics/Sourcery_CodeBench_Lite_for_ARM_EABI/arm-none-eabi/lib/libstdc++.a(eh_exception.o)
 .data          0x0003a380        0x0 /home/bseip/MentorGraphics/Sourcery_CodeBench_Lite_for_ARM_EABI/arm-none-eabi/lib/libstdc++.a(eh_globals.o)
 .data          0x0003a380        0x0 /home/bseip/MentorGraphics/Sourcery_CodeBench_Lite_for_ARM_EABI/arm-none-eabi/lib/libstdc++.a(eh_call.o)
 .data          0x0003a380        0x0 /home/bseip/MentorGraphics/Sourcery_CodeBench_Lite_for_ARM_EABI/arm-none-eabi/lib/libstdc++.a(eh_throw.o)
 .data          0x0003a380        0x0 /home/bseip/MentorGraphics/Sourcery_CodeBench_Lite_for_ARM_EABI/arm-none-eabi/lib/libstdc++.a(bad_alloc.o)
 .data          0x0003a380        0x0 /home/bseip/MentorGraphics/Sourcery_CodeBench_Lite_for_ARM_EABI/arm-none-eabi/lib/libstdc++.a(eh_unex_handler.o)
 .data          0x0003a380        0x0 /home/bseip/MentorGraphics/Sourcery_CodeBench_Lite_for_ARM_EABI/arm-none-eabi/lib/libstdc++.a(class_type_info.o)
 .data          0x0003a380        0x0 /home/bseip/MentorGraphics/Sourcery_CodeBench_Lite_for_ARM_EABI/arm-none-eabi/lib/libstdc++.a(eh_term_handler.o)
 .data          0x0003a380        0x0 /home/bseip/MentorGraphics/Sourcery_CodeBench_Lite_for_ARM_EABI/arm-none-eabi/lib/libstdc++.a(pure.o)
 .data          0x0003a380        0x0 /home/bseip/MentorGraphics/Sourcery_CodeBench_Lite_for_ARM_EABI/arm-none-eabi/lib/libstdc++.a(tree.o)
 .data          0x0003a380        0x0 /home/bseip/MentorGraphics/Sourcery_CodeBench_Lite_for_ARM_EABI/arm-none-eabi/lib/libstdc++.a(functexcept.o)
 .data          0x0003a380        0x0 /home/bseip/MentorGraphics/Sourcery_CodeBench_Lite_for_ARM_EABI/arm-none-eabi/lib/libstdc++.a(string-inst.o)
 .data          0x0003a380        0x0 /home/bseip/MentorGraphics/Sourcery_CodeBench_Lite_for_ARM_EABI/arm-none-eabi/lib/libstdc++.a(future.o)
 .data          0x0003a380        0x0 /home/bseip/MentorGraphics/Sourcery_CodeBench_Lite_for_ARM_EABI/arm-none-eabi/lib/libstdc++.a(functional.o)
 .data          0x0003a380        0x0 /home/bseip/MentorGraphics/Sourcery_CodeBench_Lite_for_ARM_EABI/arm-none-eabi/lib/libstdc++.a(regex.o)
 .data          0x0003a380        0x0 /home/bseip/MentorGraphics/Sourcery_CodeBench_Lite_for_ARM_EABI/arm-none-eabi/lib/libstdc++.a(bad_cast.o)
 .data          0x0003a380        0x0 /home/bseip/MentorGraphics/Sourcery_CodeBench_Lite_for_ARM_EABI/arm-none-eabi/lib/libstdc++.a(bad_typeid.o)
 .data          0x0003a380        0x0 /home/bseip/MentorGraphics/Sourcery_CodeBench_Lite_for_ARM_EABI/arm-none-eabi/lib/libstdc++.a(guard.o)
 .data          0x0003a380        0x0 /home/bseip/MentorGraphics/Sourcery_CodeBench_Lite_for_ARM_EABI/arm-none-eabi/lib/libstdc++.a(vterminate.o)
 .data          0x0003a380        0x0 /home/bseip/MentorGraphics/Sourcery_CodeBench_Lite_for_ARM_EABI/arm-none-eabi/lib/libstdc++.a(cp-demangle.o)
 .data          0x0003a380        0x0 /home/bseip/MentorGraphics/Sourcery_CodeBench_Lite_for_ARM_EABI/arm-none-eabi/lib/libstdc++.a(eh_type.o)
 .data          0x0003a380        0x0 /home/bseip/MentorGraphics/Sourcery_CodeBench_Lite_for_ARM_EABI/arm-none-eabi/lib/libstdc++.a(ios_failure.o)
 .data          0x0003a380        0x0 /home/bseip/MentorGraphics/Sourcery_CodeBench_Lite_for_ARM_EABI/arm-none-eabi/lib/libstdc++.a(stdexcept.o)
 .data          0x0003a380        0x0 /home/bseip/MentorGraphics/Sourcery_CodeBench_Lite_for_ARM_EABI/arm-none-eabi/lib/libstdc++.a(system_error.o)
 .data          0x0003a380        0x0 /home/bseip/MentorGraphics/Sourcery_CodeBench_Lite_for_ARM_EABI/arm-none-eabi/lib/libstdc++.a(guard_error.o)
 .data          0x0003a380        0x0 /home/bseip/MentorGraphics/Sourcery_CodeBench_Lite_for_ARM_EABI/lib/gcc/arm-none-eabi/4.8.1/crti.o
 .data          0x0003a380        0x4 /home/bseip/MentorGraphics/Sourcery_CodeBench_Lite_for_ARM_EABI/lib/gcc/arm-none-eabi/4.8.1/crtbegin.o
                0x0003a380                __dso_handle
 .data          0x0003a384        0x0 /home/bseip/MentorGraphics/Sourcery_CodeBench_Lite_for_ARM_EABI/lib/gcc/arm-none-eabi/4.8.1/crtend.o
 .data          0x0003a384        0x0 /home/bseip/MentorGraphics/Sourcery_CodeBench_Lite_for_ARM_EABI/lib/gcc/arm-none-eabi/4.8.1/libgcc.a(_arm_addsubdf3.o)
 .data          0x0003a384        0x0 /home/bseip/MentorGraphics/Sourcery_CodeBench_Lite_for_ARM_EABI/lib/gcc/arm-none-eabi/4.8.1/libgcc.a(_arm_muldivdf3.o)
 .data          0x0003a384        0x0 /home/bseip/MentorGraphics/Sourcery_CodeBench_Lite_for_ARM_EABI/lib/gcc/arm-none-eabi/4.8.1/libgcc.a(_arm_cmpdf2.o)
 .data          0x0003a384        0x0 /home/bseip/MentorGraphics/Sourcery_CodeBench_Lite_for_ARM_EABI/lib/gcc/arm-none-eabi/4.8.1/libgcc.a(_arm_fixdfsi.o)
 .data          0x0003a384        0x0 /home/bseip/MentorGraphics/Sourcery_CodeBench_Lite_for_ARM_EABI/lib/gcc/arm-none-eabi/4.8.1/libgcc.a(_arm_fixunsdfsi.o)
 .data          0x0003a384        0x0 /home/bseip/MentorGraphics/Sourcery_CodeBench_Lite_for_ARM_EABI/lib/gcc/arm-none-eabi/4.8.1/libgcc.a(_arm_truncdfsf2.o)
 .data          0x0003a384        0x0 /home/bseip/MentorGraphics/Sourcery_CodeBench_Lite_for_ARM_EABI/lib/gcc/arm-none-eabi/4.8.1/libgcc.a(_arm_cmpsf2.o)
 .data          0x0003a384        0x0 /home/bseip/MentorGraphics/Sourcery_CodeBench_Lite_for_ARM_EABI/lib/gcc/arm-none-eabi/4.8.1/libgcc.a(_aeabi_uldivmod.o)
 .data          0x0003a384        0x0 /home/bseip/MentorGraphics/Sourcery_CodeBench_Lite_for_ARM_EABI/lib/gcc/arm-none-eabi/4.8.1/libgcc.a(bpabi.o)
 .data          0x0003a384        0x0 /home/bseip/MentorGraphics/Sourcery_CodeBench_Lite_for_ARM_EABI/lib/gcc/arm-none-eabi/4.8.1/libgcc.a(_divdi3.o)
 .data          0x0003a384        0x0 /home/bseip/MentorGraphics/Sourcery_CodeBench_Lite_for_ARM_EABI/lib/gcc/arm-none-eabi/4.8.1/libgcc.a(_udivdi3.o)
 .data          0x0003a384        0x0 /home/bseip/MentorGraphics/Sourcery_CodeBench_Lite_for_ARM_EABI/lib/gcc/arm-none-eabi/4.8.1/libgcc.a(_clzsi2.o)
 .data          0x0003a384        0x0 /home/bseip/MentorGraphics/Sourcery_CodeBench_Lite_for_ARM_EABI/arm-none-eabi/lib/libc.a(lib_a-fputc.o)
 .data          0x0003a384        0x0 /home/bseip/MentorGraphics/Sourcery_CodeBench_Lite_for_ARM_EABI/arm-none-eabi/lib/libc.a(lib_a-fputs.o)
 .data          0x0003a384        0x0 /home/bseip/MentorGraphics/Sourcery_CodeBench_Lite_for_ARM_EABI/arm-none-eabi/lib/libc.a(lib_a-fwrite.o)
 .data          0x0003a384        0x0 /home/bseip/MentorGraphics/Sourcery_CodeBench_Lite_for_ARM_EABI/arm-none-eabi/lib/libc.a(lib_a-memcmp.o)
 .data          0x0003a384        0x0 /home/bseip/MentorGraphics/Sourcery_CodeBench_Lite_for_ARM_EABI/arm-none-eabi/lib/libc.a(lib_a-putc.o)
 .data          0x0003a384        0x0 /home/bseip/MentorGraphics/Sourcery_CodeBench_Lite_for_ARM_EABI/arm-none-eabi/lib/libc.a(lib_a-realloc.o)
 .data          0x0003a384        0x0 /home/bseip/MentorGraphics/Sourcery_CodeBench_Lite_for_ARM_EABI/arm-none-eabi/lib/libc.a(lib_a-strerror.o)
 .data          0x0003a384        0x0 /home/bseip/MentorGraphics/Sourcery_CodeBench_Lite_for_ARM_EABI/arm-none-eabi/lib/libc.a(lib_a-syswrite.o)
 .data          0x0003a384        0x0 /home/bseip/MentorGraphics/Sourcery_CodeBench_Lite_for_ARM_EABI/arm-none-eabi/lib/libc.a(lib_a-u_strerr.o)
 *(.got.plt)
 *(.fini)
 .fini          0x0003a384        0xc /home/bseip/MentorGraphics/Sourcery_CodeBench_Lite_for_ARM_EABI/lib/gcc/arm-none-eabi/4.8.1/crti.o
                0x0003a384                _fini
 *(.ARM.extab)
 .ARM.extab     0x0003a390        0x0 build/bcm2835.o
 .ARM.extab     0x0003a390       0x18 build/main.o
 .ARM.extab     0x0003a3a8        0x0 build/uart.o
 .ARM.extab     0x0003a3a8        0x0 build/gapi/bitmap.o
 .ARM.extab     0x0003a3a8        0x0 build/gapi/common.o
 .ARM.extab     0x0003a3a8       0x6c build/gapi/controlbutton.o
 .ARM.extab     0x0003a414       0x40 build/gapi/flipbook.o
 .ARM.extab     0x0003a454        0x0 build/gapi/font.o
 .ARM.extab     0x0003a454       0xb0 build/gapi/memory_tracking.o
 .ARM.extab     0x0003a504        0x0 build/gapi/rectangle.o
 .ARM.extab     0x0003a504       0x18 build/gapi/screen.o
 .ARM.extab     0x0003a51c       0x40 build/gapi/screenraspi.o
 .ARM.extab     0x0003a55c       0x44 build/gapi/wconsole.o
 .ARM.extab     0x0003a5a0       0xa0 build/gapi/window.o
 .ARM.extab     0x0003a640        0xc /home/bseip/MentorGraphics/Sourcery_CodeBench_Lite_for_ARM_EABI/lib/gcc/arm-none-eabi/4.8.1/libgcc.a(unwind-arm.o)
 .ARM.extab     0x0003a64c       0x18 /home/bseip/MentorGraphics/Sourcery_CodeBench_Lite_for_ARM_EABI/lib/gcc/arm-none-eabi/4.8.1/libgcc.a(pr-support.o)
 .ARM.extab     0x0003a664        0x0 /home/bseip/MentorGraphics/Sourcery_CodeBench_Lite_for_ARM_EABI/lib/gcc/arm-none-eabi/4.8.1/libgcc.a(_divdi3.o)
 .ARM.extab     0x0003a664        0x0 /home/bseip/MentorGraphics/Sourcery_CodeBench_Lite_for_ARM_EABI/lib/gcc/arm-none-eabi/4.8.1/libgcc.a(_udivdi3.o)
                0x0003a664                _DATA_END_ = .

.igot.plt       0x0003a664        0x0
 .igot.plt      0x00000000        0x0 build/bcm2835.o

.init_array     0x0003a664       0x10
 .init_array    0x0003a664        0x4 build/gapi/common.o
 .init_array    0x0003a668        0x4 build/gapi/memory_tracking.o
 .init_array    0x0003a66c        0x4 /home/bseip/MentorGraphics/Sourcery_CodeBench_Lite_for_ARM_EABI/arm-none-eabi/lib/libstdc++.a(system_error.o)
 .init_array    0x0003a670        0x4 /home/bseip/MentorGraphics/Sourcery_CodeBench_Lite_for_ARM_EABI/lib/gcc/arm-none-eabi/4.8.1/crtbegin.o

.data._ZN10__cxxabiv120__unexpected_handlerE
                0x0003a674        0x4
 .data._ZN10__cxxabiv120__unexpected_handlerE
                0x0003a674        0x4 /home/bseip/MentorGraphics/Sourcery_CodeBench_Lite_for_ARM_EABI/arm-none-eabi/lib/libstdc++.a(eh_unex_handler.o)
                0x0003a674                __cxxabiv1::__unexpected_handler

.data._ZN10__cxxabiv119__terminate_handlerE
                0x0003a678        0x4
 .data._ZN10__cxxabiv119__terminate_handlerE
                0x0003a678        0x4 /home/bseip/MentorGraphics/Sourcery_CodeBench_Lite_for_ARM_EABI/arm-none-eabi/lib/libstdc++.a(eh_term_handler.o)
                0x0003a678                __cxxabiv1::__terminate_handler

.fini_array     0x0003a67c        0x4
 .fini_array    0x0003a67c        0x4 /home/bseip/MentorGraphics/Sourcery_CodeBench_Lite_for_ARM_EABI/lib/gcc/arm-none-eabi/4.8.1/crtbegin.o

.jcr            0x0003a680        0x4
 .jcr           0x0003a680        0x0 /home/bseip/MentorGraphics/Sourcery_CodeBench_Lite_for_ARM_EABI/lib/gcc/arm-none-eabi/4.8.1/crtbegin.o
 .jcr           0x0003a680        0x4 /home/bseip/MentorGraphics/Sourcery_CodeBench_Lite_for_ARM_EABI/lib/gcc/arm-none-eabi/4.8.1/crtend.o

.tm_clone_table
                0x0003a684        0x0
 .tm_clone_table
                0x0003a684        0x0 /home/bseip/MentorGraphics/Sourcery_CodeBench_Lite_for_ARM_EABI/lib/gcc/arm-none-eabi/4.8.1/crtbegin.o
 .tm_clone_table
                0x0003a684        0x0 /home/bseip/MentorGraphics/Sourcery_CodeBench_Lite_for_ARM_EABI/lib/gcc/arm-none-eabi/4.8.1/crtend.o

.text2          0x0003a684      0x9d8
                0x0003a684                __exidx_start = .
 *(.ARM.exidx* .gnu.linkonce.armexidx.*)
 .ARM.exidx     0x0003a684       0x10 build/bcm2835.o
 .ARM.exidx     0x0003a694       0x40 build/main.o
                                 0x70 (size before relaxing)
 .ARM.exidx.text.startup
                0x0003aa3c        0x8 build/main.o
 .ARM.exidx     0x0003a6d4       0x10 build/uart.o
                                 0x30 (size before relaxing)
 .ARM.exidx     0x0003a6e4       0x50 build/gapi/bitmap.o
                                 0xf8 (size before relaxing)
 .ARM.exidx     0x0003a734       0x28 build/gapi/common.o
                                 0x70 (size before relaxing)
 .ARM.exidx.text._ZNSt11_Deque_baseIiSaIiEED2Ev
                0x0003aa54        0x0 build/gapi/common.o
                                  0x8 (size before relaxing)
 .ARM.exidx.text._ZNSt5queueIiSt5dequeIiSaIiEEED2Ev
                0x0003aa54        0x0 build/gapi/common.o
                                  0x8 (size before relaxing)
 .ARM.exidx.text._ZNSt11_Deque_baseIiSaIiEE17_M_initialize_mapEj
                0x0003aa54        0x8 build/gapi/common.o
 .ARM.exidx.text._ZNSt5dequeIiSaIiEEC2ERKS1_
                0x0003aa5c        0x8 build/gapi/common.o
 .ARM.exidx.text.startup
                0x0003aa44        0x8 build/gapi/common.o
 .ARM.exidx     0x0003a75c       0x38 build/gapi/controlbutton.o
                                 0x48 (size before relaxing)
 .ARM.exidx     0x0003a794       0xa8 build/gapi/flipbook.o
                                 0xd0 (size before relaxing)
 .ARM.exidx.text._ZNSt6vectorIP14FlipbookActionSaIS1_EE13_M_insert_auxEN9__gnu_cxx17__normal_iteratorIPS1_S3_EERKS1_
                0x0003aa64        0x8 build/gapi/flipbook.o
 .ARM.exidx.text._ZNSt6vectorIP17FlipbookAnimationSaIS1_EE13_M_insert_auxEN9__gnu_cxx17__normal_iteratorIPS1_S3_EERKS1_
                0x0003aa6c        0x0 build/gapi/flipbook.o
                                  0x8 (size before relaxing)
 .ARM.exidx.text._ZNSt6vectorIP13FlipbookFrameSaIS1_EE13_M_insert_auxEN9__gnu_cxx17__normal_iteratorIPS1_S3_EERKS1_
                0x0003aa6c        0x0 build/gapi/flipbook.o
                                  0x8 (size before relaxing)
 .ARM.exidx     0x0003a83c        0x8 build/gapi/font.o
                                 0x10 (size before relaxing)
 .ARM.exidx.text._ZNSt8_Rb_treeIPvSt4pairIKS0_jESt10_Select1stIS3_ESt4lessIS0_ESaIS3_EE24_M_get_insert_unique_posERS2_
                0x0003aa6c        0x8 build/gapi/memory_tracking.o
 .ARM.exidx.text._ZNSt8_Rb_treeIPvSt4pairIKS0_jESt10_Select1stIS3_ESt4lessIS0_ESaIS3_EE17_M_insert_unique_ESt23_Rb_tree_const_iteratorIS3_ERKS3_
                0x0003aa74        0x8 build/gapi/memory_tracking.o
 .ARM.exidx     0x0003a844       0x20 build/gapi/memory_tracking.o
 .ARM.exidx.text._ZNSt8_Rb_treeIPvSt4pairIKS0_jESt10_Select1stIS3_ESt4lessIS0_ESaIS3_EE8_M_eraseEPSt13_Rb_tree_nodeIS3_E
                0x0003aa7c        0x8 build/gapi/memory_tracking.o
 .ARM.exidx.text._ZNSt3mapIPvjSt4lessIS0_ESaISt4pairIKS0_jEEED2Ev
                0x0003aa84        0x8 build/gapi/memory_tracking.o
 .ARM.exidx.text._Z14tracked_deletePvRSt3mapIS_jSt4lessIS_ESaISt4pairIKS_jEEE
                0x0003aa8c        0x8 build/gapi/memory_tracking.o
 .ARM.exidx.text.startup
                0x0003aa4c        0x8 build/gapi/memory_tracking.o
 .ARM.exidx     0x0003a864        0x8 build/gapi/rectangle.o
                                 0x30 (size before relaxing)
 .ARM.exidx     0x0003a86c       0x18 build/gapi/screen.o
                                 0x30 (size before relaxing)
 .ARM.exidx     0x0003a884       0x20 build/gapi/screenraspi.o
                                 0x28 (size before relaxing)
 .ARM.exidx.text._ZN8WConsoleD2Ev
                0x0003aa94        0x8 build/gapi/wconsole.o
 .ARM.exidx.text._ZN8WConsoleD0Ev
                0x0003aa9c        0x0 build/gapi/wconsole.o
                                  0x8 (size before relaxing)
 .ARM.exidx     0x0003a8a4       0x28 build/gapi/wconsole.o
                                 0x50 (size before relaxing)
 .ARM.exidx     0x0003a8cc       0xb0 build/gapi/window.o
                                0x168 (size before relaxing)
 .ARM.exidx.text._ZNSt8_Rb_treeIiSt4pairIKiP6WindowESt10_Select1stIS4_ESt4lessIiESaIS4_EE8_M_eraseEPSt13_Rb_tree_nodeIS4_E
                0x0003aa9c        0x8 build/gapi/window.o
 .ARM.exidx     0x0003a97c       0x88 /home/bseip/MentorGraphics/Sourcery_CodeBench_Lite_for_ARM_EABI/lib/gcc/arm-none-eabi/4.8.1/libgcc.a(unwind-arm.o)
                                 0xd8 (size before relaxing)
 .ARM.exidx     0x0003aa04       0x38 /home/bseip/MentorGraphics/Sourcery_CodeBench_Lite_for_ARM_EABI/lib/gcc/arm-none-eabi/4.8.1/libgcc.a(pr-support.o)
                                 0x48 (size before relaxing)
 .ARM.exidx.text.__cxa_get_exception_ptr
                0x0003aaa4        0x0 /home/bseip/MentorGraphics/Sourcery_CodeBench_Lite_for_ARM_EABI/arm-none-eabi/lib/libstdc++.a(eh_catch.o)
                                  0x8 (size before relaxing)
 .ARM.exidx.text.__cxa_begin_catch
                0x0003aaa4        0x8 /home/bseip/MentorGraphics/Sourcery_CodeBench_Lite_for_ARM_EABI/arm-none-eabi/lib/libstdc++.a(eh_catch.o)
 .ARM.exidx.text.__cxa_end_catch
                0x0003aaac        0x8 /home/bseip/MentorGraphics/Sourcery_CodeBench_Lite_for_ARM_EABI/arm-none-eabi/lib/libstdc++.a(eh_catch.o)
 .ARM.exidx.text._ZSt18uncaught_exceptionv
                0x0003aab4        0x8 /home/bseip/MentorGraphics/Sourcery_CodeBench_Lite_for_ARM_EABI/arm-none-eabi/lib/libstdc++.a(eh_catch.o)
 .ARM.exidx.text._ZN10__cxxabiv120__si_class_type_infoD2Ev
                0x0003aabc        0x8 /home/bseip/MentorGraphics/Sourcery_CodeBench_Lite_for_ARM_EABI/arm-none-eabi/lib/libstdc++.a(si_class_type_info.o)
 .ARM.exidx.text._ZN10__cxxabiv120__si_class_type_infoD0Ev
                0x0003aac4        0x0 /home/bseip/MentorGraphics/Sourcery_CodeBench_Lite_for_ARM_EABI/arm-none-eabi/lib/libstdc++.a(si_class_type_info.o)
                                  0x8 (size before relaxing)
 .ARM.exidx.text._ZNK10__cxxabiv120__si_class_type_info20__do_find_public_srcEiPKvPKNS_17__class_type_infoES2_
                0x0003aac4        0x8 /home/bseip/MentorGraphics/Sourcery_CodeBench_Lite_for_ARM_EABI/arm-none-eabi/lib/libstdc++.a(si_class_type_info.o)
 .ARM.exidx.text._ZNK10__cxxabiv120__si_class_type_info12__do_dyncastEiNS_17__class_type_info10__sub_kindEPKS1_PKvS4_S6_RNS1_16__dyncast_resultE
                0x0003aacc        0x8 /home/bseip/MentorGraphics/Sourcery_CodeBench_Lite_for_ARM_EABI/arm-none-eabi/lib/libstdc++.a(si_class_type_info.o)
 .ARM.exidx.text._ZNK10__cxxabiv120__si_class_type_info11__do_upcastEPKNS_17__class_type_infoEPKvRNS1_15__upcast_resultE
                0x0003aad4        0x8 /home/bseip/MentorGraphics/Sourcery_CodeBench_Lite_for_ARM_EABI/arm-none-eabi/lib/libstdc++.a(si_class_type_info.o)
 .ARM.exidx.text._ZN10__cxxabiv111__terminateEPFvvE
                0x0003aadc        0x8 /home/bseip/MentorGraphics/Sourcery_CodeBench_Lite_for_ARM_EABI/arm-none-eabi/lib/libstdc++.a(eh_terminate.o)
 .ARM.exidx.text._ZSt9terminatev
                0x0003aae4        0x8 /home/bseip/MentorGraphics/Sourcery_CodeBench_Lite_for_ARM_EABI/arm-none-eabi/lib/libstdc++.a(eh_terminate.o)
 .ARM.exidx.text._ZN10__cxxabiv112__unexpectedEPFvvE
                0x0003aaec        0x8 /home/bseip/MentorGraphics/Sourcery_CodeBench_Lite_for_ARM_EABI/arm-none-eabi/lib/libstdc++.a(eh_terminate.o)
 .ARM.exidx.text._ZSt10unexpectedv
                0x0003aaf4        0x8 /home/bseip/MentorGraphics/Sourcery_CodeBench_Lite_for_ARM_EABI/arm-none-eabi/lib/libstdc++.a(eh_terminate.o)
 .ARM.exidx.text._ZSt13set_terminatePFvvE
                0x0003aafc        0x8 /home/bseip/MentorGraphics/Sourcery_CodeBench_Lite_for_ARM_EABI/arm-none-eabi/lib/libstdc++.a(eh_terminate.o)
 .ARM.exidx.text._ZSt14set_unexpectedPFvvE
                0x0003ab04        0x0 /home/bseip/MentorGraphics/Sourcery_CodeBench_Lite_for_ARM_EABI/arm-none-eabi/lib/libstdc++.a(eh_terminate.o)
                                  0x8 (size before relaxing)
 .ARM.exidx.text._ZNSt9type_infoD2Ev
                0x0003ab04        0x0 /home/bseip/MentorGraphics/Sourcery_CodeBench_Lite_for_ARM_EABI/arm-none-eabi/lib/libstdc++.a(tinfo.o)
                                  0x8 (size before relaxing)
 .ARM.exidx.text._ZNKSt9type_info14__is_pointer_pEv
                0x0003ab04        0x0 /home/bseip/MentorGraphics/Sourcery_CodeBench_Lite_for_ARM_EABI/arm-none-eabi/lib/libstdc++.a(tinfo.o)
                                  0x8 (size before relaxing)
 .ARM.exidx.text._ZNKSt9type_info15__is_function_pEv
                0x0003ab04        0x0 /home/bseip/MentorGraphics/Sourcery_CodeBench_Lite_for_ARM_EABI/arm-none-eabi/lib/libstdc++.a(tinfo.o)
                                  0x8 (size before relaxing)
 .ARM.exidx.text._ZNKSt9type_info11__do_upcastEPKN10__cxxabiv117__class_type_infoEPPv
                0x0003ab04        0x0 /home/bseip/MentorGraphics/Sourcery_CodeBench_Lite_for_ARM_EABI/arm-none-eabi/lib/libstdc++.a(tinfo.o)
                                  0x8 (size before relaxing)
 .ARM.exidx.text._ZNSt9type_infoD0Ev
                0x0003ab04        0x0 /home/bseip/MentorGraphics/Sourcery_CodeBench_Lite_for_ARM_EABI/arm-none-eabi/lib/libstdc++.a(tinfo.o)
                                  0x8 (size before relaxing)
 .ARM.exidx.text._ZNKSt9type_infoeqERKS_
                0x0003ab04        0x0 /home/bseip/MentorGraphics/Sourcery_CodeBench_Lite_for_ARM_EABI/arm-none-eabi/lib/libstdc++.a(tinfo.o)
                                  0x8 (size before relaxing)
 .ARM.exidx.text._ZNKSt9type_info10__do_catchEPKS_PPvj
                0x0003ab04        0x0 /home/bseip/MentorGraphics/Sourcery_CodeBench_Lite_for_ARM_EABI/arm-none-eabi/lib/libstdc++.a(tinfo.o)
                                  0x8 (size before relaxing)
 .ARM.exidx.text.__cxa_allocate_exception
                0x0003ab04        0x0 /home/bseip/MentorGraphics/Sourcery_CodeBench_Lite_for_ARM_EABI/arm-none-eabi/lib/libstdc++.a(eh_alloc.o)
                                  0x8 (size before relaxing)
 .ARM.exidx.text.__cxa_free_exception
                0x0003ab04        0x0 /home/bseip/MentorGraphics/Sourcery_CodeBench_Lite_for_ARM_EABI/arm-none-eabi/lib/libstdc++.a(eh_alloc.o)
                                  0x8 (size before relaxing)
 .ARM.exidx.text.__cxa_allocate_dependent_exception
                0x0003ab04        0x0 /home/bseip/MentorGraphics/Sourcery_CodeBench_Lite_for_ARM_EABI/arm-none-eabi/lib/libstdc++.a(eh_alloc.o)
                                  0x8 (size before relaxing)
 .ARM.exidx.text.__cxa_free_dependent_exception
                0x0003ab04        0x0 /home/bseip/MentorGraphics/Sourcery_CodeBench_Lite_for_ARM_EABI/arm-none-eabi/lib/libstdc++.a(eh_alloc.o)
                                  0x8 (size before relaxing)
 .ARM.exidx.text._ZL12read_sleb128PKhPl
                0x0003ab04        0x0 /home/bseip/MentorGraphics/Sourcery_CodeBench_Lite_for_ARM_EABI/arm-none-eabi/lib/libstdc++.a(eh_personality.o)
                                  0x8 (size before relaxing)
 .ARM.exidx.text._ZL28read_encoded_value_with_basehjPKhPj
                0x0003ab04        0x8 /home/bseip/MentorGraphics/Sourcery_CodeBench_Lite_for_ARM_EABI/arm-none-eabi/lib/libstdc++.a(eh_personality.o)
 .ARM.exidx.text._ZL21base_of_encoded_valuehP15_Unwind_Context
                0x0003ab0c        0x8 /home/bseip/MentorGraphics/Sourcery_CodeBench_Lite_for_ARM_EABI/arm-none-eabi/lib/libstdc++.a(eh_personality.o)
 .ARM.exidx.text._ZL17parse_lsda_headerP15_Unwind_ContextPKhP16lsda_header_info
                0x0003ab14        0x8 /home/bseip/MentorGraphics/Sourcery_CodeBench_Lite_for_ARM_EABI/arm-none-eabi/lib/libstdc++.a(eh_personality.o)
 .ARM.exidx.text.__gxx_personality_v0
                0x0003ab1c       0x10 /home/bseip/MentorGraphics/Sourcery_CodeBench_Lite_for_ARM_EABI/arm-none-eabi/lib/libstdc++.a(eh_personality.o)
                                  0x8 (size before relaxing)
 .ARM.exidx.text.__cxa_type_match
                0x0003ab2c        0x8 /home/bseip/MentorGraphics/Sourcery_CodeBench_Lite_for_ARM_EABI/arm-none-eabi/lib/libstdc++.a(eh_arm.o)
 .ARM.exidx.text.__cxa_begin_cleanup
                0x0003ab34        0x8 /home/bseip/MentorGraphics/Sourcery_CodeBench_Lite_for_ARM_EABI/arm-none-eabi/lib/libstdc++.a(eh_arm.o)
 .ARM.exidx.text.__gnu_end_cleanup
                0x0003ab3c        0x0 /home/bseip/MentorGraphics/Sourcery_CodeBench_Lite_for_ARM_EABI/arm-none-eabi/lib/libstdc++.a(eh_arm.o)
                                  0x8 (size before relaxing)
 .ARM.exidx.text._ZNSt9exceptionD2Ev
                0x0003ab3c        0x0 /home/bseip/MentorGraphics/Sourcery_CodeBench_Lite_for_ARM_EABI/arm-none-eabi/lib/libstdc++.a(eh_exception.o)
                                  0x8 (size before relaxing)
 .ARM.exidx.text._ZNSt13bad_exceptionD2Ev
                0x0003ab3c        0x0 /home/bseip/MentorGraphics/Sourcery_CodeBench_Lite_for_ARM_EABI/arm-none-eabi/lib/libstdc++.a(eh_exception.o)
                                  0x8 (size before relaxing)
 .ARM.exidx.text._ZN10__cxxabiv115__forced_unwindD2Ev
                0x0003ab3c        0x0 /home/bseip/MentorGraphics/Sourcery_CodeBench_Lite_for_ARM_EABI/arm-none-eabi/lib/libstdc++.a(eh_exception.o)
                                  0x8 (size before relaxing)
 .ARM.exidx.text._ZN10__cxxabiv119__foreign_exceptionD2Ev
                0x0003ab3c        0x0 /home/bseip/MentorGraphics/Sourcery_CodeBench_Lite_for_ARM_EABI/arm-none-eabi/lib/libstdc++.a(eh_exception.o)
                                  0x8 (size before relaxing)
 .ARM.exidx.text._ZNKSt9exception4whatEv
                0x0003ab3c        0x0 /home/bseip/MentorGraphics/Sourcery_CodeBench_Lite_for_ARM_EABI/arm-none-eabi/lib/libstdc++.a(eh_exception.o)
                                  0x8 (size before relaxing)
 .ARM.exidx.text._ZNKSt13bad_exception4whatEv
                0x0003ab3c        0x0 /home/bseip/MentorGraphics/Sourcery_CodeBench_Lite_for_ARM_EABI/arm-none-eabi/lib/libstdc++.a(eh_exception.o)
                                  0x8 (size before relaxing)
 .ARM.exidx.text._ZNSt9exceptionD0Ev
                0x0003ab3c        0x0 /home/bseip/MentorGraphics/Sourcery_CodeBench_Lite_for_ARM_EABI/arm-none-eabi/lib/libstdc++.a(eh_exception.o)
                                  0x8 (size before relaxing)
 .ARM.exidx.text._ZNSt13bad_exceptionD0Ev
                0x0003ab3c        0x0 /home/bseip/MentorGraphics/Sourcery_CodeBench_Lite_for_ARM_EABI/arm-none-eabi/lib/libstdc++.a(eh_exception.o)
                                  0x8 (size before relaxing)
 .ARM.exidx.text._ZN10__cxxabiv115__forced_unwindD0Ev
                0x0003ab3c        0x0 /home/bseip/MentorGraphics/Sourcery_CodeBench_Lite_for_ARM_EABI/arm-none-eabi/lib/libstdc++.a(eh_exception.o)
                                  0x8 (size before relaxing)
 .ARM.exidx.text._ZN10__cxxabiv119__foreign_exceptionD0Ev
                0x0003ab3c        0x0 /home/bseip/MentorGraphics/Sourcery_CodeBench_Lite_for_ARM_EABI/arm-none-eabi/lib/libstdc++.a(eh_exception.o)
                                  0x8 (size before relaxing)
 .ARM.exidx.text.__cxa_get_globals_fast
                0x0003ab3c        0x0 /home/bseip/MentorGraphics/Sourcery_CodeBench_Lite_for_ARM_EABI/arm-none-eabi/lib/libstdc++.a(eh_globals.o)
                                  0x8 (size before relaxing)
 .ARM.exidx.text.__cxa_get_globals
                0x0003ab3c        0x0 /home/bseip/MentorGraphics/Sourcery_CodeBench_Lite_for_ARM_EABI/arm-none-eabi/lib/libstdc++.a(eh_globals.o)
                                  0x8 (size before relaxing)
 .ARM.exidx.text._ZN10__cxxabiv1L24__is_gxx_exception_classEPc
                0x0003ab3c        0x0 /home/bseip/MentorGraphics/Sourcery_CodeBench_Lite_for_ARM_EABI/arm-none-eabi/lib/libstdc++.a(eh_call.o)
                                  0x8 (size before relaxing)
 .ARM.exidx.text.__cxa_call_terminate
                0x0003ab3c        0x0 /home/bseip/MentorGraphics/Sourcery_CodeBench_Lite_for_ARM_EABI/arm-none-eabi/lib/libstdc++.a(eh_call.o)
                                  0x8 (size before relaxing)
 .ARM.exidx.text.__cxa_call_unexpected
                0x0003ab3c        0x8 /home/bseip/MentorGraphics/Sourcery_CodeBench_Lite_for_ARM_EABI/arm-none-eabi/lib/libstdc++.a(eh_call.o)
 .ARM.exidx.text._ZL23__gxx_exception_cleanup19_Unwind_Reason_CodeP21_Unwind_Control_Block
                0x0003ab44        0x8 /home/bseip/MentorGraphics/Sourcery_CodeBench_Lite_for_ARM_EABI/arm-none-eabi/lib/libstdc++.a(eh_throw.o)
 .ARM.exidx.text.__cxa_throw
                0x0003ab4c        0x8 /home/bseip/MentorGraphics/Sourcery_CodeBench_Lite_for_ARM_EABI/arm-none-eabi/lib/libstdc++.a(eh_throw.o)
 .ARM.exidx.text.__cxa_rethrow
                0x0003ab54        0x8 /home/bseip/MentorGraphics/Sourcery_CodeBench_Lite_for_ARM_EABI/arm-none-eabi/lib/libstdc++.a(eh_throw.o)
 .ARM.exidx.text._ZNKSt9bad_alloc4whatEv
                0x0003ab5c        0x8 /home/bseip/MentorGraphics/Sourcery_CodeBench_Lite_for_ARM_EABI/arm-none-eabi/lib/libstdc++.a(bad_alloc.o)
 .ARM.exidx.text._ZNSt9bad_allocD2Ev
                0x0003ab64        0x0 /home/bseip/MentorGraphics/Sourcery_CodeBench_Lite_for_ARM_EABI/arm-none-eabi/lib/libstdc++.a(bad_alloc.o)
                                  0x8 (size before relaxing)
 .ARM.exidx.text._ZNSt9bad_allocD0Ev
                0x0003ab64        0x0 /home/bseip/MentorGraphics/Sourcery_CodeBench_Lite_for_ARM_EABI/arm-none-eabi/lib/libstdc++.a(bad_alloc.o)
                                  0x8 (size before relaxing)
 .ARM.exidx.text._ZNK10__cxxabiv117__class_type_info11__do_upcastEPKS0_PPv
                0x0003ab64        0x8 /home/bseip/MentorGraphics/Sourcery_CodeBench_Lite_for_ARM_EABI/arm-none-eabi/lib/libstdc++.a(class_type_info.o)
 .ARM.exidx.text._ZNK10__cxxabiv117__class_type_info20__do_find_public_srcEiPKvPKS0_S2_
                0x0003ab6c        0x8 /home/bseip/MentorGraphics/Sourcery_CodeBench_Lite_for_ARM_EABI/arm-none-eabi/lib/libstdc++.a(class_type_info.o)
 .ARM.exidx.text._ZN10__cxxabiv117__class_type_infoD2Ev
                0x0003ab74        0x8 /home/bseip/MentorGraphics/Sourcery_CodeBench_Lite_for_ARM_EABI/arm-none-eabi/lib/libstdc++.a(class_type_info.o)
 .ARM.exidx.text._ZN10__cxxabiv117__class_type_infoD0Ev
                0x0003ab7c        0x0 /home/bseip/MentorGraphics/Sourcery_CodeBench_Lite_for_ARM_EABI/arm-none-eabi/lib/libstdc++.a(class_type_info.o)
                                  0x8 (size before relaxing)
 .ARM.exidx.text._ZNK10__cxxabiv117__class_type_info11__do_upcastEPKS0_PKvRNS0_15__upcast_resultE
                0x0003ab7c        0x8 /home/bseip/MentorGraphics/Sourcery_CodeBench_Lite_for_ARM_EABI/arm-none-eabi/lib/libstdc++.a(class_type_info.o)
 .ARM.exidx.text._ZNK10__cxxabiv117__class_type_info10__do_catchEPKSt9type_infoPPvj
                0x0003ab84        0x8 /home/bseip/MentorGraphics/Sourcery_CodeBench_Lite_for_ARM_EABI/arm-none-eabi/lib/libstdc++.a(class_type_info.o)
 .ARM.exidx.text._ZNK10__cxxabiv117__class_type_info12__do_dyncastEiNS0_10__sub_kindEPKS0_PKvS3_S5_RNS0_16__dyncast_resultE
                0x0003ab8c        0x8 /home/bseip/MentorGraphics/Sourcery_CodeBench_Lite_for_ARM_EABI/arm-none-eabi/lib/libstdc++.a(class_type_info.o)
 .ARM.exidx.text.__cxa_pure_virtual
                0x0003ab94        0x8 /home/bseip/MentorGraphics/Sourcery_CodeBench_Lite_for_ARM_EABI/arm-none-eabi/lib/libstdc++.a(pure.o)
 .ARM.exidx.text.__cxa_deleted_virtual
                0x0003ab9c        0x8 /home/bseip/MentorGraphics/Sourcery_CodeBench_Lite_for_ARM_EABI/arm-none-eabi/lib/libstdc++.a(pure.o)
 .ARM.exidx.text._ZStL25local_Rb_tree_rotate_leftPSt18_Rb_tree_node_baseRS0_
                0x0003aba4        0x8 /home/bseip/MentorGraphics/Sourcery_CodeBench_Lite_for_ARM_EABI/arm-none-eabi/lib/libstdc++.a(tree.o)
 .ARM.exidx.text._ZStL26local_Rb_tree_rotate_rightPSt18_Rb_tree_node_baseRS0_
                0x0003abac        0x0 /home/bseip/MentorGraphics/Sourcery_CodeBench_Lite_for_ARM_EABI/arm-none-eabi/lib/libstdc++.a(tree.o)
                                  0x8 (size before relaxing)
 .ARM.exidx.text._ZStL23local_Rb_tree_decrementPSt18_Rb_tree_node_base
                0x0003abac        0x0 /home/bseip/MentorGraphics/Sourcery_CodeBench_Lite_for_ARM_EABI/arm-none-eabi/lib/libstdc++.a(tree.o)
                                  0x8 (size before relaxing)
 .ARM.exidx.text._ZSt18_Rb_tree_incrementPSt18_Rb_tree_node_base
                0x0003abac        0x0 /home/bseip/MentorGraphics/Sourcery_CodeBench_Lite_for_ARM_EABI/arm-none-eabi/lib/libstdc++.a(tree.o)
                                  0x8 (size before relaxing)
 .ARM.exidx.text._ZSt18_Rb_tree_incrementPKSt18_Rb_tree_node_base
                0x0003abac        0x0 /home/bseip/MentorGraphics/Sourcery_CodeBench_Lite_for_ARM_EABI/arm-none-eabi/lib/libstdc++.a(tree.o)
                                  0x8 (size before relaxing)
 .ARM.exidx.text._ZSt18_Rb_tree_decrementPSt18_Rb_tree_node_base
                0x0003abac        0x0 /home/bseip/MentorGraphics/Sourcery_CodeBench_Lite_for_ARM_EABI/arm-none-eabi/lib/libstdc++.a(tree.o)
                                  0x8 (size before relaxing)
 .ARM.exidx.text._ZSt18_Rb_tree_decrementPKSt18_Rb_tree_node_base
                0x0003abac        0x0 /home/bseip/MentorGraphics/Sourcery_CodeBench_Lite_for_ARM_EABI/arm-none-eabi/lib/libstdc++.a(tree.o)
                                  0x8 (size before relaxing)
 .ARM.exidx.text._ZSt20_Rb_tree_rotate_leftPSt18_Rb_tree_node_baseRS0_
                0x0003abac        0x0 /home/bseip/MentorGraphics/Sourcery_CodeBench_Lite_for_ARM_EABI/arm-none-eabi/lib/libstdc++.a(tree.o)
                                  0x8 (size before relaxing)
 .ARM.exidx.text._ZSt21_Rb_tree_rotate_rightPSt18_Rb_tree_node_baseRS0_
                0x0003abac        0x0 /home/bseip/MentorGraphics/Sourcery_CodeBench_Lite_for_ARM_EABI/arm-none-eabi/lib/libstdc++.a(tree.o)
                                  0x8 (size before relaxing)
 .ARM.exidx.text._ZSt29_Rb_tree_insert_and_rebalancebPSt18_Rb_tree_node_baseS0_RS_
                0x0003abac        0x0 /home/bseip/MentorGraphics/Sourcery_CodeBench_Lite_for_ARM_EABI/arm-none-eabi/lib/libstdc++.a(tree.o)
                                  0x8 (size before relaxing)
 .ARM.exidx.text._ZSt28_Rb_tree_rebalance_for_erasePSt18_Rb_tree_node_baseRS_
                0x0003abac        0x0 /home/bseip/MentorGraphics/Sourcery_CodeBench_Lite_for_ARM_EABI/arm-none-eabi/lib/libstdc++.a(tree.o)
                                  0x8 (size before relaxing)
 .ARM.exidx.text._ZSt20_Rb_tree_black_countPKSt18_Rb_tree_node_baseS1_
                0x0003abac        0x0 /home/bseip/MentorGraphics/Sourcery_CodeBench_Lite_for_ARM_EABI/arm-none-eabi/lib/libstdc++.a(tree.o)
                                  0x8 (size before relaxing)
 .ARM.exidx.text._ZSt21__throw_bad_exceptionv
                0x0003abac        0x8 /home/bseip/MentorGraphics/Sourcery_CodeBench_Lite_for_ARM_EABI/arm-none-eabi/lib/libstdc++.a(functexcept.o)
 .ARM.exidx.text._ZSt17__throw_bad_allocv
                0x0003abb4        0x8 /home/bseip/MentorGraphics/Sourcery_CodeBench_Lite_for_ARM_EABI/arm-none-eabi/lib/libstdc++.a(functexcept.o)
 .ARM.exidx.text._ZSt16__throw_bad_castv
                0x0003abbc        0x8 /home/bseip/MentorGraphics/Sourcery_CodeBench_Lite_for_ARM_EABI/arm-none-eabi/lib/libstdc++.a(functexcept.o)
 .ARM.exidx.text._ZSt18__throw_bad_typeidv
                0x0003abc4        0x8 /home/bseip/MentorGraphics/Sourcery_CodeBench_Lite_for_ARM_EABI/arm-none-eabi/lib/libstdc++.a(functexcept.o)
 .ARM.exidx.text._ZSt19__throw_logic_errorPKc
                0x0003abcc        0x8 /home/bseip/MentorGraphics/Sourcery_CodeBench_Lite_for_ARM_EABI/arm-none-eabi/lib/libstdc++.a(functexcept.o)
 .ARM.exidx.text._ZSt20__throw_domain_errorPKc
                0x0003abd4        0x8 /home/bseip/MentorGraphics/Sourcery_CodeBench_Lite_for_ARM_EABI/arm-none-eabi/lib/libstdc++.a(functexcept.o)
 .ARM.exidx.text._ZSt24__throw_invalid_argumentPKc
                0x0003abdc        0x8 /home/bseip/MentorGraphics/Sourcery_CodeBench_Lite_for_ARM_EABI/arm-none-eabi/lib/libstdc++.a(functexcept.o)
 .ARM.exidx.text._ZSt20__throw_length_errorPKc
                0x0003abe4        0x8 /home/bseip/MentorGraphics/Sourcery_CodeBench_Lite_for_ARM_EABI/arm-none-eabi/lib/libstdc++.a(functexcept.o)
 .ARM.exidx.text._ZSt20__throw_out_of_rangePKc
                0x0003abec        0x8 /home/bseip/MentorGraphics/Sourcery_CodeBench_Lite_for_ARM_EABI/arm-none-eabi/lib/libstdc++.a(functexcept.o)
 .ARM.exidx.text._ZSt21__throw_runtime_errorPKc
                0x0003abf4        0x8 /home/bseip/MentorGraphics/Sourcery_CodeBench_Lite_for_ARM_EABI/arm-none-eabi/lib/libstdc++.a(functexcept.o)
 .ARM.exidx.text._ZSt19__throw_range_errorPKc
                0x0003abfc        0x8 /home/bseip/MentorGraphics/Sourcery_CodeBench_Lite_for_ARM_EABI/arm-none-eabi/lib/libstdc++.a(functexcept.o)
 .ARM.exidx.text._ZSt22__throw_overflow_errorPKc
                0x0003ac04        0x8 /home/bseip/MentorGraphics/Sourcery_CodeBench_Lite_for_ARM_EABI/arm-none-eabi/lib/libstdc++.a(functexcept.o)
 .ARM.exidx.text._ZSt23__throw_underflow_errorPKc
                0x0003ac0c        0x8 /home/bseip/MentorGraphics/Sourcery_CodeBench_Lite_for_ARM_EABI/arm-none-eabi/lib/libstdc++.a(functexcept.o)
 .ARM.exidx.text._ZSt19__throw_ios_failurePKc
                0x0003ac14        0x8 /home/bseip/MentorGraphics/Sourcery_CodeBench_Lite_for_ARM_EABI/arm-none-eabi/lib/libstdc++.a(functexcept.o)
 .ARM.exidx.text._ZSt20__throw_system_errori
                0x0003ac1c        0x8 /home/bseip/MentorGraphics/Sourcery_CodeBench_Lite_for_ARM_EABI/arm-none-eabi/lib/libstdc++.a(functexcept.o)
 .ARM.exidx.text._ZSt20__throw_future_errori
                0x0003ac24        0x8 /home/bseip/MentorGraphics/Sourcery_CodeBench_Lite_for_ARM_EABI/arm-none-eabi/lib/libstdc++.a(functexcept.o)
 .ARM.exidx.text._ZSt25__throw_bad_function_callv
                0x0003ac2c        0x8 /home/bseip/MentorGraphics/Sourcery_CodeBench_Lite_for_ARM_EABI/arm-none-eabi/lib/libstdc++.a(functexcept.o)
 .ARM.exidx.text._ZSt19__throw_regex_errorNSt15regex_constants10error_typeE
                0x0003ac34        0x8 /home/bseip/MentorGraphics/Sourcery_CodeBench_Lite_for_ARM_EABI/arm-none-eabi/lib/libstdc++.a(functexcept.o)
 .ARM.exidx.text._ZNKSs4dataEv
                0x0003ac3c        0x8 /home/bseip/MentorGraphics/Sourcery_CodeBench_Lite_for_ARM_EABI/arm-none-eabi/lib/libstdc++.a(string-inst.o)
 .ARM.exidx.text._ZNKSs6lengthEv
                0x0003ac44        0x0 /home/bseip/MentorGraphics/Sourcery_CodeBench_Lite_for_ARM_EABI/arm-none-eabi/lib/libstdc++.a(string-inst.o)
                                  0x8 (size before relaxing)
 .ARM.exidx.text._ZNKSs7_M_dataEv
                0x0003ac44        0x0 /home/bseip/MentorGraphics/Sourcery_CodeBench_Lite_for_ARM_EABI/arm-none-eabi/lib/libstdc++.a(string-inst.o)
                                  0x8 (size before relaxing)
 .ARM.exidx.text._ZNSs7_M_dataEPc
                0x0003ac44        0x0 /home/bseip/MentorGraphics/Sourcery_CodeBench_Lite_for_ARM_EABI/arm-none-eabi/lib/libstdc++.a(string-inst.o)
                                  0x8 (size before relaxing)
 .ARM.exidx.text._ZNKSs6_M_repEv
                0x0003ac44        0x0 /home/bseip/MentorGraphics/Sourcery_CodeBench_Lite_for_ARM_EABI/arm-none-eabi/lib/libstdc++.a(string-inst.o)
                                  0x8 (size before relaxing)
 .ARM.exidx.text._ZNKSs9_M_ibeginEv
                0x0003ac44        0x0 /home/bseip/MentorGraphics/Sourcery_CodeBench_Lite_for_ARM_EABI/arm-none-eabi/lib/libstdc++.a(string-inst.o)
                                  0x8 (size before relaxing)
 .ARM.exidx.text._ZNKSs7_M_iendEv
                0x0003ac44        0x0 /home/bseip/MentorGraphics/Sourcery_CodeBench_Lite_for_ARM_EABI/arm-none-eabi/lib/libstdc++.a(string-inst.o)
                                  0x8 (size before relaxing)
 .ARM.exidx.text._ZNKSs8_M_checkEjPKc
                0x0003ac44        0x8 /home/bseip/MentorGraphics/Sourcery_CodeBench_Lite_for_ARM_EABI/arm-none-eabi/lib/libstdc++.a(string-inst.o)
 .ARM.exidx.text._ZNKSs15_M_check_lengthEjjPKc
                0x0003ac4c        0x8 /home/bseip/MentorGraphics/Sourcery_CodeBench_Lite_for_ARM_EABI/arm-none-eabi/lib/libstdc++.a(string-inst.o)
 .ARM.exidx.text._ZNKSs8_M_limitEjj
                0x0003ac54        0x8 /home/bseip/MentorGraphics/Sourcery_CodeBench_Lite_for_ARM_EABI/arm-none-eabi/lib/libstdc++.a(string-inst.o)
 .ARM.exidx.text._ZNKSs11_M_disjunctEPKc
                0x0003ac5c        0x0 /home/bseip/MentorGraphics/Sourcery_CodeBench_Lite_for_ARM_EABI/arm-none-eabi/lib/libstdc++.a(string-inst.o)
                                  0x8 (size before relaxing)
 .ARM.exidx.text._ZNSs7_M_copyEPcPKcj
                0x0003ac5c        0x0 /home/bseip/MentorGraphics/Sourcery_CodeBench_Lite_for_ARM_EABI/arm-none-eabi/lib/libstdc++.a(string-inst.o)
                                  0x8 (size before relaxing)
 .ARM.exidx.text._ZNSs7_M_moveEPcPKcj
                0x0003ac5c        0x0 /home/bseip/MentorGraphics/Sourcery_CodeBench_Lite_for_ARM_EABI/arm-none-eabi/lib/libstdc++.a(string-inst.o)
                                  0x8 (size before relaxing)
 .ARM.exidx.text._ZNSs9_M_assignEPcjc
                0x0003ac5c        0x0 /home/bseip/MentorGraphics/Sourcery_CodeBench_Lite_for_ARM_EABI/arm-none-eabi/lib/libstdc++.a(string-inst.o)
                                  0x8 (size before relaxing)
 .ARM.exidx.text._ZNSs13_S_copy_charsEPcN9__gnu_cxx17__normal_iteratorIS_SsEES2_
                0x0003ac5c        0x0 /home/bseip/MentorGraphics/Sourcery_CodeBench_Lite_for_ARM_EABI/arm-none-eabi/lib/libstdc++.a(string-inst.o)
                                  0x8 (size before relaxing)
 .ARM.exidx.text._ZNSs13_S_copy_charsEPcN9__gnu_cxx17__normal_iteratorIPKcSsEES4_
                0x0003ac5c        0x0 /home/bseip/MentorGraphics/Sourcery_CodeBench_Lite_for_ARM_EABI/arm-none-eabi/lib/libstdc++.a(string-inst.o)
                                  0x8 (size before relaxing)
 .ARM.exidx.text._ZNSs13_S_copy_charsEPcS_S_
                0x0003ac5c        0x0 /home/bseip/MentorGraphics/Sourcery_CodeBench_Lite_for_ARM_EABI/arm-none-eabi/lib/libstdc++.a(string-inst.o)
                                  0x8 (size before relaxing)
 .ARM.exidx.text._ZNSs13_S_copy_charsEPcPKcS1_
                0x0003ac5c        0x0 /home/bseip/MentorGraphics/Sourcery_CodeBench_Lite_for_ARM_EABI/arm-none-eabi/lib/libstdc++.a(string-inst.o)
                                  0x8 (size before relaxing)
 .ARM.exidx.text._ZNSs10_S_compareEjj
                0x0003ac5c        0x0 /home/bseip/MentorGraphics/Sourcery_CodeBench_Lite_for_ARM_EABI/arm-none-eabi/lib/libstdc++.a(string-inst.o)
                                  0x8 (size before relaxing)
 .ARM.exidx.text._ZNSs12_S_empty_repEv
                0x0003ac5c        0x0 /home/bseip/MentorGraphics/Sourcery_CodeBench_Lite_for_ARM_EABI/arm-none-eabi/lib/libstdc++.a(string-inst.o)
                                  0x8 (size before relaxing)
 .ARM.exidx.text._ZNSsC2Ev
                0x0003ac5c        0x0 /home/bseip/MentorGraphics/Sourcery_CodeBench_Lite_for_ARM_EABI/arm-none-eabi/lib/libstdc++.a(string-inst.o)
                                  0x8 (size before relaxing)
 .ARM.exidx.text._ZNSsC2EOSs
                0x0003ac5c        0x0 /home/bseip/MentorGraphics/Sourcery_CodeBench_Lite_for_ARM_EABI/arm-none-eabi/lib/libstdc++.a(string-inst.o)
                                  0x8 (size before relaxing)
 .ARM.exidx.text._ZNKSs5beginEv
                0x0003ac5c        0x0 /home/bseip/MentorGraphics/Sourcery_CodeBench_Lite_for_ARM_EABI/arm-none-eabi/lib/libstdc++.a(string-inst.o)
                                  0x8 (size before relaxing)
 .ARM.exidx.text._ZNKSs3endEv
                0x0003ac5c        0x0 /home/bseip/MentorGraphics/Sourcery_CodeBench_Lite_for_ARM_EABI/arm-none-eabi/lib/libstdc++.a(string-inst.o)
                                  0x8 (size before relaxing)
 .ARM.exidx.text._ZNKSs6rbeginEv
                0x0003ac5c        0x0 /home/bseip/MentorGraphics/Sourcery_CodeBench_Lite_for_ARM_EABI/arm-none-eabi/lib/libstdc++.a(string-inst.o)
                                  0x8 (size before relaxing)
 .ARM.exidx.text._ZNKSs4rendEv
                0x0003ac5c        0x0 /home/bseip/MentorGraphics/Sourcery_CodeBench_Lite_for_ARM_EABI/arm-none-eabi/lib/libstdc++.a(string-inst.o)
                                  0x8 (size before relaxing)
 .ARM.exidx.text._ZNKSs6cbeginEv
                0x0003ac5c        0x0 /home/bseip/MentorGraphics/Sourcery_CodeBench_Lite_for_ARM_EABI/arm-none-eabi/lib/libstdc++.a(string-inst.o)
                                  0x8 (size before relaxing)
 .ARM.exidx.text._ZNKSs4cendEv
                0x0003ac5c        0x0 /home/bseip/MentorGraphics/Sourcery_CodeBench_Lite_for_ARM_EABI/arm-none-eabi/lib/libstdc++.a(string-inst.o)
                                  0x8 (size before relaxing)
 .ARM.exidx.text._ZNKSs7crbeginEv
                0x0003ac5c        0x0 /home/bseip/MentorGraphics/Sourcery_CodeBench_Lite_for_ARM_EABI/arm-none-eabi/lib/libstdc++.a(string-inst.o)
                                  0x8 (size before relaxing)
 .ARM.exidx.text._ZNKSs5crendEv
                0x0003ac5c        0x0 /home/bseip/MentorGraphics/Sourcery_CodeBench_Lite_for_ARM_EABI/arm-none-eabi/lib/libstdc++.a(string-inst.o)
                                  0x8 (size before relaxing)
 .ARM.exidx.text._ZNKSs4sizeEv
                0x0003ac5c        0x0 /home/bseip/MentorGraphics/Sourcery_CodeBench_Lite_for_ARM_EABI/arm-none-eabi/lib/libstdc++.a(string-inst.o)
                                  0x8 (size before relaxing)
 .ARM.exidx.text._ZNKSs8max_sizeEv
                0x0003ac5c        0x0 /home/bseip/MentorGraphics/Sourcery_CodeBench_Lite_for_ARM_EABI/arm-none-eabi/lib/libstdc++.a(string-inst.o)
                                  0x8 (size before relaxing)
 .ARM.exidx.text._ZNKSs8capacityEv
                0x0003ac5c        0x0 /home/bseip/MentorGraphics/Sourcery_CodeBench_Lite_for_ARM_EABI/arm-none-eabi/lib/libstdc++.a(string-inst.o)
                                  0x8 (size before relaxing)
 .ARM.exidx.text._ZNKSs5emptyEv
                0x0003ac5c        0x0 /home/bseip/MentorGraphics/Sourcery_CodeBench_Lite_for_ARM_EABI/arm-none-eabi/lib/libstdc++.a(string-inst.o)
                                  0x8 (size before relaxing)
 .ARM.exidx.text._ZNKSsixEj
                0x0003ac5c        0x0 /home/bseip/MentorGraphics/Sourcery_CodeBench_Lite_for_ARM_EABI/arm-none-eabi/lib/libstdc++.a(string-inst.o)
                                  0x8 (size before relaxing)
 .ARM.exidx.text._ZNKSs2atEj
                0x0003ac5c        0x8 /home/bseip/MentorGraphics/Sourcery_CodeBench_Lite_for_ARM_EABI/arm-none-eabi/lib/libstdc++.a(string-inst.o)
 .ARM.exidx.text._ZNKSs5frontEv
                0x0003ac64        0x8 /home/bseip/MentorGraphics/Sourcery_CodeBench_Lite_for_ARM_EABI/arm-none-eabi/lib/libstdc++.a(string-inst.o)
 .ARM.exidx.text._ZNKSs4backEv
                0x0003ac6c        0x0 /home/bseip/MentorGraphics/Sourcery_CodeBench_Lite_for_ARM_EABI/arm-none-eabi/lib/libstdc++.a(string-inst.o)
                                  0x8 (size before relaxing)
 .ARM.exidx.text._ZNKSs4copyEPcjj
                0x0003ac6c        0x8 /home/bseip/MentorGraphics/Sourcery_CodeBench_Lite_for_ARM_EABI/arm-none-eabi/lib/libstdc++.a(string-inst.o)
 .ARM.exidx.text._ZNSs4swapERSs
                0x0003ac74        0x8 /home/bseip/MentorGraphics/Sourcery_CodeBench_Lite_for_ARM_EABI/arm-none-eabi/lib/libstdc++.a(string-inst.o)
 .ARM.exidx.text._ZNSsaSEOSs
                0x0003ac7c        0x8 /home/bseip/MentorGraphics/Sourcery_CodeBench_Lite_for_ARM_EABI/arm-none-eabi/lib/libstdc++.a(string-inst.o)
 .ARM.exidx.text._ZNSs6assignEOSs
                0x0003ac84        0x0 /home/bseip/MentorGraphics/Sourcery_CodeBench_Lite_for_ARM_EABI/arm-none-eabi/lib/libstdc++.a(string-inst.o)
                                  0x8 (size before relaxing)
 .ARM.exidx.text._ZNKSs5c_strEv
                0x0003ac84        0x8 /home/bseip/MentorGraphics/Sourcery_CodeBench_Lite_for_ARM_EABI/arm-none-eabi/lib/libstdc++.a(string-inst.o)
 .ARM.exidx.text._ZNKSs13get_allocatorEv
                0x0003ac8c        0x0 /home/bseip/MentorGraphics/Sourcery_CodeBench_Lite_for_ARM_EABI/arm-none-eabi/lib/libstdc++.a(string-inst.o)
                                  0x8 (size before relaxing)
 .ARM.exidx.text._ZNKSs4findEPKcjj
                0x0003ac8c        0x0 /home/bseip/MentorGraphics/Sourcery_CodeBench_Lite_for_ARM_EABI/arm-none-eabi/lib/libstdc++.a(string-inst.o)
                                  0x8 (size before relaxing)
 .ARM.exidx.text._ZNKSs4findERKSsj
                0x0003ac8c        0x8 /home/bseip/MentorGraphics/Sourcery_CodeBench_Lite_for_ARM_EABI/arm-none-eabi/lib/libstdc++.a(string-inst.o)
 .ARM.exidx.text._ZNKSs4findEPKcj
                0x0003ac94        0x8 /home/bseip/MentorGraphics/Sourcery_CodeBench_Lite_for_ARM_EABI/arm-none-eabi/lib/libstdc++.a(string-inst.o)
 .ARM.exidx.text._ZNKSs4findEcj
                0x0003ac9c        0x8 /home/bseip/MentorGraphics/Sourcery_CodeBench_Lite_for_ARM_EABI/arm-none-eabi/lib/libstdc++.a(string-inst.o)
 .ARM.exidx.text._ZNKSs5rfindEPKcjj
                0x0003aca4        0x0 /home/bseip/MentorGraphics/Sourcery_CodeBench_Lite_for_ARM_EABI/arm-none-eabi/lib/libstdc++.a(string-inst.o)
                                  0x8 (size before relaxing)
 .ARM.exidx.text._ZNKSs5rfindERKSsj
                0x0003aca4        0x8 /home/bseip/MentorGraphics/Sourcery_CodeBench_Lite_for_ARM_EABI/arm-none-eabi/lib/libstdc++.a(string-inst.o)
 .ARM.exidx.text._ZNKSs5rfindEPKcj
                0x0003acac        0x8 /home/bseip/MentorGraphics/Sourcery_CodeBench_Lite_for_ARM_EABI/arm-none-eabi/lib/libstdc++.a(string-inst.o)
 .ARM.exidx.text._ZNKSs5rfindEcj
                0x0003acb4        0x8 /home/bseip/MentorGraphics/Sourcery_CodeBench_Lite_for_ARM_EABI/arm-none-eabi/lib/libstdc++.a(string-inst.o)
 .ARM.exidx.text._ZNKSs13find_first_ofEPKcjj
                0x0003acbc        0x0 /home/bseip/MentorGraphics/Sourcery_CodeBench_Lite_for_ARM_EABI/arm-none-eabi/lib/libstdc++.a(string-inst.o)
                                  0x8 (size before relaxing)
 .ARM.exidx.text._ZNKSs13find_first_ofERKSsj
                0x0003acbc        0x8 /home/bseip/MentorGraphics/Sourcery_CodeBench_Lite_for_ARM_EABI/arm-none-eabi/lib/libstdc++.a(string-inst.o)
 .ARM.exidx.text._ZNKSs13find_first_ofEPKcj
                0x0003acc4        0x8 /home/bseip/MentorGraphics/Sourcery_CodeBench_Lite_for_ARM_EABI/arm-none-eabi/lib/libstdc++.a(string-inst.o)
 .ARM.exidx.text._ZNKSs13find_first_ofEcj
                0x0003accc        0x8 /home/bseip/MentorGraphics/Sourcery_CodeBench_Lite_for_ARM_EABI/arm-none-eabi/lib/libstdc++.a(string-inst.o)
 .ARM.exidx.text._ZNKSs12find_last_ofEPKcjj
                0x0003acd4        0x0 /home/bseip/MentorGraphics/Sourcery_CodeBench_Lite_for_ARM_EABI/arm-none-eabi/lib/libstdc++.a(string-inst.o)
                                  0x8 (size before relaxing)
 .ARM.exidx.text._ZNKSs12find_last_ofERKSsj
                0x0003acd4        0x8 /home/bseip/MentorGraphics/Sourcery_CodeBench_Lite_for_ARM_EABI/arm-none-eabi/lib/libstdc++.a(string-inst.o)
 .ARM.exidx.text._ZNKSs12find_last_ofEPKcj
                0x0003acdc        0x8 /home/bseip/MentorGraphics/Sourcery_CodeBench_Lite_for_ARM_EABI/arm-none-eabi/lib/libstdc++.a(string-inst.o)
 .ARM.exidx.text._ZNKSs12find_last_ofEcj
                0x0003ace4        0x8 /home/bseip/MentorGraphics/Sourcery_CodeBench_Lite_for_ARM_EABI/arm-none-eabi/lib/libstdc++.a(string-inst.o)
 .ARM.exidx.text._ZNKSs17find_first_not_ofEPKcjj
                0x0003acec        0x0 /home/bseip/MentorGraphics/Sourcery_CodeBench_Lite_for_ARM_EABI/arm-none-eabi/lib/libstdc++.a(string-inst.o)
                                  0x8 (size before relaxing)
 .ARM.exidx.text._ZNKSs17find_first_not_ofERKSsj
                0x0003acec        0x8 /home/bseip/MentorGraphics/Sourcery_CodeBench_Lite_for_ARM_EABI/arm-none-eabi/lib/libstdc++.a(string-inst.o)
 .ARM.exidx.text._ZNKSs17find_first_not_ofEPKcj
                0x0003acf4        0x8 /home/bseip/MentorGraphics/Sourcery_CodeBench_Lite_for_ARM_EABI/arm-none-eabi/lib/libstdc++.a(string-inst.o)
 .ARM.exidx.text._ZNKSs17find_first_not_ofEcj
                0x0003acfc        0x8 /home/bseip/MentorGraphics/Sourcery_CodeBench_Lite_for_ARM_EABI/arm-none-eabi/lib/libstdc++.a(string-inst.o)
 .ARM.exidx.text._ZNKSs16find_last_not_ofEPKcjj
                0x0003ad04        0x0 /home/bseip/MentorGraphics/Sourcery_CodeBench_Lite_for_ARM_EABI/arm-none-eabi/lib/libstdc++.a(string-inst.o)
                                  0x8 (size before relaxing)
 .ARM.exidx.text._ZNKSs16find_last_not_ofERKSsj
                0x0003ad04        0x8 /home/bseip/MentorGraphics/Sourcery_CodeBench_Lite_for_ARM_EABI/arm-none-eabi/lib/libstdc++.a(string-inst.o)
 .ARM.exidx.text._ZNKSs16find_last_not_ofEPKcj
                0x0003ad0c        0x8 /home/bseip/MentorGraphics/Sourcery_CodeBench_Lite_for_ARM_EABI/arm-none-eabi/lib/libstdc++.a(string-inst.o)
 .ARM.exidx.text._ZNKSs16find_last_not_ofEcj
                0x0003ad14        0x8 /home/bseip/MentorGraphics/Sourcery_CodeBench_Lite_for_ARM_EABI/arm-none-eabi/lib/libstdc++.a(string-inst.o)
 .ARM.exidx.text._ZNKSs7compareERKSs
                0x0003ad1c        0x0 /home/bseip/MentorGraphics/Sourcery_CodeBench_Lite_for_ARM_EABI/arm-none-eabi/lib/libstdc++.a(string-inst.o)
                                  0x8 (size before relaxing)
 .ARM.exidx.text._ZNKSs7compareEjjRKSs
                0x0003ad1c        0x8 /home/bseip/MentorGraphics/Sourcery_CodeBench_Lite_for_ARM_EABI/arm-none-eabi/lib/libstdc++.a(string-inst.o)
 .ARM.exidx.text._ZNKSs7compareEjjRKSsjj
                0x0003ad24        0x0 /home/bseip/MentorGraphics/Sourcery_CodeBench_Lite_for_ARM_EABI/arm-none-eabi/lib/libstdc++.a(string-inst.o)
                                  0x8 (size before relaxing)
 .ARM.exidx.text._ZNKSs7compareEPKc
                0x0003ad24        0x8 /home/bseip/MentorGraphics/Sourcery_CodeBench_Lite_for_ARM_EABI/arm-none-eabi/lib/libstdc++.a(string-inst.o)
 .ARM.exidx.text._ZNKSs7compareEjjPKc
                0x0003ad2c        0x8 /home/bseip/MentorGraphics/Sourcery_CodeBench_Lite_for_ARM_EABI/arm-none-eabi/lib/libstdc++.a(string-inst.o)
 .ARM.exidx.text._ZNKSs7compareEjjPKcj
                0x0003ad34        0x8 /home/bseip/MentorGraphics/Sourcery_CodeBench_Lite_for_ARM_EABI/arm-none-eabi/lib/libstdc++.a(string-inst.o)
 .ARM.exidx.text._ZNSs12_Alloc_hiderC2EPcRKSaIcE
                0x0003ad3c        0x8 /home/bseip/MentorGraphics/Sourcery_CodeBench_Lite_for_ARM_EABI/arm-none-eabi/lib/libstdc++.a(string-inst.o)
 .ARM.exidx.text._ZNSs4_Rep12_S_empty_repEv
                0x0003ad44        0x0 /home/bseip/MentorGraphics/Sourcery_CodeBench_Lite_for_ARM_EABI/arm-none-eabi/lib/libstdc++.a(string-inst.o)
                                  0x8 (size before relaxing)
 .ARM.exidx.text._ZNKSs4_Rep12_M_is_leakedEv
                0x0003ad44        0x0 /home/bseip/MentorGraphics/Sourcery_CodeBench_Lite_for_ARM_EABI/arm-none-eabi/lib/libstdc++.a(string-inst.o)
                                  0x8 (size before relaxing)
 .ARM.exidx.text._ZNKSs4_Rep12_M_is_sharedEv
                0x0003ad44        0x0 /home/bseip/MentorGraphics/Sourcery_CodeBench_Lite_for_ARM_EABI/arm-none-eabi/lib/libstdc++.a(string-inst.o)
                                  0x8 (size before relaxing)
 .ARM.exidx.text._ZNSs4_Rep13_M_set_leakedEv
                0x0003ad44        0x0 /home/bseip/MentorGraphics/Sourcery_CodeBench_Lite_for_ARM_EABI/arm-none-eabi/lib/libstdc++.a(string-inst.o)
                                  0x8 (size before relaxing)
 .ARM.exidx.text._ZNSs4_Rep15_M_set_sharableEv
                0x0003ad44        0x0 /home/bseip/MentorGraphics/Sourcery_CodeBench_Lite_for_ARM_EABI/arm-none-eabi/lib/libstdc++.a(string-inst.o)
                                  0x8 (size before relaxing)
 .ARM.exidx.text._ZNSs4_Rep26_M_set_length_and_sharableEj
                0x0003ad44        0x0 /home/bseip/MentorGraphics/Sourcery_CodeBench_Lite_for_ARM_EABI/arm-none-eabi/lib/libstdc++.a(string-inst.o)
                                  0x8 (size before relaxing)
 .ARM.exidx.text._ZNSs4_Rep10_M_refdataEv
                0x0003ad44        0x0 /home/bseip/MentorGraphics/Sourcery_CodeBench_Lite_for_ARM_EABI/arm-none-eabi/lib/libstdc++.a(string-inst.o)
                                  0x8 (size before relaxing)
 .ARM.exidx.text._ZNSs4_Rep9_S_createEjjRKSaIcE
                0x0003ad44        0x8 /home/bseip/MentorGraphics/Sourcery_CodeBench_Lite_for_ARM_EABI/arm-none-eabi/lib/libstdc++.a(string-inst.o)
 .ARM.exidx.text._ZNSs12_S_constructEjcRKSaIcE
                0x0003ad4c        0x8 /home/bseip/MentorGraphics/Sourcery_CodeBench_Lite_for_ARM_EABI/arm-none-eabi/lib/libstdc++.a(string-inst.o)
 .ARM.exidx.text._ZNSsC2ERKSaIcE
                0x0003ad54        0x8 /home/bseip/MentorGraphics/Sourcery_CodeBench_Lite_for_ARM_EABI/arm-none-eabi/lib/libstdc++.a(string-inst.o)
 .ARM.exidx.text._ZNSsC2EjcRKSaIcE
                0x0003ad5c        0x0 /home/bseip/MentorGraphics/Sourcery_CodeBench_Lite_for_ARM_EABI/arm-none-eabi/lib/libstdc++.a(string-inst.o)
                                  0x8 (size before relaxing)
 .ARM.exidx.text._ZNSs18_S_construct_aux_2EjcRKSaIcE
                0x0003ad5c        0x8 /home/bseip/MentorGraphics/Sourcery_CodeBench_Lite_for_ARM_EABI/arm-none-eabi/lib/libstdc++.a(string-inst.o)
 .ARM.exidx.text._ZNSs4_Rep10_M_destroyERKSaIcE
                0x0003ad64        0x8 /home/bseip/MentorGraphics/Sourcery_CodeBench_Lite_for_ARM_EABI/arm-none-eabi/lib/libstdc++.a(string-inst.o)
 .ARM.exidx.text.unlikely._ZNSs4_Rep10_M_disposeERKSaIcE.part.11
                0x0003ad6c        0x0 /home/bseip/MentorGraphics/Sourcery_CodeBench_Lite_for_ARM_EABI/arm-none-eabi/lib/libstdc++.a(string-inst.o)
                                  0x8 (size before relaxing)
 .ARM.exidx.text._ZNSs4_Rep10_M_disposeERKSaIcE
                0x0003ad6c        0x0 /home/bseip/MentorGraphics/Sourcery_CodeBench_Lite_for_ARM_EABI/arm-none-eabi/lib/libstdc++.a(string-inst.o)
                                  0x8 (size before relaxing)
 .ARM.exidx.text._ZNSsD2Ev
                0x0003ad6c        0x0 /home/bseip/MentorGraphics/Sourcery_CodeBench_Lite_for_ARM_EABI/arm-none-eabi/lib/libstdc++.a(string-inst.o)
                                  0x8 (size before relaxing)
 .ARM.exidx.text._ZNSs9_M_mutateEjjj
                0x0003ad6c        0x8 /home/bseip/MentorGraphics/Sourcery_CodeBench_Lite_for_ARM_EABI/arm-none-eabi/lib/libstdc++.a(string-inst.o)
 .ARM.exidx.text._ZNSs12_M_leak_hardEv
                0x0003ad74        0x8 /home/bseip/MentorGraphics/Sourcery_CodeBench_Lite_for_ARM_EABI/arm-none-eabi/lib/libstdc++.a(string-inst.o)
 .ARM.exidx.text._ZNSs7_M_leakEv
                0x0003ad7c        0x8 /home/bseip/MentorGraphics/Sourcery_CodeBench_Lite_for_ARM_EABI/arm-none-eabi/lib/libstdc++.a(string-inst.o)
 .ARM.exidx.text._ZNSs5beginEv
                0x0003ad84        0x8 /home/bseip/MentorGraphics/Sourcery_CodeBench_Lite_for_ARM_EABI/arm-none-eabi/lib/libstdc++.a(string-inst.o)
 .ARM.exidx.text._ZNSs4rendEv
                0x0003ad8c        0x8 /home/bseip/MentorGraphics/Sourcery_CodeBench_Lite_for_ARM_EABI/arm-none-eabi/lib/libstdc++.a(string-inst.o)
 .ARM.exidx.text._ZNSs3endEv
                0x0003ad94        0x8 /home/bseip/MentorGraphics/Sourcery_CodeBench_Lite_for_ARM_EABI/arm-none-eabi/lib/libstdc++.a(string-inst.o)
 .ARM.exidx.text._ZNSsixEj
                0x0003ad9c        0x8 /home/bseip/MentorGraphics/Sourcery_CodeBench_Lite_for_ARM_EABI/arm-none-eabi/lib/libstdc++.a(string-inst.o)
 .ARM.exidx.text._ZNSs5frontEv
                0x0003ada4        0x8 /home/bseip/MentorGraphics/Sourcery_CodeBench_Lite_for_ARM_EABI/arm-none-eabi/lib/libstdc++.a(string-inst.o)
 .ARM.exidx.text._ZNSs4backEv
                0x0003adac        0x8 /home/bseip/MentorGraphics/Sourcery_CodeBench_Lite_for_ARM_EABI/arm-none-eabi/lib/libstdc++.a(string-inst.o)
 .ARM.exidx.text._ZNSs2atEj
                0x0003adb4        0x0 /home/bseip/MentorGraphics/Sourcery_CodeBench_Lite_for_ARM_EABI/arm-none-eabi/lib/libstdc++.a(string-inst.o)
                                  0x8 (size before relaxing)
 .ARM.exidx.text._ZNSs6rbeginEv
                0x0003adb4        0x8 /home/bseip/MentorGraphics/Sourcery_CodeBench_Lite_for_ARM_EABI/arm-none-eabi/lib/libstdc++.a(string-inst.o)
 .ARM.exidx.text._ZNSs5clearEv
                0x0003adbc        0x8 /home/bseip/MentorGraphics/Sourcery_CodeBench_Lite_for_ARM_EABI/arm-none-eabi/lib/libstdc++.a(string-inst.o)
 .ARM.exidx.text._ZNSs5eraseEjj
                0x0003adc4        0x8 /home/bseip/MentorGraphics/Sourcery_CodeBench_Lite_for_ARM_EABI/arm-none-eabi/lib/libstdc++.a(string-inst.o)
 .ARM.exidx.text._ZNSs5eraseEN9__gnu_cxx17__normal_iteratorIPcSsEE
                0x0003adcc        0x8 /home/bseip/MentorGraphics/Sourcery_CodeBench_Lite_for_ARM_EABI/arm-none-eabi/lib/libstdc++.a(string-inst.o)
 .ARM.exidx.text._ZNSs5eraseEN9__gnu_cxx17__normal_iteratorIPcSsEES2_
                0x0003add4        0x0 /home/bseip/MentorGraphics/Sourcery_CodeBench_Lite_for_ARM_EABI/arm-none-eabi/lib/libstdc++.a(string-inst.o)
                                  0x8 (size before relaxing)
 .ARM.exidx.text._ZNSs14_M_replace_auxEjjjc
                0x0003add4        0x8 /home/bseip/MentorGraphics/Sourcery_CodeBench_Lite_for_ARM_EABI/arm-none-eabi/lib/libstdc++.a(string-inst.o)
 .ARM.exidx.text._ZNSs6assignEjc
                0x0003addc        0x8 /home/bseip/MentorGraphics/Sourcery_CodeBench_Lite_for_ARM_EABI/arm-none-eabi/lib/libstdc++.a(string-inst.o)
 .ARM.exidx.text._ZNSsaSEc
                0x0003ade4        0x8 /home/bseip/MentorGraphics/Sourcery_CodeBench_Lite_for_ARM_EABI/arm-none-eabi/lib/libstdc++.a(string-inst.o)
 .ARM.exidx.text._ZNSs6insertEjjc
                0x0003adec        0x8 /home/bseip/MentorGraphics/Sourcery_CodeBench_Lite_for_ARM_EABI/arm-none-eabi/lib/libstdc++.a(string-inst.o)
 .ARM.exidx.text._ZNSs6insertEN9__gnu_cxx17__normal_iteratorIPcSsEEc
                0x0003adf4        0x8 /home/bseip/MentorGraphics/Sourcery_CodeBench_Lite_for_ARM_EABI/arm-none-eabi/lib/libstdc++.a(string-inst.o)
 .ARM.exidx.text._ZNSs7replaceEjjjc
                0x0003adfc        0x8 /home/bseip/MentorGraphics/Sourcery_CodeBench_Lite_for_ARM_EABI/arm-none-eabi/lib/libstdc++.a(string-inst.o)
 .ARM.exidx.text._ZNSs7replaceEN9__gnu_cxx17__normal_iteratorIPcSsEES2_jc
                0x0003ae04        0x8 /home/bseip/MentorGraphics/Sourcery_CodeBench_Lite_for_ARM_EABI/arm-none-eabi/lib/libstdc++.a(string-inst.o)
 .ARM.exidx.text._ZNSs6insertEN9__gnu_cxx17__normal_iteratorIPcSsEEjc
                0x0003ae0c        0x0 /home/bseip/MentorGraphics/Sourcery_CodeBench_Lite_for_ARM_EABI/arm-none-eabi/lib/libstdc++.a(string-inst.o)
                                  0x8 (size before relaxing)
 .ARM.exidx.text._ZNSs15_M_replace_safeEjjPKcj
                0x0003ae0c        0x8 /home/bseip/MentorGraphics/Sourcery_CodeBench_Lite_for_ARM_EABI/arm-none-eabi/lib/libstdc++.a(string-inst.o)
 .ARM.exidx.text._ZNSs6assignEPKcj
                0x0003ae14        0x8 /home/bseip/MentorGraphics/Sourcery_CodeBench_Lite_for_ARM_EABI/arm-none-eabi/lib/libstdc++.a(string-inst.o)
 .ARM.exidx.text._ZNSsaSESt16initializer_listIcE
                0x0003ae1c        0x8 /home/bseip/MentorGraphics/Sourcery_CodeBench_Lite_for_ARM_EABI/arm-none-eabi/lib/libstdc++.a(string-inst.o)
 .ARM.exidx.text._ZNSs6assignERKSsjj
                0x0003ae24        0x8 /home/bseip/MentorGraphics/Sourcery_CodeBench_Lite_for_ARM_EABI/arm-none-eabi/lib/libstdc++.a(string-inst.o)
 .ARM.exidx.text._ZNSs6assignEPKc
                0x0003ae2c        0x8 /home/bseip/MentorGraphics/Sourcery_CodeBench_Lite_for_ARM_EABI/arm-none-eabi/lib/libstdc++.a(string-inst.o)
 .ARM.exidx.text._ZNSs6assignESt16initializer_listIcE
                0x0003ae34        0x8 /home/bseip/MentorGraphics/Sourcery_CodeBench_Lite_for_ARM_EABI/arm-none-eabi/lib/libstdc++.a(string-inst.o)
 .ARM.exidx.text._ZNSsaSEPKc
                0x0003ae3c        0x8 /home/bseip/MentorGraphics/Sourcery_CodeBench_Lite_for_ARM_EABI/arm-none-eabi/lib/libstdc++.a(string-inst.o)
 .ARM.exidx.text._ZNSs6insertEjPKcj
                0x0003ae44        0x8 /home/bseip/MentorGraphics/Sourcery_CodeBench_Lite_for_ARM_EABI/arm-none-eabi/lib/libstdc++.a(string-inst.o)
 .ARM.exidx.text._ZNSs6insertEN9__gnu_cxx17__normal_iteratorIPcSsEESt16initializer_listIcE
                0x0003ae4c        0x8 /home/bseip/MentorGraphics/Sourcery_CodeBench_Lite_for_ARM_EABI/arm-none-eabi/lib/libstdc++.a(string-inst.o)
 .ARM.exidx.text._ZNSs6insertEjRKSsjj
                0x0003ae54        0x8 /home/bseip/MentorGraphics/Sourcery_CodeBench_Lite_for_ARM_EABI/arm-none-eabi/lib/libstdc++.a(string-inst.o)
 .ARM.exidx.text._ZNSs6insertEjPKc
                0x0003ae5c        0x8 /home/bseip/MentorGraphics/Sourcery_CodeBench_Lite_for_ARM_EABI/arm-none-eabi/lib/libstdc++.a(string-inst.o)
 .ARM.exidx.text._ZNSs6insertEjRKSs
                0x0003ae64        0x8 /home/bseip/MentorGraphics/Sourcery_CodeBench_Lite_for_ARM_EABI/arm-none-eabi/lib/libstdc++.a(string-inst.o)
 .ARM.exidx.text._ZNSs8pop_backEv
                0x0003ae6c        0x8 /home/bseip/MentorGraphics/Sourcery_CodeBench_Lite_for_ARM_EABI/arm-none-eabi/lib/libstdc++.a(string-inst.o)
 .ARM.exidx.text._ZNSs4_Rep10_M_refcopyEv
                0x0003ae74        0x8 /home/bseip/MentorGraphics/Sourcery_CodeBench_Lite_for_ARM_EABI/arm-none-eabi/lib/libstdc++.a(string-inst.o)
 .ARM.exidx.text._ZNSs4_Rep8_M_cloneERKSaIcEj
                0x0003ae7c        0x8 /home/bseip/MentorGraphics/Sourcery_CodeBench_Lite_for_ARM_EABI/arm-none-eabi/lib/libstdc++.a(string-inst.o)
 .ARM.exidx.text._ZNSs7reserveEj
                0x0003ae84        0x8 /home/bseip/MentorGraphics/Sourcery_CodeBench_Lite_for_ARM_EABI/arm-none-eabi/lib/libstdc++.a(string-inst.o)
 .ARM.exidx.text._ZNSs13shrink_to_fitEv
                0x0003ae8c        0x8 /home/bseip/MentorGraphics/Sourcery_CodeBench_Lite_for_ARM_EABI/arm-none-eabi/lib/libstdc++.a(string-inst.o)
 .ARM.exidx.text._ZNSs6appendERKSs
                0x0003ae94        0x8 /home/bseip/MentorGraphics/Sourcery_CodeBench_Lite_for_ARM_EABI/arm-none-eabi/lib/libstdc++.a(string-inst.o)
 .ARM.exidx.text._ZNSspLERKSs
                0x0003ae9c        0x8 /home/bseip/MentorGraphics/Sourcery_CodeBench_Lite_for_ARM_EABI/arm-none-eabi/lib/libstdc++.a(string-inst.o)
 .ARM.exidx.text._ZNSs6appendERKSsjj
                0x0003aea4        0x8 /home/bseip/MentorGraphics/Sourcery_CodeBench_Lite_for_ARM_EABI/arm-none-eabi/lib/libstdc++.a(string-inst.o)
 .ARM.exidx.text._ZNSs6appendEPKcj
                0x0003aeac        0x8 /home/bseip/MentorGraphics/Sourcery_CodeBench_Lite_for_ARM_EABI/arm-none-eabi/lib/libstdc++.a(string-inst.o)
 .ARM.exidx.text._ZNSspLESt16initializer_listIcE
                0x0003aeb4        0x8 /home/bseip/MentorGraphics/Sourcery_CodeBench_Lite_for_ARM_EABI/arm-none-eabi/lib/libstdc++.a(string-inst.o)
 .ARM.exidx.text._ZNSs6appendEPKc
                0x0003aebc        0x8 /home/bseip/MentorGraphics/Sourcery_CodeBench_Lite_for_ARM_EABI/arm-none-eabi/lib/libstdc++.a(string-inst.o)
 .ARM.exidx.text._ZNSs6appendESt16initializer_listIcE
                0x0003aec4        0x8 /home/bseip/MentorGraphics/Sourcery_CodeBench_Lite_for_ARM_EABI/arm-none-eabi/lib/libstdc++.a(string-inst.o)
 .ARM.exidx.text._ZNSspLEPKc
                0x0003aecc        0x8 /home/bseip/MentorGraphics/Sourcery_CodeBench_Lite_for_ARM_EABI/arm-none-eabi/lib/libstdc++.a(string-inst.o)
 .ARM.exidx.text._ZNSs6appendEjc
                0x0003aed4        0x8 /home/bseip/MentorGraphics/Sourcery_CodeBench_Lite_for_ARM_EABI/arm-none-eabi/lib/libstdc++.a(string-inst.o)
 .ARM.exidx.text._ZNSs6resizeEjc
                0x0003aedc        0x8 /home/bseip/MentorGraphics/Sourcery_CodeBench_Lite_for_ARM_EABI/arm-none-eabi/lib/libstdc++.a(string-inst.o)
 .ARM.exidx.text._ZNSs6resizeEj
                0x0003aee4        0x8 /home/bseip/MentorGraphics/Sourcery_CodeBench_Lite_for_ARM_EABI/arm-none-eabi/lib/libstdc++.a(string-inst.o)
 .ARM.exidx.text._ZNSs9push_backEc
                0x0003aeec        0x8 /home/bseip/MentorGraphics/Sourcery_CodeBench_Lite_for_ARM_EABI/arm-none-eabi/lib/libstdc++.a(string-inst.o)
 .ARM.exidx.text._ZNSspLEc
                0x0003aef4        0x0 /home/bseip/MentorGraphics/Sourcery_CodeBench_Lite_for_ARM_EABI/arm-none-eabi/lib/libstdc++.a(string-inst.o)
                                  0x8 (size before relaxing)
 .ARM.exidx.text._ZNSs4_Rep7_M_grabERKSaIcES2_
                0x0003aef4        0x8 /home/bseip/MentorGraphics/Sourcery_CodeBench_Lite_for_ARM_EABI/arm-none-eabi/lib/libstdc++.a(string-inst.o)
 .ARM.exidx.text._ZNSsC2ERKSs
                0x0003aefc        0x8 /home/bseip/MentorGraphics/Sourcery_CodeBench_Lite_for_ARM_EABI/arm-none-eabi/lib/libstdc++.a(string-inst.o)
 .ARM.exidx.text._ZNSs6assignERKSs
                0x0003af04        0x8 /home/bseip/MentorGraphics/Sourcery_CodeBench_Lite_for_ARM_EABI/arm-none-eabi/lib/libstdc++.a(string-inst.o)
 .ARM.exidx.text._ZNSsaSERKSs
                0x0003af0c        0x8 /home/bseip/MentorGraphics/Sourcery_CodeBench_Lite_for_ARM_EABI/arm-none-eabi/lib/libstdc++.a(string-inst.o)
 .ARM.exidx.text._ZStplIcSt11char_traitsIcESaIcEESbIT_T0_T1_EPKS3_RKS6_
                0x0003af14        0x8 /home/bseip/MentorGraphics/Sourcery_CodeBench_Lite_for_ARM_EABI/arm-none-eabi/lib/libstdc++.a(string-inst.o)
 .ARM.exidx.text._ZStplIcSt11char_traitsIcESaIcEESbIT_T0_T1_ES3_RKS6_
                0x0003af1c        0x8 /home/bseip/MentorGraphics/Sourcery_CodeBench_Lite_for_ARM_EABI/arm-none-eabi/lib/libstdc++.a(string-inst.o)
 .ARM.exidx.text._ZStplIcSt11char_traitsIcESaIcEESbIT_T0_T1_ERKS6_S8_
                0x0003af24        0x8 /home/bseip/MentorGraphics/Sourcery_CodeBench_Lite_for_ARM_EABI/arm-none-eabi/lib/libstdc++.a(string-inst.o)
 .ARM.exidx.text._ZNSs12_S_constructIN9__gnu_cxx17__normal_iteratorIPcSsEEEES2_T_S4_RKSaIcESt20forward_iterator_tag
                0x0003af2c        0x8 /home/bseip/MentorGraphics/Sourcery_CodeBench_Lite_for_ARM_EABI/arm-none-eabi/lib/libstdc++.a(string-inst.o)
 .ARM.exidx.text._ZNSsC2IN9__gnu_cxx17__normal_iteratorIPcSsEEEET_S4_RKSaIcE
                0x0003af34        0x8 /home/bseip/MentorGraphics/Sourcery_CodeBench_Lite_for_ARM_EABI/arm-none-eabi/lib/libstdc++.a(string-inst.o)
 .ARM.exidx.text._ZNSs12_S_constructIPcEES0_T_S1_RKSaIcESt20forward_iterator_tag
                0x0003af3c        0x8 /home/bseip/MentorGraphics/Sourcery_CodeBench_Lite_for_ARM_EABI/arm-none-eabi/lib/libstdc++.a(string-inst.o)
 .ARM.exidx.text._ZNSsC2ERKSsjj
                0x0003af44        0x8 /home/bseip/MentorGraphics/Sourcery_CodeBench_Lite_for_ARM_EABI/arm-none-eabi/lib/libstdc++.a(string-inst.o)
 .ARM.exidx.text._ZNKSs6substrEjj
                0x0003af4c        0x8 /home/bseip/MentorGraphics/Sourcery_CodeBench_Lite_for_ARM_EABI/arm-none-eabi/lib/libstdc++.a(string-inst.o)
 .ARM.exidx.text._ZNSsC2ERKSsjjRKSaIcE
                0x0003af54        0x0 /home/bseip/MentorGraphics/Sourcery_CodeBench_Lite_for_ARM_EABI/arm-none-eabi/lib/libstdc++.a(string-inst.o)
                                  0x8 (size before relaxing)
 .ARM.exidx.text._ZNSsC2IPcEET_S1_RKSaIcE
                0x0003af54        0x0 /home/bseip/MentorGraphics/Sourcery_CodeBench_Lite_for_ARM_EABI/arm-none-eabi/lib/libstdc++.a(string-inst.o)
                                  0x8 (size before relaxing)
 .ARM.exidx.text._ZNSs12_S_constructIPKcEEPcT_S3_RKSaIcESt20forward_iterator_tag
                0x0003af54        0x8 /home/bseip/MentorGraphics/Sourcery_CodeBench_Lite_for_ARM_EABI/arm-none-eabi/lib/libstdc++.a(string-inst.o)
 .ARM.exidx.text._ZNSsC2EPKcjRKSaIcE
                0x0003af5c        0x8 /home/bseip/MentorGraphics/Sourcery_CodeBench_Lite_for_ARM_EABI/arm-none-eabi/lib/libstdc++.a(string-inst.o)
 .ARM.exidx.text._ZNSs7replaceEjjPKcj
                0x0003af64        0x8 /home/bseip/MentorGraphics/Sourcery_CodeBench_Lite_for_ARM_EABI/arm-none-eabi/lib/libstdc++.a(string-inst.o)
 .ARM.exidx.text._ZNSs7replaceEjjRKSs
                0x0003af6c        0x8 /home/bseip/MentorGraphics/Sourcery_CodeBench_Lite_for_ARM_EABI/arm-none-eabi/lib/libstdc++.a(string-inst.o)
 .ARM.exidx.text._ZNSs7replaceEjjRKSsjj
                0x0003af74        0x8 /home/bseip/MentorGraphics/Sourcery_CodeBench_Lite_for_ARM_EABI/arm-none-eabi/lib/libstdc++.a(string-inst.o)
 .ARM.exidx.text._ZNSs7replaceEjjPKc
                0x0003af7c        0x8 /home/bseip/MentorGraphics/Sourcery_CodeBench_Lite_for_ARM_EABI/arm-none-eabi/lib/libstdc++.a(string-inst.o)
 .ARM.exidx.text._ZNSs7replaceEN9__gnu_cxx17__normal_iteratorIPcSsEES2_PKcj
                0x0003af84        0x8 /home/bseip/MentorGraphics/Sourcery_CodeBench_Lite_for_ARM_EABI/arm-none-eabi/lib/libstdc++.a(string-inst.o)
 .ARM.exidx.text._ZNSs7replaceEN9__gnu_cxx17__normal_iteratorIPcSsEES2_RKSs
                0x0003af8c        0x0 /home/bseip/MentorGraphics/Sourcery_CodeBench_Lite_for_ARM_EABI/arm-none-eabi/lib/libstdc++.a(string-inst.o)
                                  0x8 (size before relaxing)
 .ARM.exidx.text._ZNSs7replaceEN9__gnu_cxx17__normal_iteratorIPcSsEES2_PKc
                0x0003af8c        0x8 /home/bseip/MentorGraphics/Sourcery_CodeBench_Lite_for_ARM_EABI/arm-none-eabi/lib/libstdc++.a(string-inst.o)
 .ARM.exidx.text._ZNSs7replaceEN9__gnu_cxx17__normal_iteratorIPcSsEES2_S1_S1_
                0x0003af94        0x8 /home/bseip/MentorGraphics/Sourcery_CodeBench_Lite_for_ARM_EABI/arm-none-eabi/lib/libstdc++.a(string-inst.o)
 .ARM.exidx.text._ZNSs7replaceEN9__gnu_cxx17__normal_iteratorIPcSsEES2_PKcS4_
                0x0003af9c        0x0 /home/bseip/MentorGraphics/Sourcery_CodeBench_Lite_for_ARM_EABI/arm-none-eabi/lib/libstdc++.a(string-inst.o)
                                  0x8 (size before relaxing)
 .ARM.exidx.text._ZNSs7replaceEN9__gnu_cxx17__normal_iteratorIPcSsEES2_St16initializer_listIcE
                0x0003af9c        0x8 /home/bseip/MentorGraphics/Sourcery_CodeBench_Lite_for_ARM_EABI/arm-none-eabi/lib/libstdc++.a(string-inst.o)
 .ARM.exidx.text._ZNSs7replaceEN9__gnu_cxx17__normal_iteratorIPcSsEES2_S2_S2_
                0x0003afa4        0x8 /home/bseip/MentorGraphics/Sourcery_CodeBench_Lite_for_ARM_EABI/arm-none-eabi/lib/libstdc++.a(string-inst.o)
 .ARM.exidx.text._ZNSs7replaceEN9__gnu_cxx17__normal_iteratorIPcSsEES2_NS0_IPKcSsEES5_
                0x0003afac        0x0 /home/bseip/MentorGraphics/Sourcery_CodeBench_Lite_for_ARM_EABI/arm-none-eabi/lib/libstdc++.a(string-inst.o)
                                  0x8 (size before relaxing)
 .ARM.exidx.text._ZNSsC2EPKcRKSaIcE
                0x0003afac        0x8 /home/bseip/MentorGraphics/Sourcery_CodeBench_Lite_for_ARM_EABI/arm-none-eabi/lib/libstdc++.a(string-inst.o)
 .ARM.exidx.text._ZNSsC2ESt16initializer_listIcERKSaIcE
                0x0003afb4        0x8 /home/bseip/MentorGraphics/Sourcery_CodeBench_Lite_for_ARM_EABI/arm-none-eabi/lib/libstdc++.a(string-inst.o)
 .ARM.exidx.text._ZNSsC2IPKcEET_S2_RKSaIcE
                0x0003afbc        0x8 /home/bseip/MentorGraphics/Sourcery_CodeBench_Lite_for_ARM_EABI/arm-none-eabi/lib/libstdc++.a(string-inst.o)
 .ARM.exidx.text._ZN9__gnu_cxxeqIPcSsEEbRKNS_17__normal_iteratorIT_T0_EES7_
                0x0003afc4        0x8 /home/bseip/MentorGraphics/Sourcery_CodeBench_Lite_for_ARM_EABI/arm-none-eabi/lib/libstdc++.a(string-inst.o)
 .ARM.exidx.text._ZN9__gnu_cxxeqIPKcSsEEbRKNS_17__normal_iteratorIT_T0_EES8_
                0x0003afcc        0x0 /home/bseip/MentorGraphics/Sourcery_CodeBench_Lite_for_ARM_EABI/arm-none-eabi/lib/libstdc++.a(string-inst.o)
                                  0x8 (size before relaxing)
 .ARM.exidx.text._ZNK12_GLOBAL__N_121future_error_category4nameEv
                0x0003afcc        0x0 /home/bseip/MentorGraphics/Sourcery_CodeBench_Lite_for_ARM_EABI/arm-none-eabi/lib/libstdc++.a(future.o)
                                  0x8 (size before relaxing)
 .ARM.exidx.text._ZN12_GLOBAL__N_121future_error_categoryD2Ev
                0x0003afcc        0x0 /home/bseip/MentorGraphics/Sourcery_CodeBench_Lite_for_ARM_EABI/arm-none-eabi/lib/libstdc++.a(future.o)
                                  0x8 (size before relaxing)
 .ARM.exidx.text._ZN12_GLOBAL__N_121future_error_categoryD0Ev
                0x0003afcc        0x0 /home/bseip/MentorGraphics/Sourcery_CodeBench_Lite_for_ARM_EABI/arm-none-eabi/lib/libstdc++.a(future.o)
                                  0x8 (size before relaxing)
 .ARM.exidx.text._ZNSt12future_errorD2Ev
                0x0003afcc        0x0 /home/bseip/MentorGraphics/Sourcery_CodeBench_Lite_for_ARM_EABI/arm-none-eabi/lib/libstdc++.a(future.o)
                                  0x8 (size before relaxing)
 .ARM.exidx.text._ZNSt12future_errorD0Ev
                0x0003afcc        0x0 /home/bseip/MentorGraphics/Sourcery_CodeBench_Lite_for_ARM_EABI/arm-none-eabi/lib/libstdc++.a(future.o)
                                  0x8 (size before relaxing)
 .ARM.exidx.text._ZNKSt12future_error4whatEv
                0x0003afcc        0x8 /home/bseip/MentorGraphics/Sourcery_CodeBench_Lite_for_ARM_EABI/arm-none-eabi/lib/libstdc++.a(future.o)
 .ARM.exidx.text._ZNK12_GLOBAL__N_121future_error_category7messageEi
                0x0003afd4        0x8 /home/bseip/MentorGraphics/Sourcery_CodeBench_Lite_for_ARM_EABI/arm-none-eabi/lib/libstdc++.a(future.o)
 .ARM.exidx.text._ZSt15future_categoryv
                0x0003afdc        0x8 /home/bseip/MentorGraphics/Sourcery_CodeBench_Lite_for_ARM_EABI/arm-none-eabi/lib/libstdc++.a(future.o)
 .ARM.exidx.text._ZNKSt17bad_function_call4whatEv
                0x0003afe4        0x0 /home/bseip/MentorGraphics/Sourcery_CodeBench_Lite_for_ARM_EABI/arm-none-eabi/lib/libstdc++.a(functional.o)
                                  0x8 (size before relaxing)
 .ARM.exidx.text._ZNSt17bad_function_callD2Ev
                0x0003afe4        0x0 /home/bseip/MentorGraphics/Sourcery_CodeBench_Lite_for_ARM_EABI/arm-none-eabi/lib/libstdc++.a(functional.o)
                                  0x8 (size before relaxing)
 .ARM.exidx.text._ZNSt17bad_function_callD0Ev
                0x0003afe4        0x0 /home/bseip/MentorGraphics/Sourcery_CodeBench_Lite_for_ARM_EABI/arm-none-eabi/lib/libstdc++.a(functional.o)
                                  0x8 (size before relaxing)
 .ARM.exidx.text._ZNSt11regex_errorD2Ev
                0x0003afe4        0x0 /home/bseip/MentorGraphics/Sourcery_CodeBench_Lite_for_ARM_EABI/arm-none-eabi/lib/libstdc++.a(regex.o)
                                  0x8 (size before relaxing)
 .ARM.exidx.text._ZNSt11regex_errorD0Ev
                0x0003afe4        0x0 /home/bseip/MentorGraphics/Sourcery_CodeBench_Lite_for_ARM_EABI/arm-none-eabi/lib/libstdc++.a(regex.o)
                                  0x8 (size before relaxing)
 .ARM.exidx.text._ZNSt11regex_errorC2ENSt15regex_constants10error_typeE
                0x0003afe4        0x8 /home/bseip/MentorGraphics/Sourcery_CodeBench_Lite_for_ARM_EABI/arm-none-eabi/lib/libstdc++.a(regex.o)
 .ARM.exidx.text._ZNKSt8bad_cast4whatEv
                0x0003afec        0x8 /home/bseip/MentorGraphics/Sourcery_CodeBench_Lite_for_ARM_EABI/arm-none-eabi/lib/libstdc++.a(bad_cast.o)
 .ARM.exidx.text._ZNSt8bad_castD2Ev
                0x0003aff4        0x0 /home/bseip/MentorGraphics/Sourcery_CodeBench_Lite_for_ARM_EABI/arm-none-eabi/lib/libstdc++.a(bad_cast.o)
                                  0x8 (size before relaxing)
 .ARM.exidx.text._ZNSt8bad_castD0Ev
                0x0003aff4        0x0 /home/bseip/MentorGraphics/Sourcery_CodeBench_Lite_for_ARM_EABI/arm-none-eabi/lib/libstdc++.a(bad_cast.o)
                                  0x8 (size before relaxing)
 .ARM.exidx.text._ZNKSt10bad_typeid4whatEv
                0x0003aff4        0x0 /home/bseip/MentorGraphics/Sourcery_CodeBench_Lite_for_ARM_EABI/arm-none-eabi/lib/libstdc++.a(bad_typeid.o)
                                  0x8 (size before relaxing)
 .ARM.exidx.text._ZNSt10bad_typeidD2Ev
                0x0003aff4        0x0 /home/bseip/MentorGraphics/Sourcery_CodeBench_Lite_for_ARM_EABI/arm-none-eabi/lib/libstdc++.a(bad_typeid.o)
                                  0x8 (size before relaxing)
 .ARM.exidx.text._ZNSt10bad_typeidD0Ev
                0x0003aff4        0x0 /home/bseip/MentorGraphics/Sourcery_CodeBench_Lite_for_ARM_EABI/arm-none-eabi/lib/libstdc++.a(bad_typeid.o)
                                  0x8 (size before relaxing)
 .ARM.exidx.text.__cxa_guard_acquire
                0x0003aff4        0x8 /home/bseip/MentorGraphics/Sourcery_CodeBench_Lite_for_ARM_EABI/arm-none-eabi/lib/libstdc++.a(guard.o)
 .ARM.exidx.text.__cxa_guard_abort
                0x0003affc        0x8 /home/bseip/MentorGraphics/Sourcery_CodeBench_Lite_for_ARM_EABI/arm-none-eabi/lib/libstdc++.a(guard.o)
 .ARM.exidx.text.__cxa_guard_release
                0x0003b004        0x0 /home/bseip/MentorGraphics/Sourcery_CodeBench_Lite_for_ARM_EABI/arm-none-eabi/lib/libstdc++.a(guard.o)
                                  0x8 (size before relaxing)
 .ARM.exidx.text._ZN9__gnu_cxx27__verbose_terminate_handlerEv
                0x0003b004        0x8 /home/bseip/MentorGraphics/Sourcery_CodeBench_Lite_for_ARM_EABI/arm-none-eabi/lib/libstdc++.a(vterminate.o)
 .ARM.exidx.text.__cxa_current_exception_type
                0x0003b00c        0x8 /home/bseip/MentorGraphics/Sourcery_CodeBench_Lite_for_ARM_EABI/arm-none-eabi/lib/libstdc++.a(eh_type.o)
 .ARM.exidx.text._ZNKSt8ios_base7failure4whatEv
                0x0003b014        0x0 /home/bseip/MentorGraphics/Sourcery_CodeBench_Lite_for_ARM_EABI/arm-none-eabi/lib/libstdc++.a(ios_failure.o)
                                  0x8 (size before relaxing)
 .ARM.exidx.text._ZNSt8ios_base7failureD2Ev
                0x0003b014        0x0 /home/bseip/MentorGraphics/Sourcery_CodeBench_Lite_for_ARM_EABI/arm-none-eabi/lib/libstdc++.a(ios_failure.o)
                                  0x8 (size before relaxing)
 .ARM.exidx.text._ZNSt8ios_base7failureD0Ev
                0x0003b014        0x0 /home/bseip/MentorGraphics/Sourcery_CodeBench_Lite_for_ARM_EABI/arm-none-eabi/lib/libstdc++.a(ios_failure.o)
                                  0x8 (size before relaxing)
 .ARM.exidx.text._ZNSt8ios_base7failureC2ERKSs
                0x0003b014        0x8 /home/bseip/MentorGraphics/Sourcery_CodeBench_Lite_for_ARM_EABI/arm-none-eabi/lib/libstdc++.a(ios_failure.o)
 .ARM.exidx.text._ZNKSt11logic_error4whatEv
                0x0003b01c        0x8 /home/bseip/MentorGraphics/Sourcery_CodeBench_Lite_for_ARM_EABI/arm-none-eabi/lib/libstdc++.a(stdexcept.o)
 .ARM.exidx.text._ZNKSt13runtime_error4whatEv
                0x0003b024        0x0 /home/bseip/MentorGraphics/Sourcery_CodeBench_Lite_for_ARM_EABI/arm-none-eabi/lib/libstdc++.a(stdexcept.o)
                                  0x8 (size before relaxing)
 .ARM.exidx.text._ZNSt11logic_errorD2Ev
                0x0003b024        0x0 /home/bseip/MentorGraphics/Sourcery_CodeBench_Lite_for_ARM_EABI/arm-none-eabi/lib/libstdc++.a(stdexcept.o)
                                  0x8 (size before relaxing)
 .ARM.exidx.text._ZNSt11logic_errorD0Ev
                0x0003b024        0x0 /home/bseip/MentorGraphics/Sourcery_CodeBench_Lite_for_ARM_EABI/arm-none-eabi/lib/libstdc++.a(stdexcept.o)
                                  0x8 (size before relaxing)
 .ARM.exidx.text._ZNSt12domain_errorD2Ev
                0x0003b024        0x0 /home/bseip/MentorGraphics/Sourcery_CodeBench_Lite_for_ARM_EABI/arm-none-eabi/lib/libstdc++.a(stdexcept.o)
                                  0x8 (size before relaxing)
 .ARM.exidx.text._ZNSt12domain_errorD0Ev
                0x0003b024        0x0 /home/bseip/MentorGraphics/Sourcery_CodeBench_Lite_for_ARM_EABI/arm-none-eabi/lib/libstdc++.a(stdexcept.o)
                                  0x8 (size before relaxing)
 .ARM.exidx.text._ZNSt16invalid_argumentD2Ev
                0x0003b024        0x0 /home/bseip/MentorGraphics/Sourcery_CodeBench_Lite_for_ARM_EABI/arm-none-eabi/lib/libstdc++.a(stdexcept.o)
                                  0x8 (size before relaxing)
 .ARM.exidx.text._ZNSt16invalid_argumentD0Ev
                0x0003b024        0x0 /home/bseip/MentorGraphics/Sourcery_CodeBench_Lite_for_ARM_EABI/arm-none-eabi/lib/libstdc++.a(stdexcept.o)
                                  0x8 (size before relaxing)
 .ARM.exidx.text._ZNSt12length_errorD2Ev
                0x0003b024        0x0 /home/bseip/MentorGraphics/Sourcery_CodeBench_Lite_for_ARM_EABI/arm-none-eabi/lib/libstdc++.a(stdexcept.o)
                                  0x8 (size before relaxing)
 .ARM.exidx.text._ZNSt12length_errorD0Ev
                0x0003b024        0x0 /home/bseip/MentorGraphics/Sourcery_CodeBench_Lite_for_ARM_EABI/arm-none-eabi/lib/libstdc++.a(stdexcept.o)
                                  0x8 (size before relaxing)
 .ARM.exidx.text._ZNSt12out_of_rangeD2Ev
                0x0003b024        0x0 /home/bseip/MentorGraphics/Sourcery_CodeBench_Lite_for_ARM_EABI/arm-none-eabi/lib/libstdc++.a(stdexcept.o)
                                  0x8 (size before relaxing)
 .ARM.exidx.text._ZNSt12out_of_rangeD0Ev
                0x0003b024        0x0 /home/bseip/MentorGraphics/Sourcery_CodeBench_Lite_for_ARM_EABI/arm-none-eabi/lib/libstdc++.a(stdexcept.o)
                                  0x8 (size before relaxing)
 .ARM.exidx.text._ZNSt13runtime_errorD2Ev
                0x0003b024        0x0 /home/bseip/MentorGraphics/Sourcery_CodeBench_Lite_for_ARM_EABI/arm-none-eabi/lib/libstdc++.a(stdexcept.o)
                                  0x8 (size before relaxing)
 .ARM.exidx.text._ZNSt13runtime_errorD0Ev
                0x0003b024        0x0 /home/bseip/MentorGraphics/Sourcery_CodeBench_Lite_for_ARM_EABI/arm-none-eabi/lib/libstdc++.a(stdexcept.o)
                                  0x8 (size before relaxing)
 .ARM.exidx.text._ZNSt11range_errorD2Ev
                0x0003b024        0x0 /home/bseip/MentorGraphics/Sourcery_CodeBench_Lite_for_ARM_EABI/arm-none-eabi/lib/libstdc++.a(stdexcept.o)
                                  0x8 (size before relaxing)
 .ARM.exidx.text._ZNSt11range_errorD0Ev
                0x0003b024        0x0 /home/bseip/MentorGraphics/Sourcery_CodeBench_Lite_for_ARM_EABI/arm-none-eabi/lib/libstdc++.a(stdexcept.o)
                                  0x8 (size before relaxing)
 .ARM.exidx.text._ZNSt14overflow_errorD2Ev
                0x0003b024        0x0 /home/bseip/MentorGraphics/Sourcery_CodeBench_Lite_for_ARM_EABI/arm-none-eabi/lib/libstdc++.a(stdexcept.o)
                                  0x8 (size before relaxing)
 .ARM.exidx.text._ZNSt14overflow_errorD0Ev
                0x0003b024        0x0 /home/bseip/MentorGraphics/Sourcery_CodeBench_Lite_for_ARM_EABI/arm-none-eabi/lib/libstdc++.a(stdexcept.o)
                                  0x8 (size before relaxing)
 .ARM.exidx.text._ZNSt15underflow_errorD2Ev
                0x0003b024        0x0 /home/bseip/MentorGraphics/Sourcery_CodeBench_Lite_for_ARM_EABI/arm-none-eabi/lib/libstdc++.a(stdexcept.o)
                                  0x8 (size before relaxing)
 .ARM.exidx.text._ZNSt15underflow_errorD0Ev
                0x0003b024        0x0 /home/bseip/MentorGraphics/Sourcery_CodeBench_Lite_for_ARM_EABI/arm-none-eabi/lib/libstdc++.a(stdexcept.o)
                                  0x8 (size before relaxing)
 .ARM.exidx.text._ZNSt11logic_errorC2ERKSs
                0x0003b024        0x8 /home/bseip/MentorGraphics/Sourcery_CodeBench_Lite_for_ARM_EABI/arm-none-eabi/lib/libstdc++.a(stdexcept.o)
 .ARM.exidx.text._ZNSt12domain_errorC2ERKSs
                0x0003b02c        0x8 /home/bseip/MentorGraphics/Sourcery_CodeBench_Lite_for_ARM_EABI/arm-none-eabi/lib/libstdc++.a(stdexcept.o)
 .ARM.exidx.text._ZNSt16invalid_argumentC2ERKSs
                0x0003b034        0x0 /home/bseip/MentorGraphics/Sourcery_CodeBench_Lite_for_ARM_EABI/arm-none-eabi/lib/libstdc++.a(stdexcept.o)
                                  0x8 (size before relaxing)
 .ARM.exidx.text._ZNSt12length_errorC2ERKSs
                0x0003b034        0x0 /home/bseip/MentorGraphics/Sourcery_CodeBench_Lite_for_ARM_EABI/arm-none-eabi/lib/libstdc++.a(stdexcept.o)
                                  0x8 (size before relaxing)
 .ARM.exidx.text._ZNSt12out_of_rangeC2ERKSs
                0x0003b034        0x0 /home/bseip/MentorGraphics/Sourcery_CodeBench_Lite_for_ARM_EABI/arm-none-eabi/lib/libstdc++.a(stdexcept.o)
                                  0x8 (size before relaxing)
 .ARM.exidx.text._ZNSt13runtime_errorC2ERKSs
                0x0003b034        0x8 /home/bseip/MentorGraphics/Sourcery_CodeBench_Lite_for_ARM_EABI/arm-none-eabi/lib/libstdc++.a(stdexcept.o)
 .ARM.exidx.text._ZNSt11range_errorC2ERKSs
                0x0003b03c        0x8 /home/bseip/MentorGraphics/Sourcery_CodeBench_Lite_for_ARM_EABI/arm-none-eabi/lib/libstdc++.a(stdexcept.o)
 .ARM.exidx.text._ZNSt14overflow_errorC2ERKSs
                0x0003b044        0x0 /home/bseip/MentorGraphics/Sourcery_CodeBench_Lite_for_ARM_EABI/arm-none-eabi/lib/libstdc++.a(stdexcept.o)
                                  0x8 (size before relaxing)
 .ARM.exidx.text._ZNSt15underflow_errorC2ERKSs
                0x0003b044        0x0 /home/bseip/MentorGraphics/Sourcery_CodeBench_Lite_for_ARM_EABI/arm-none-eabi/lib/libstdc++.a(stdexcept.o)
                                  0x8 (size before relaxing)
 .ARM.exidx.text._ZNK12_GLOBAL__N_122generic_error_category4nameEv
                0x0003b044        0x8 /home/bseip/MentorGraphics/Sourcery_CodeBench_Lite_for_ARM_EABI/arm-none-eabi/lib/libstdc++.a(system_error.o)
 .ARM.exidx.text._ZNK12_GLOBAL__N_121system_error_category4nameEv
                0x0003b04c        0x0 /home/bseip/MentorGraphics/Sourcery_CodeBench_Lite_for_ARM_EABI/arm-none-eabi/lib/libstdc++.a(system_error.o)
                                  0x8 (size before relaxing)
 .ARM.exidx.text._ZNSt14error_categoryD2Ev
                0x0003b04c        0x0 /home/bseip/MentorGraphics/Sourcery_CodeBench_Lite_for_ARM_EABI/arm-none-eabi/lib/libstdc++.a(system_error.o)
                                  0x8 (size before relaxing)
 .ARM.exidx.text._ZNKSt14error_category23default_error_conditionEi
                0x0003b04c        0x0 /home/bseip/MentorGraphics/Sourcery_CodeBench_Lite_for_ARM_EABI/arm-none-eabi/lib/libstdc++.a(system_error.o)
                                  0x8 (size before relaxing)
 .ARM.exidx.text._ZNKSt14error_category10equivalentEiRKSt15error_condition
                0x0003b04c        0x0 /home/bseip/MentorGraphics/Sourcery_CodeBench_Lite_for_ARM_EABI/arm-none-eabi/lib/libstdc++.a(system_error.o)
                                  0x8 (size before relaxing)
 .ARM.exidx.text._ZNKSt14error_category10equivalentERKSt10error_codei
                0x0003b04c        0x0 /home/bseip/MentorGraphics/Sourcery_CodeBench_Lite_for_ARM_EABI/arm-none-eabi/lib/libstdc++.a(system_error.o)
                                  0x8 (size before relaxing)
 .ARM.exidx.text._ZN12_GLOBAL__N_121system_error_categoryD2Ev
                0x0003b04c        0x0 /home/bseip/MentorGraphics/Sourcery_CodeBench_Lite_for_ARM_EABI/arm-none-eabi/lib/libstdc++.a(system_error.o)
                                  0x8 (size before relaxing)
 .ARM.exidx.text._ZN12_GLOBAL__N_122generic_error_categoryD2Ev
                0x0003b04c        0x0 /home/bseip/MentorGraphics/Sourcery_CodeBench_Lite_for_ARM_EABI/arm-none-eabi/lib/libstdc++.a(system_error.o)
                                  0x8 (size before relaxing)
 .ARM.exidx.text._ZNSt14error_categoryD0Ev
                0x0003b04c        0x0 /home/bseip/MentorGraphics/Sourcery_CodeBench_Lite_for_ARM_EABI/arm-none-eabi/lib/libstdc++.a(system_error.o)
                                  0x8 (size before relaxing)
 .ARM.exidx.text._ZN12_GLOBAL__N_121system_error_categoryD0Ev
                0x0003b04c        0x0 /home/bseip/MentorGraphics/Sourcery_CodeBench_Lite_for_ARM_EABI/arm-none-eabi/lib/libstdc++.a(system_error.o)
                                  0x8 (size before relaxing)
 .ARM.exidx.text._ZN12_GLOBAL__N_122generic_error_categoryD0Ev
                0x0003b04c        0x0 /home/bseip/MentorGraphics/Sourcery_CodeBench_Lite_for_ARM_EABI/arm-none-eabi/lib/libstdc++.a(system_error.o)
                                  0x8 (size before relaxing)
 .ARM.exidx.text._ZNSt12system_errorD2Ev
                0x0003b04c        0x0 /home/bseip/MentorGraphics/Sourcery_CodeBench_Lite_for_ARM_EABI/arm-none-eabi/lib/libstdc++.a(system_error.o)
                                  0x8 (size before relaxing)
 .ARM.exidx.text._ZNSt12system_errorD0Ev
                0x0003b04c        0x0 /home/bseip/MentorGraphics/Sourcery_CodeBench_Lite_for_ARM_EABI/arm-none-eabi/lib/libstdc++.a(system_error.o)
                                  0x8 (size before relaxing)
 .ARM.exidx.text._ZNK12_GLOBAL__N_121system_error_category7messageEi
                0x0003b04c        0x8 /home/bseip/MentorGraphics/Sourcery_CodeBench_Lite_for_ARM_EABI/arm-none-eabi/lib/libstdc++.a(system_error.o)
 .ARM.exidx.text._ZNK12_GLOBAL__N_122generic_error_category7messageEi
                0x0003b054        0x0 /home/bseip/MentorGraphics/Sourcery_CodeBench_Lite_for_ARM_EABI/arm-none-eabi/lib/libstdc++.a(system_error.o)
                                  0x8 (size before relaxing)
 .ARM.exidx.text._ZNSt14error_categoryC2Ev
                0x0003b054        0x8 /home/bseip/MentorGraphics/Sourcery_CodeBench_Lite_for_ARM_EABI/arm-none-eabi/lib/libstdc++.a(system_error.o)
 .ARM.exidx.text._ZSt15system_categoryv
                0x0003b05c        0x0 /home/bseip/MentorGraphics/Sourcery_CodeBench_Lite_for_ARM_EABI/arm-none-eabi/lib/libstdc++.a(system_error.o)
                                  0x8 (size before relaxing)
 .ARM.exidx.text._ZSt16generic_categoryv
                0x0003b05c        0x0 /home/bseip/MentorGraphics/Sourcery_CodeBench_Lite_for_ARM_EABI/arm-none-eabi/lib/libstdc++.a(system_error.o)
                                  0x8 (size before relaxing)
 .ARM.exidx.text._ZNKSt10error_code23default_error_conditionEv
                0x0003b05c        0x0 /home/bseip/MentorGraphics/Sourcery_CodeBench_Lite_for_ARM_EABI/arm-none-eabi/lib/libstdc++.a(system_error.o)
                                  0x8 (size before relaxing)
 .ARM.exidx.text.startup._GLOBAL__sub_I__ZNSt14error_categoryC2Ev
                0x0003b05c        0x0 /home/bseip/MentorGraphics/Sourcery_CodeBench_Lite_for_ARM_EABI/arm-none-eabi/lib/libstdc++.a(system_error.o)
                                  0x8 (size before relaxing)
 .ARM.exidx.text._ZN9__gnu_cxx20recursive_init_errorD2Ev
                0x0003b05c        0x0 /home/bseip/MentorGraphics/Sourcery_CodeBench_Lite_for_ARM_EABI/arm-none-eabi/lib/libstdc++.a(guard_error.o)
                                  0x8 (size before relaxing)
 .ARM.exidx.text._ZN9__gnu_cxx20recursive_init_errorD0Ev
                0x0003b05c        0x0 /home/bseip/MentorGraphics/Sourcery_CodeBench_Lite_for_ARM_EABI/arm-none-eabi/lib/libstdc++.a(guard_error.o)
                                  0x8 (size before relaxing)
 .ARM.exidx     0x0003aa3c        0x0 /home/bseip/MentorGraphics/Sourcery_CodeBench_Lite_for_ARM_EABI/lib/gcc/arm-none-eabi/4.8.1/libgcc.a(_divdi3.o)
                                  0x8 (size before relaxing)
 .ARM.exidx     0x0003aa3c        0x0 /home/bseip/MentorGraphics/Sourcery_CodeBench_Lite_for_ARM_EABI/lib/gcc/arm-none-eabi/4.8.1/libgcc.a(_udivdi3.o)
                                  0x8 (size before relaxing)
                0x0003b05c                __exidx_end = .

.rodata         0x0003b060     0xa6cc
                0x0003b060                _RODATA_START_ = .
 *(.rodata)
 .rodata        0x0003b060      0x130 build/main.o
 .rodata        0x0003b190      0x100 build/gapi/common.o
                0x0003b190                x3table
 .rodata        0x0003b290       0x70 build/gapi/controlbutton.o
                0x0003b290                vtable for ControlButton
                0x0003b2e4                typeinfo name for ControlButton
                0x0003b2f4                typeinfo for ControlButton
 .rodata        0x0003b300       0x70 build/gapi/flipbook.o
                0x0003b300                vtable for Flipbook
                0x0003b354                typeinfo name for Flipbook
                0x0003b360                typeinfo for Flipbook
 .rodata        0x0003b370       0x2c build/gapi/memory_tracking.o
 *fill*         0x0003b39c        0x4 
 .rodata        0x0003b3a0       0x68 build/gapi/screen.o
                0x0003b3a0                vtable for Screen
                0x0003b3f4                typeinfo name for Screen
                0x0003b3fc                typeinfo for Screen
 .rodata        0x0003b408       0x70 build/gapi/screenraspi.o
                0x0003b408                vtable for ScreenRaspi
                0x0003b45c                typeinfo name for ScreenRaspi
                0x0003b46c                typeinfo for ScreenRaspi
 .rodata        0x0003b478       0x70 build/gapi/wconsole.o
                0x0003b478                vtable for WConsole
                0x0003b4cc                typeinfo name for WConsole
                0x0003b4d8                typeinfo for WConsole
 .rodata        0x0003b4e8       0x68 build/gapi/window.o
                0x0003b4e8                vtable for Window
                0x0003b53c                typeinfo name for Window
                0x0003b544                typeinfo for Window
 .rodata        0x0003b550      0x804 build/fonts/6x8.o
                0x0003b550                f6x8_size
                0x0003b554                f6x8
 .rodata        0x0003bd54     0x1c10 build/fonts/ComicSansMS10.o
                0x0003bd54                ComicSansMS10_size
                0x0003bd58                ComicSansMS10
 .rodata        0x0003d964       0xe4 build/fonts/ComicSansMS10.height.o
                0x0003d964                ComicSansMS10_height_size
                0x0003d968                ComicSansMS10_height
 .rodata        0x0003da48       0xe4 build/fonts/ComicSansMS10.width.o
                0x0003da48                ComicSansMS10_width_size
                0x0003da4c                ComicSansMS10_width
 .rodata        0x0003db2c     0x1c10 build/fonts/ComicSansMS12.o
                0x0003db2c                ComicSansMS12_size
                0x0003db30                ComicSansMS12
 .rodata        0x0003f73c       0xe4 build/fonts/ComicSansMS12.height.o
                0x0003f73c                ComicSansMS12_height_size
                0x0003f740                ComicSansMS12_height
 .rodata        0x0003f820       0xe4 build/fonts/ComicSansMS12.width.o
                0x0003f820                ComicSansMS12_width_size
                0x0003f824                ComicSansMS12_width
 .rodata        0x0003f904      0x810 build/fonts/EGA_8x8.o
                0x0003f904                EGA_8x8_size
                0x0003f908                EGA_8x8
 .rodata        0x00040114      0x810 build/fonts/font6x8.o
                0x00040114                font6x8_size
                0x00040118                font6x8
 .rodata        0x00040924      0x104 build/fonts/font6x8_width.o
                0x00040924                font6x8_width_size
                0x00040928                font6x8_width
 .rodata        0x00040a28     0x1c10 build/fonts/LucidaConsole10.o
                0x00040a28                LucidaConsole10_size
                0x00040a2c                LucidaConsole10
 .rodata        0x00042638       0xe4 build/fonts/LucidaConsole10.width.o
                0x00042638                LucidaConsole10_width_size
                0x0004263c                LucidaConsole10_width
 .rodata        0x0004271c      0x210 build/fonts/Noritake5x5.o
                0x0004271c                Noritake5x5_size
                0x00042720                Noritake5x5
 .rodata        0x0004292c       0x44 build/fonts/Noritake5x5.width.o
                0x0004292c                Noritake5x5_width_size
                0x00042930                Noritake5x5_width
 .rodata        0x00042970     0x2010 build/fonts/VGA_16x16.o
                0x00042970                VGA_16x16_size
                0x00042974                VGA_16x16
 .rodata        0x00044980      0x228 build/mmc/emmc.o
 .rodata        0x00044ba8        0x4 /home/bseip/MentorGraphics/Sourcery_CodeBench_Lite_for_ARM_EABI/arm-none-eabi/lib/libc.a(lib_a-impure.o)
                0x00044ba8                _global_impure_ptr
 .rodata        0x00044bac       0x20 /home/bseip/MentorGraphics/Sourcery_CodeBench_Lite_for_ARM_EABI/arm-none-eabi/lib/libc.a(lib_a-svfprintf.o)
 .rodata        0x00044bcc       0x24 /home/bseip/MentorGraphics/Sourcery_CodeBench_Lite_for_ARM_EABI/arm-none-eabi/lib/libc.a(lib_a-svfscanf.o)
 .rodata        0x00044bf0       0x20 /home/bseip/MentorGraphics/Sourcery_CodeBench_Lite_for_ARM_EABI/arm-none-eabi/lib/libc.a(lib_a-vfiprintf.o)
 .rodata        0x00044c10       0x20 /home/bseip/MentorGraphics/Sourcery_CodeBench_Lite_for_ARM_EABI/arm-none-eabi/lib/libc.a(lib_a-vfprintf.o)
 .rodata        0x00044c30      0x104 /home/bseip/MentorGraphics/Sourcery_CodeBench_Lite_for_ARM_EABI/arm-none-eabi/lib/libc.a(lib_a-ctype_.o)
                0x00044c30                _ctype_
 *fill*         0x00044d34        0x4 
 .rodata        0x00044d38      0x128 /home/bseip/MentorGraphics/Sourcery_CodeBench_Lite_for_ARM_EABI/arm-none-eabi/lib/libc.a(lib_a-mprec.o)
                0x00044d48                __mprec_tens
                0x00044e10                __mprec_tinytens
                0x00044e38                __mprec_bigtens
 .rodata        0x00044e60       0x50 /home/bseip/MentorGraphics/Sourcery_CodeBench_Lite_for_ARM_EABI/arm-none-eabi/lib/libc.a(lib_a-strtod.o)
 .rodata        0x00044eb0       0x20 /home/bseip/MentorGraphics/Sourcery_CodeBench_Lite_for_ARM_EABI/arm-none-eabi/lib/libc.a(lib_a-svfiprintf.o)
 .rodata        0x00044ed0       0x24 /home/bseip/MentorGraphics/Sourcery_CodeBench_Lite_for_ARM_EABI/arm-none-eabi/lib/libc.a(lib_a-svfiscanf.o)
 .rodata        0x00044ef4      0x100 /home/bseip/MentorGraphics/Sourcery_CodeBench_Lite_for_ARM_EABI/arm-none-eabi/lib/libc.a(lib_a-gdtoa-gethex.o)
                0x00044ef4                __hexdig
 .rodata        0x00044ff4      0x738 /home/bseip/MentorGraphics/Sourcery_CodeBench_Lite_for_ARM_EABI/arm-none-eabi/lib/libstdc++.a(cp-demangle.o)
                0x0004572c                _RODATA_END_ = .

.ARM.extab.text.startup
                0x0004572c      0x138
 .ARM.extab.text.startup
                0x0004572c      0x120 build/main.o
 .ARM.extab.text.startup
                0x0004584c       0x18 build/gapi/common.o
 .ARM.extab.text.startup
                0x00045864        0x0 build/gapi/memory_tracking.o

.rodata.str1.4  0x00045864     0x1e90
 .rodata.str1.4
                0x00045864      0x349 build/main.o
                                0x360 (size before relaxing)
 *fill*         0x00045bad        0x3 
 .rodata.str1.4
                0x00045bb0       0x17 build/gapi/flipbook.o
                                 0x18 (size before relaxing)
 *fill*         0x00045bc7        0x1 
 .rodata.str1.4
                0x00045bc8       0x2a build/gapi/memory_tracking.o
                                 0x2c (size before relaxing)
 *fill*         0x00045bf2        0x2 
 .rodata.str1.4
                0x00045bf4        0x7 build/gapi/screen.o
                                  0x8 (size before relaxing)
 .rodata.str1.4
                0x00000000        0x8 build/gapi/screenraspi.o
 *fill*         0x00045bfb        0x1 
 .rodata.str1.4
                0x00045bfc       0x29 build/gapi/wconsole.o
                                 0x2c (size before relaxing)
 *fill*         0x00045c25        0x3 
 .rodata.str1.4
                0x00045c28       0x5a build/syscalls.o
                                 0x5c (size before relaxing)
 *fill*         0x00045c82        0x2 
 .rodata.str1.4
                0x00045c84       0x20 build/fatfs/ff.o
 .rodata.str1.4
                0x00045ca4      0x841 build/mmc/emmc.o
                                0x844 (size before relaxing)
 *fill*         0x000464e5        0x3 
 .rodata.str1.4
                0x000464e8       0x3f /home/bseip/MentorGraphics/Sourcery_CodeBench_Lite_for_ARM_EABI/arm-none-eabi/lib/libc.a(lib_a-assert.o)
                                 0x44 (size before relaxing)
 *fill*         0x00046527        0x1 
 .rodata.str1.4
                0x00046528        0x2 /home/bseip/MentorGraphics/Sourcery_CodeBench_Lite_for_ARM_EABI/arm-none-eabi/lib/libc.a(lib_a-impure.o)
                                  0x4 (size before relaxing)
 *fill*         0x0004652a        0x2 
 .rodata.str1.4
                0x0004652c       0x3f /home/bseip/MentorGraphics/Sourcery_CodeBench_Lite_for_ARM_EABI/arm-none-eabi/lib/libc.a(lib_a-svfprintf.o)
                                 0x44 (size before relaxing)
 *fill*         0x0004656b        0x1 
 .rodata.str1.4
                0x0004656c        0x5 /home/bseip/MentorGraphics/Sourcery_CodeBench_Lite_for_ARM_EABI/arm-none-eabi/lib/libc.a(lib_a-svfscanf.o)
                                  0x8 (size before relaxing)
 .rodata.str1.4
                0x00000000       0x30 /home/bseip/MentorGraphics/Sourcery_CodeBench_Lite_for_ARM_EABI/arm-none-eabi/lib/libc.a(lib_a-vfiprintf.o)
 .rodata.str1.4
                0x00000000       0x44 /home/bseip/MentorGraphics/Sourcery_CodeBench_Lite_for_ARM_EABI/arm-none-eabi/lib/libc.a(lib_a-vfprintf.o)
 *fill*         0x00046571        0x3 
 .rodata.str1.4
                0x00046574       0x10 /home/bseip/MentorGraphics/Sourcery_CodeBench_Lite_for_ARM_EABI/arm-none-eabi/lib/libc.a(lib_a-dtoa.o)
                                 0x14 (size before relaxing)
 .rodata.str1.4
                0x00046584        0xa /home/bseip/MentorGraphics/Sourcery_CodeBench_Lite_for_ARM_EABI/arm-none-eabi/lib/libc.a(lib_a-locale.o)
                                 0x14 (size before relaxing)
 .rodata.str1.4
                0x00000000        0x4 /home/bseip/MentorGraphics/Sourcery_CodeBench_Lite_for_ARM_EABI/arm-none-eabi/lib/libc.a(lib_a-mbrtowc.o)
 *fill*         0x0004658e        0x2 
 .rodata.str1.4
                0x00046590        0xf /home/bseip/MentorGraphics/Sourcery_CodeBench_Lite_for_ARM_EABI/arm-none-eabi/lib/libc.a(lib_a-strtod.o)
                                 0x10 (size before relaxing)
 .rodata.str1.4
                0x00000000       0x30 /home/bseip/MentorGraphics/Sourcery_CodeBench_Lite_for_ARM_EABI/arm-none-eabi/lib/libc.a(lib_a-svfiprintf.o)
 *fill*         0x0004659f        0x1 
 .rodata.str1.4
                0x000465a0       0x23 /home/bseip/MentorGraphics/Sourcery_CodeBench_Lite_for_ARM_EABI/arm-none-eabi/lib/libstdc++.a(eh_exception.o)
                                 0x24 (size before relaxing)
 *fill*         0x000465c3        0x1 
 .rodata.str1.4
                0x000465c4        0xf /home/bseip/MentorGraphics/Sourcery_CodeBench_Lite_for_ARM_EABI/arm-none-eabi/lib/libstdc++.a(bad_alloc.o)
                                 0x10 (size before relaxing)
 *fill*         0x000465d3        0x1 
 .rodata.str1.4
                0x000465d4       0x3b /home/bseip/MentorGraphics/Sourcery_CodeBench_Lite_for_ARM_EABI/arm-none-eabi/lib/libstdc++.a(pure.o)
                                 0x3c (size before relaxing)
 *fill*         0x0004660f        0x1 
 .rodata.str1.4
                0x00046610       0x12 /home/bseip/MentorGraphics/Sourcery_CodeBench_Lite_for_ARM_EABI/arm-none-eabi/lib/libstdc++.a(functexcept.o)
                                 0x14 (size before relaxing)
 *fill*         0x00046622        0x2 
 .rodata.str1.4
                0x00046624      0x161 /home/bseip/MentorGraphics/Sourcery_CodeBench_Lite_for_ARM_EABI/arm-none-eabi/lib/libstdc++.a(string-inst.o)
                                0x164 (size before relaxing)
 *fill*         0x00046785        0x3 
 .rodata.str1.4
                0x00046788       0x72 /home/bseip/MentorGraphics/Sourcery_CodeBench_Lite_for_ARM_EABI/arm-none-eabi/lib/libstdc++.a(future.o)
                                 0x74 (size before relaxing)
 *fill*         0x000467fa        0x2 
 .rodata.str1.4
                0x000467fc       0x12 /home/bseip/MentorGraphics/Sourcery_CodeBench_Lite_for_ARM_EABI/arm-none-eabi/lib/libstdc++.a(functional.o)
                                 0x14 (size before relaxing)
 *fill*         0x0004680e        0x2 
 .rodata.str1.4
                0x00046810        0xc /home/bseip/MentorGraphics/Sourcery_CodeBench_Lite_for_ARM_EABI/arm-none-eabi/lib/libstdc++.a(regex.o)
 .rodata.str1.4
                0x0004681c        0xe /home/bseip/MentorGraphics/Sourcery_CodeBench_Lite_for_ARM_EABI/arm-none-eabi/lib/libstdc++.a(bad_cast.o)
                                 0x10 (size before relaxing)
 *fill*         0x0004682a        0x2 
 .rodata.str1.4
                0x0004682c       0x10 /home/bseip/MentorGraphics/Sourcery_CodeBench_Lite_for_ARM_EABI/arm-none-eabi/lib/libstdc++.a(bad_typeid.o)
 .rodata.str1.4
                0x0004683c       0x94 /home/bseip/MentorGraphics/Sourcery_CodeBench_Lite_for_ARM_EABI/arm-none-eabi/lib/libstdc++.a(vterminate.o)
 .rodata.str1.4
                0x000468d0      0x7da /home/bseip/MentorGraphics/Sourcery_CodeBench_Lite_for_ARM_EABI/arm-none-eabi/lib/libstdc++.a(cp-demangle.o)
                                0x840 (size before relaxing)
 *fill*         0x000470aa        0x2 
 .rodata.str1.4
                0x000470ac        0xf /home/bseip/MentorGraphics/Sourcery_CodeBench_Lite_for_ARM_EABI/arm-none-eabi/lib/libstdc++.a(system_error.o)
                                 0x10 (size before relaxing)
 *fill*         0x000470bb        0x1 
 .rodata.str1.4
                0x000470bc      0x638 /home/bseip/MentorGraphics/Sourcery_CodeBench_Lite_for_ARM_EABI/arm-none-eabi/lib/libc.a(lib_a-strerror.o)
                                0x63c (size before relaxing)

.ARM.extab.text._ZNSt11_Deque_baseIiSaIiEED2Ev
                0x000476f4        0x0
 .ARM.extab.text._ZNSt11_Deque_baseIiSaIiEED2Ev
                0x000476f4        0x0 build/gapi/common.o

.ARM.extab.text._ZNSt5queueIiSt5dequeIiSaIiEEED2Ev
                0x000476f4        0x0
 .ARM.extab.text._ZNSt5queueIiSt5dequeIiSaIiEEED2Ev
                0x000476f4        0x0 build/gapi/common.o

.ARM.extab.text._ZNSt11_Deque_baseIiSaIiEE17_M_initialize_mapEj
                0x000476f4       0x30
 .ARM.extab.text._ZNSt11_Deque_baseIiSaIiEE17_M_initialize_mapEj
                0x000476f4       0x30 build/gapi/common.o

.ARM.extab.text._ZNSt5dequeIiSaIiEEC2ERKS1_
                0x00047724        0x0
 .ARM.extab.text._ZNSt5dequeIiSaIiEEC2ERKS1_
                0x00047724        0x0 build/gapi/common.o

.ARM.extab.text._ZNSt6vectorIP14FlipbookActionSaIS1_EE13_M_insert_auxEN9__gnu_cxx17__normal_iteratorIPS1_S3_EERKS1_
                0x00047724        0x0
 .ARM.extab.text._ZNSt6vectorIP14FlipbookActionSaIS1_EE13_M_insert_auxEN9__gnu_cxx17__normal_iteratorIPS1_S3_EERKS1_
                0x00047724        0x0 build/gapi/flipbook.o

.ARM.extab.text._ZNSt6vectorIP17FlipbookAnimationSaIS1_EE13_M_insert_auxEN9__gnu_cxx17__normal_iteratorIPS1_S3_EERKS1_
                0x00047724        0x0
 .ARM.extab.text._ZNSt6vectorIP17FlipbookAnimationSaIS1_EE13_M_insert_auxEN9__gnu_cxx17__normal_iteratorIPS1_S3_EERKS1_
                0x00047724        0x0 build/gapi/flipbook.o

.ARM.extab.text._ZNSt6vectorIP13FlipbookFrameSaIS1_EE13_M_insert_auxEN9__gnu_cxx17__normal_iteratorIPS1_S3_EERKS1_
                0x00047724        0x0
 .ARM.extab.text._ZNSt6vectorIP13FlipbookFrameSaIS1_EE13_M_insert_auxEN9__gnu_cxx17__normal_iteratorIPS1_S3_EERKS1_
                0x00047724        0x0 build/gapi/flipbook.o

.ARM.extab.text._ZNSt8_Rb_treeIPvSt4pairIKS0_jESt10_Select1stIS3_ESt4lessIS0_ESaIS3_EE24_M_get_insert_unique_posERS2_
                0x00047724        0x0
 .ARM.extab.text._ZNSt8_Rb_treeIPvSt4pairIKS0_jESt10_Select1stIS3_ESt4lessIS0_ESaIS3_EE24_M_get_insert_unique_posERS2_
                0x00047724        0x0 build/gapi/memory_tracking.o

.ARM.extab.text._ZNSt8_Rb_treeIPvSt4pairIKS0_jESt10_Select1stIS3_ESt4lessIS0_ESaIS3_EE17_M_insert_unique_ESt23_Rb_tree_const_iteratorIS3_ERKS3_
                0x00047724        0x0
 .ARM.extab.text._ZNSt8_Rb_treeIPvSt4pairIKS0_jESt10_Select1stIS3_ESt4lessIS0_ESaIS3_EE17_M_insert_unique_ESt23_Rb_tree_const_iteratorIS3_ERKS3_
                0x00047724        0x0 build/gapi/memory_tracking.o

.ARM.extab.text._ZNSt8_Rb_treeIPvSt4pairIKS0_jESt10_Select1stIS3_ESt4lessIS0_ESaIS3_EE8_M_eraseEPSt13_Rb_tree_nodeIS3_E
                0x00047724       0x24
 .ARM.extab.text._ZNSt8_Rb_treeIPvSt4pairIKS0_jESt10_Select1stIS3_ESt4lessIS0_ESaIS3_EE8_M_eraseEPSt13_Rb_tree_nodeIS3_E
                0x00047724       0x24 build/gapi/memory_tracking.o

.ARM.extab.text._ZNSt3mapIPvjSt4lessIS0_ESaISt4pairIKS0_jEEED2Ev
                0x00047748        0x0
 .ARM.extab.text._ZNSt3mapIPvjSt4lessIS0_ESaISt4pairIKS0_jEEED2Ev
                0x00047748        0x0 build/gapi/memory_tracking.o

.ARM.extab.text._Z14tracked_deletePvRSt3mapIS_jSt4lessIS_ESaISt4pairIKS_jEEE
                0x00047748       0x24
 .ARM.extab.text._Z14tracked_deletePvRSt3mapIS_jSt4lessIS_ESaISt4pairIKS_jEEE
                0x00047748       0x24 build/gapi/memory_tracking.o

.ARM.extab.text._ZN8WConsoleD2Ev
                0x0004776c        0x0
 .ARM.extab.text._ZN8WConsoleD2Ev
                0x0004776c        0x0 build/gapi/wconsole.o

.ARM.extab.text._ZN8WConsoleD0Ev
                0x0004776c        0x0
 .ARM.extab.text._ZN8WConsoleD0Ev
                0x0004776c        0x0 build/gapi/wconsole.o

.ARM.extab.text._ZNSt8_Rb_treeIiSt4pairIKiP6WindowESt10_Select1stIS4_ESt4lessIiESaIS4_EE8_M_eraseEPSt13_Rb_tree_nodeIS4_E
                0x0004776c        0x0
 .ARM.extab.text._ZNSt8_Rb_treeIiSt4pairIKiP6WindowESt10_Select1stIS4_ESt4lessIiESaIS4_EE8_M_eraseEPSt13_Rb_tree_nodeIS4_E
                0x0004776c        0x0 build/gapi/window.o

.ARM.extab.text.__cxa_get_exception_ptr
                0x0004776c        0x0
 .ARM.extab.text.__cxa_get_exception_ptr
                0x0004776c        0x0 /home/bseip/MentorGraphics/Sourcery_CodeBench_Lite_for_ARM_EABI/arm-none-eabi/lib/libstdc++.a(eh_catch.o)

.ARM.extab.text.__cxa_begin_catch
                0x0004776c       0x20
 .ARM.extab.text.__cxa_begin_catch
                0x0004776c       0x20 /home/bseip/MentorGraphics/Sourcery_CodeBench_Lite_for_ARM_EABI/arm-none-eabi/lib/libstdc++.a(eh_catch.o)

.ARM.extab.text.__cxa_end_catch
                0x0004778c        0xc
 .ARM.extab.text.__cxa_end_catch
                0x0004778c        0xc /home/bseip/MentorGraphics/Sourcery_CodeBench_Lite_for_ARM_EABI/arm-none-eabi/lib/libstdc++.a(eh_catch.o)

.ARM.extab.text._ZSt18uncaught_exceptionv
                0x00047798        0x0
 .ARM.extab.text._ZSt18uncaught_exceptionv
                0x00047798        0x0 /home/bseip/MentorGraphics/Sourcery_CodeBench_Lite_for_ARM_EABI/arm-none-eabi/lib/libstdc++.a(eh_catch.o)

.ARM.extab.text._ZN10__cxxabiv120__si_class_type_infoD2Ev
                0x00047798        0x0
 .ARM.extab.text._ZN10__cxxabiv120__si_class_type_infoD2Ev
                0x00047798        0x0 /home/bseip/MentorGraphics/Sourcery_CodeBench_Lite_for_ARM_EABI/arm-none-eabi/lib/libstdc++.a(si_class_type_info.o)

.ARM.extab.text._ZN10__cxxabiv120__si_class_type_infoD0Ev
                0x00047798        0x0
 .ARM.extab.text._ZN10__cxxabiv120__si_class_type_infoD0Ev
                0x00047798        0x0 /home/bseip/MentorGraphics/Sourcery_CodeBench_Lite_for_ARM_EABI/arm-none-eabi/lib/libstdc++.a(si_class_type_info.o)

.ARM.extab.text._ZNK10__cxxabiv120__si_class_type_info20__do_find_public_srcEiPKvPKNS_17__class_type_infoES2_
                0x00047798        0x0
 .ARM.extab.text._ZNK10__cxxabiv120__si_class_type_info20__do_find_public_srcEiPKvPKNS_17__class_type_infoES2_
                0x00047798        0x0 /home/bseip/MentorGraphics/Sourcery_CodeBench_Lite_for_ARM_EABI/arm-none-eabi/lib/libstdc++.a(si_class_type_info.o)

.ARM.extab.text._ZNK10__cxxabiv120__si_class_type_info12__do_dyncastEiNS_17__class_type_info10__sub_kindEPKS1_PKvS4_S6_RNS1_16__dyncast_resultE
                0x00047798        0x0
 .ARM.extab.text._ZNK10__cxxabiv120__si_class_type_info12__do_dyncastEiNS_17__class_type_info10__sub_kindEPKS1_PKvS4_S6_RNS1_16__dyncast_resultE
                0x00047798        0x0 /home/bseip/MentorGraphics/Sourcery_CodeBench_Lite_for_ARM_EABI/arm-none-eabi/lib/libstdc++.a(si_class_type_info.o)

.ARM.extab.text._ZNK10__cxxabiv120__si_class_type_info11__do_upcastEPKNS_17__class_type_infoEPKvRNS1_15__upcast_resultE
                0x00047798        0x0
 .ARM.extab.text._ZNK10__cxxabiv120__si_class_type_info11__do_upcastEPKNS_17__class_type_infoEPKvRNS1_15__upcast_resultE
                0x00047798        0x0 /home/bseip/MentorGraphics/Sourcery_CodeBench_Lite_for_ARM_EABI/arm-none-eabi/lib/libstdc++.a(si_class_type_info.o)

.rodata._ZTVN10__cxxabiv120__si_class_type_infoE
                0x00047798       0x30
 .rodata._ZTVN10__cxxabiv120__si_class_type_infoE
                0x00047798       0x30 /home/bseip/MentorGraphics/Sourcery_CodeBench_Lite_for_ARM_EABI/arm-none-eabi/lib/libstdc++.a(si_class_type_info.o)
                0x00047798                vtable for __cxxabiv1::__si_class_type_info

.rodata._ZTIN10__cxxabiv120__si_class_type_infoE
                0x000477c8        0xc
 .rodata._ZTIN10__cxxabiv120__si_class_type_infoE
                0x000477c8        0xc /home/bseip/MentorGraphics/Sourcery_CodeBench_Lite_for_ARM_EABI/arm-none-eabi/lib/libstdc++.a(si_class_type_info.o)
                0x000477c8                typeinfo for __cxxabiv1::__si_class_type_info

.rodata._ZTSN10__cxxabiv120__si_class_type_infoE
                0x000477d4       0x28
 .rodata._ZTSN10__cxxabiv120__si_class_type_infoE
                0x000477d4       0x28 /home/bseip/MentorGraphics/Sourcery_CodeBench_Lite_for_ARM_EABI/arm-none-eabi/lib/libstdc++.a(si_class_type_info.o)
                0x000477d4                typeinfo name for __cxxabiv1::__si_class_type_info

.ARM.extab.text._ZN10__cxxabiv111__terminateEPFvvE
                0x000477fc       0x2c
 .ARM.extab.text._ZN10__cxxabiv111__terminateEPFvvE
                0x000477fc       0x2c /home/bseip/MentorGraphics/Sourcery_CodeBench_Lite_for_ARM_EABI/arm-none-eabi/lib/libstdc++.a(eh_terminate.o)

.ARM.extab.text._ZSt9terminatev
                0x00047828        0x0
 .ARM.extab.text._ZSt9terminatev
                0x00047828        0x0 /home/bseip/MentorGraphics/Sourcery_CodeBench_Lite_for_ARM_EABI/arm-none-eabi/lib/libstdc++.a(eh_terminate.o)

.ARM.extab.text._ZN10__cxxabiv112__unexpectedEPFvvE
                0x00047828        0xc
 .ARM.extab.text._ZN10__cxxabiv112__unexpectedEPFvvE
                0x00047828        0xc /home/bseip/MentorGraphics/Sourcery_CodeBench_Lite_for_ARM_EABI/arm-none-eabi/lib/libstdc++.a(eh_terminate.o)

.ARM.extab.text._ZSt10unexpectedv
                0x00047834        0xc
 .ARM.extab.text._ZSt10unexpectedv
                0x00047834        0xc /home/bseip/MentorGraphics/Sourcery_CodeBench_Lite_for_ARM_EABI/arm-none-eabi/lib/libstdc++.a(eh_terminate.o)

.ARM.extab.text._ZSt13set_terminatePFvvE
                0x00047840        0x0
 .ARM.extab.text._ZSt13set_terminatePFvvE
                0x00047840        0x0 /home/bseip/MentorGraphics/Sourcery_CodeBench_Lite_for_ARM_EABI/arm-none-eabi/lib/libstdc++.a(eh_terminate.o)

.ARM.extab.text._ZSt14set_unexpectedPFvvE
                0x00047840        0x0
 .ARM.extab.text._ZSt14set_unexpectedPFvvE
                0x00047840        0x0 /home/bseip/MentorGraphics/Sourcery_CodeBench_Lite_for_ARM_EABI/arm-none-eabi/lib/libstdc++.a(eh_terminate.o)

.ARM.extab.text._ZNSt9type_infoD2Ev
                0x00047840        0x0
 .ARM.extab.text._ZNSt9type_infoD2Ev
                0x00047840        0x0 /home/bseip/MentorGraphics/Sourcery_CodeBench_Lite_for_ARM_EABI/arm-none-eabi/lib/libstdc++.a(tinfo.o)

.ARM.extab.text._ZNKSt9type_info14__is_pointer_pEv
                0x00047840        0x0
 .ARM.extab.text._ZNKSt9type_info14__is_pointer_pEv
                0x00047840        0x0 /home/bseip/MentorGraphics/Sourcery_CodeBench_Lite_for_ARM_EABI/arm-none-eabi/lib/libstdc++.a(tinfo.o)

.ARM.extab.text._ZNKSt9type_info15__is_function_pEv
                0x00047840        0x0
 .ARM.extab.text._ZNKSt9type_info15__is_function_pEv
                0x00047840        0x0 /home/bseip/MentorGraphics/Sourcery_CodeBench_Lite_for_ARM_EABI/arm-none-eabi/lib/libstdc++.a(tinfo.o)

.ARM.extab.text._ZNKSt9type_info11__do_upcastEPKN10__cxxabiv117__class_type_infoEPPv
                0x00047840        0x0
 .ARM.extab.text._ZNKSt9type_info11__do_upcastEPKN10__cxxabiv117__class_type_infoEPPv
                0x00047840        0x0 /home/bseip/MentorGraphics/Sourcery_CodeBench_Lite_for_ARM_EABI/arm-none-eabi/lib/libstdc++.a(tinfo.o)

.ARM.extab.text._ZNSt9type_infoD0Ev
                0x00047840        0x0
 .ARM.extab.text._ZNSt9type_infoD0Ev
                0x00047840        0x0 /home/bseip/MentorGraphics/Sourcery_CodeBench_Lite_for_ARM_EABI/arm-none-eabi/lib/libstdc++.a(tinfo.o)

.ARM.extab.text._ZNKSt9type_infoeqERKS_
                0x00047840        0x0
 .ARM.extab.text._ZNKSt9type_infoeqERKS_
                0x00047840        0x0 /home/bseip/MentorGraphics/Sourcery_CodeBench_Lite_for_ARM_EABI/arm-none-eabi/lib/libstdc++.a(tinfo.o)

.ARM.extab.text._ZNKSt9type_info10__do_catchEPKS_PPvj
                0x00047840        0x0
 .ARM.extab.text._ZNKSt9type_info10__do_catchEPKS_PPvj
                0x00047840        0x0 /home/bseip/MentorGraphics/Sourcery_CodeBench_Lite_for_ARM_EABI/arm-none-eabi/lib/libstdc++.a(tinfo.o)

.rodata._ZTISt9type_info
                0x00047840        0x8
 .rodata._ZTISt9type_info
                0x00047840        0x8 /home/bseip/MentorGraphics/Sourcery_CodeBench_Lite_for_ARM_EABI/arm-none-eabi/lib/libstdc++.a(tinfo.o)
                0x00047840                typeinfo for std::type_info

.rodata._ZTSSt9type_info
                0x00047848       0x10
 .rodata._ZTSSt9type_info
                0x00047848       0x10 /home/bseip/MentorGraphics/Sourcery_CodeBench_Lite_for_ARM_EABI/arm-none-eabi/lib/libstdc++.a(tinfo.o)
                0x00047848                typeinfo name for std::type_info

.rodata._ZTVSt9type_info
                0x00047858       0x20
 .rodata._ZTVSt9type_info
                0x00047858       0x20 /home/bseip/MentorGraphics/Sourcery_CodeBench_Lite_for_ARM_EABI/arm-none-eabi/lib/libstdc++.a(tinfo.o)
                0x00047858                vtable for std::type_info

.ARM.extab.text.__cxa_allocate_exception
                0x00047878        0x0
 .ARM.extab.text.__cxa_allocate_exception
                0x00047878        0x0 /home/bseip/MentorGraphics/Sourcery_CodeBench_Lite_for_ARM_EABI/arm-none-eabi/lib/libstdc++.a(eh_alloc.o)

.ARM.extab.text.__cxa_free_exception
                0x00047878        0x0
 .ARM.extab.text.__cxa_free_exception
                0x00047878        0x0 /home/bseip/MentorGraphics/Sourcery_CodeBench_Lite_for_ARM_EABI/arm-none-eabi/lib/libstdc++.a(eh_alloc.o)

.ARM.extab.text.__cxa_allocate_dependent_exception
                0x00047878        0x0
 .ARM.extab.text.__cxa_allocate_dependent_exception
                0x00047878        0x0 /home/bseip/MentorGraphics/Sourcery_CodeBench_Lite_for_ARM_EABI/arm-none-eabi/lib/libstdc++.a(eh_alloc.o)

.ARM.extab.text.__cxa_free_dependent_exception
                0x00047878        0x0
 .ARM.extab.text.__cxa_free_dependent_exception
                0x00047878        0x0 /home/bseip/MentorGraphics/Sourcery_CodeBench_Lite_for_ARM_EABI/arm-none-eabi/lib/libstdc++.a(eh_alloc.o)

.ARM.extab.text._ZL12read_sleb128PKhPl
                0x00047878        0x0
 .ARM.extab.text._ZL12read_sleb128PKhPl
                0x00047878        0x0 /home/bseip/MentorGraphics/Sourcery_CodeBench_Lite_for_ARM_EABI/arm-none-eabi/lib/libstdc++.a(eh_personality.o)

.ARM.extab.text._ZL28read_encoded_value_with_basehjPKhPj
                0x00047878        0x0
 .ARM.extab.text._ZL28read_encoded_value_with_basehjPKhPj
                0x00047878        0x0 /home/bseip/MentorGraphics/Sourcery_CodeBench_Lite_for_ARM_EABI/arm-none-eabi/lib/libstdc++.a(eh_personality.o)

.ARM.extab.text._ZL21base_of_encoded_valuehP15_Unwind_Context
                0x00047878        0xc
 .ARM.extab.text._ZL21base_of_encoded_valuehP15_Unwind_Context
                0x00047878        0xc /home/bseip/MentorGraphics/Sourcery_CodeBench_Lite_for_ARM_EABI/arm-none-eabi/lib/libstdc++.a(eh_personality.o)

.ARM.extab.text._ZL17parse_lsda_headerP15_Unwind_ContextPKhP16lsda_header_info
                0x00047884        0x0
 .ARM.extab.text._ZL17parse_lsda_headerP15_Unwind_ContextPKhP16lsda_header_info
                0x00047884        0x0 /home/bseip/MentorGraphics/Sourcery_CodeBench_Lite_for_ARM_EABI/arm-none-eabi/lib/libstdc++.a(eh_personality.o)

.ARM.extab.text.__gxx_personality_v0
                0x00047884       0x20
 .ARM.extab.text.__gxx_personality_v0
                0x00047884       0x20 /home/bseip/MentorGraphics/Sourcery_CodeBench_Lite_for_ARM_EABI/arm-none-eabi/lib/libstdc++.a(eh_personality.o)

.ARM.extab.text.__cxa_type_match
                0x000478a4        0x0
 .ARM.extab.text.__cxa_type_match
                0x000478a4        0x0 /home/bseip/MentorGraphics/Sourcery_CodeBench_Lite_for_ARM_EABI/arm-none-eabi/lib/libstdc++.a(eh_arm.o)

.ARM.extab.text.__cxa_begin_cleanup
                0x000478a4        0x0
 .ARM.extab.text.__cxa_begin_cleanup
                0x000478a4        0x0 /home/bseip/MentorGraphics/Sourcery_CodeBench_Lite_for_ARM_EABI/arm-none-eabi/lib/libstdc++.a(eh_arm.o)

.ARM.extab.text.__gnu_end_cleanup
                0x000478a4        0x0
 .ARM.extab.text.__gnu_end_cleanup
                0x000478a4        0x0 /home/bseip/MentorGraphics/Sourcery_CodeBench_Lite_for_ARM_EABI/arm-none-eabi/lib/libstdc++.a(eh_arm.o)

.ARM.extab.text._ZNSt9exceptionD2Ev
                0x000478a4        0x0
 .ARM.extab.text._ZNSt9exceptionD2Ev
                0x000478a4        0x0 /home/bseip/MentorGraphics/Sourcery_CodeBench_Lite_for_ARM_EABI/arm-none-eabi/lib/libstdc++.a(eh_exception.o)

.ARM.extab.text._ZNSt13bad_exceptionD2Ev
                0x000478a4        0x0
 .ARM.extab.text._ZNSt13bad_exceptionD2Ev
                0x000478a4        0x0 /home/bseip/MentorGraphics/Sourcery_CodeBench_Lite_for_ARM_EABI/arm-none-eabi/lib/libstdc++.a(eh_exception.o)

.ARM.extab.text._ZN10__cxxabiv115__forced_unwindD2Ev
                0x000478a4        0x0
 .ARM.extab.text._ZN10__cxxabiv115__forced_unwindD2Ev
                0x000478a4        0x0 /home/bseip/MentorGraphics/Sourcery_CodeBench_Lite_for_ARM_EABI/arm-none-eabi/lib/libstdc++.a(eh_exception.o)

.ARM.extab.text._ZN10__cxxabiv119__foreign_exceptionD2Ev
                0x000478a4        0x0
 .ARM.extab.text._ZN10__cxxabiv119__foreign_exceptionD2Ev
                0x000478a4        0x0 /home/bseip/MentorGraphics/Sourcery_CodeBench_Lite_for_ARM_EABI/arm-none-eabi/lib/libstdc++.a(eh_exception.o)

.ARM.extab.text._ZNKSt9exception4whatEv
                0x000478a4        0x0
 .ARM.extab.text._ZNKSt9exception4whatEv
                0x000478a4        0x0 /home/bseip/MentorGraphics/Sourcery_CodeBench_Lite_for_ARM_EABI/arm-none-eabi/lib/libstdc++.a(eh_exception.o)

.ARM.extab.text._ZNKSt13bad_exception4whatEv
                0x000478a4        0x0
 .ARM.extab.text._ZNKSt13bad_exception4whatEv
                0x000478a4        0x0 /home/bseip/MentorGraphics/Sourcery_CodeBench_Lite_for_ARM_EABI/arm-none-eabi/lib/libstdc++.a(eh_exception.o)

.ARM.extab.text._ZNSt9exceptionD0Ev
                0x000478a4        0x0
 .ARM.extab.text._ZNSt9exceptionD0Ev
                0x000478a4        0x0 /home/bseip/MentorGraphics/Sourcery_CodeBench_Lite_for_ARM_EABI/arm-none-eabi/lib/libstdc++.a(eh_exception.o)

.ARM.extab.text._ZNSt13bad_exceptionD0Ev
                0x000478a4        0x0
 .ARM.extab.text._ZNSt13bad_exceptionD0Ev
                0x000478a4        0x0 /home/bseip/MentorGraphics/Sourcery_CodeBench_Lite_for_ARM_EABI/arm-none-eabi/lib/libstdc++.a(eh_exception.o)

.ARM.extab.text._ZN10__cxxabiv115__forced_unwindD0Ev
                0x000478a4        0x0
 .ARM.extab.text._ZN10__cxxabiv115__forced_unwindD0Ev
                0x000478a4        0x0 /home/bseip/MentorGraphics/Sourcery_CodeBench_Lite_for_ARM_EABI/arm-none-eabi/lib/libstdc++.a(eh_exception.o)

.ARM.extab.text._ZN10__cxxabiv119__foreign_exceptionD0Ev
                0x000478a4        0x0
 .ARM.extab.text._ZN10__cxxabiv119__foreign_exceptionD0Ev
                0x000478a4        0x0 /home/bseip/MentorGraphics/Sourcery_CodeBench_Lite_for_ARM_EABI/arm-none-eabi/lib/libstdc++.a(eh_exception.o)

.rodata._ZTVN10__cxxabiv115__forced_unwindE
                0x000478a8       0x18
 .rodata._ZTVN10__cxxabiv115__forced_unwindE
                0x000478a8       0x18 /home/bseip/MentorGraphics/Sourcery_CodeBench_Lite_for_ARM_EABI/arm-none-eabi/lib/libstdc++.a(eh_exception.o)
                0x000478a8                vtable for __cxxabiv1::__forced_unwind

.rodata._ZTVSt9exception
                0x000478c0       0x18
 .rodata._ZTVSt9exception
                0x000478c0       0x18 /home/bseip/MentorGraphics/Sourcery_CodeBench_Lite_for_ARM_EABI/arm-none-eabi/lib/libstdc++.a(eh_exception.o)
                0x000478c0                vtable for std::exception

.rodata._ZTIN10__cxxabiv115__forced_unwindE
                0x000478d8        0x8
 .rodata._ZTIN10__cxxabiv115__forced_unwindE
                0x000478d8        0x8 /home/bseip/MentorGraphics/Sourcery_CodeBench_Lite_for_ARM_EABI/arm-none-eabi/lib/libstdc++.a(eh_exception.o)
                0x000478d8                typeinfo for __cxxabiv1::__forced_unwind

.rodata._ZTISt9exception
                0x000478e0        0x8
 .rodata._ZTISt9exception
                0x000478e0        0x8 /home/bseip/MentorGraphics/Sourcery_CodeBench_Lite_for_ARM_EABI/arm-none-eabi/lib/libstdc++.a(eh_exception.o)
                0x000478e0                typeinfo for std::exception

.rodata._ZTSSt13bad_exception
                0x000478e8       0x14
 .rodata._ZTSSt13bad_exception
                0x000478e8       0x14 /home/bseip/MentorGraphics/Sourcery_CodeBench_Lite_for_ARM_EABI/arm-none-eabi/lib/libstdc++.a(eh_exception.o)
                0x000478e8                typeinfo name for std::bad_exception

.rodata._ZTSN10__cxxabiv119__foreign_exceptionE
                0x000478fc       0x24
 .rodata._ZTSN10__cxxabiv119__foreign_exceptionE
                0x000478fc       0x24 /home/bseip/MentorGraphics/Sourcery_CodeBench_Lite_for_ARM_EABI/arm-none-eabi/lib/libstdc++.a(eh_exception.o)
                0x000478fc                typeinfo name for __cxxabiv1::__foreign_exception

.rodata._ZTIN10__cxxabiv119__foreign_exceptionE
                0x00047920        0x8
 .rodata._ZTIN10__cxxabiv119__foreign_exceptionE
                0x00047920        0x8 /home/bseip/MentorGraphics/Sourcery_CodeBench_Lite_for_ARM_EABI/arm-none-eabi/lib/libstdc++.a(eh_exception.o)
                0x00047920                typeinfo for __cxxabiv1::__foreign_exception

.rodata._ZTVSt13bad_exception
                0x00047928       0x18
 .rodata._ZTVSt13bad_exception
                0x00047928       0x18 /home/bseip/MentorGraphics/Sourcery_CodeBench_Lite_for_ARM_EABI/arm-none-eabi/lib/libstdc++.a(eh_exception.o)
                0x00047928                vtable for std::bad_exception

.rodata._ZTSSt9exception
                0x00047940       0x10
 .rodata._ZTSSt9exception
                0x00047940       0x10 /home/bseip/MentorGraphics/Sourcery_CodeBench_Lite_for_ARM_EABI/arm-none-eabi/lib/libstdc++.a(eh_exception.o)
                0x00047940                typeinfo name for std::exception

.rodata._ZTVN10__cxxabiv119__foreign_exceptionE
                0x00047950       0x18
 .rodata._ZTVN10__cxxabiv119__foreign_exceptionE
                0x00047950       0x18 /home/bseip/MentorGraphics/Sourcery_CodeBench_Lite_for_ARM_EABI/arm-none-eabi/lib/libstdc++.a(eh_exception.o)
                0x00047950                vtable for __cxxabiv1::__foreign_exception

.rodata._ZTSN10__cxxabiv115__forced_unwindE
                0x00047968       0x20
 .rodata._ZTSN10__cxxabiv115__forced_unwindE
                0x00047968       0x20 /home/bseip/MentorGraphics/Sourcery_CodeBench_Lite_for_ARM_EABI/arm-none-eabi/lib/libstdc++.a(eh_exception.o)
                0x00047968                typeinfo name for __cxxabiv1::__forced_unwind

.rodata._ZTISt13bad_exception
                0x00047988        0xc
 .rodata._ZTISt13bad_exception
                0x00047988        0xc /home/bseip/MentorGraphics/Sourcery_CodeBench_Lite_for_ARM_EABI/arm-none-eabi/lib/libstdc++.a(eh_exception.o)
                0x00047988                typeinfo for std::bad_exception

.ARM.extab.text.__cxa_get_globals_fast
                0x00047994        0x0
 .ARM.extab.text.__cxa_get_globals_fast
                0x00047994        0x0 /home/bseip/MentorGraphics/Sourcery_CodeBench_Lite_for_ARM_EABI/arm-none-eabi/lib/libstdc++.a(eh_globals.o)

.ARM.extab.text.__cxa_get_globals
                0x00047994        0x0
 .ARM.extab.text.__cxa_get_globals
                0x00047994        0x0 /home/bseip/MentorGraphics/Sourcery_CodeBench_Lite_for_ARM_EABI/arm-none-eabi/lib/libstdc++.a(eh_globals.o)

.ARM.extab.text._ZN10__cxxabiv1L24__is_gxx_exception_classEPc
                0x00047994        0x0
 .ARM.extab.text._ZN10__cxxabiv1L24__is_gxx_exception_classEPc
                0x00047994        0x0 /home/bseip/MentorGraphics/Sourcery_CodeBench_Lite_for_ARM_EABI/arm-none-eabi/lib/libstdc++.a(eh_call.o)

.ARM.extab.text.__cxa_call_terminate
                0x00047994        0x0
 .ARM.extab.text.__cxa_call_terminate
                0x00047994        0x0 /home/bseip/MentorGraphics/Sourcery_CodeBench_Lite_for_ARM_EABI/arm-none-eabi/lib/libstdc++.a(eh_call.o)

.ARM.extab.text.__cxa_call_unexpected
                0x00047994       0x28
 .ARM.extab.text.__cxa_call_unexpected
                0x00047994       0x28 /home/bseip/MentorGraphics/Sourcery_CodeBench_Lite_for_ARM_EABI/arm-none-eabi/lib/libstdc++.a(eh_call.o)

.ARM.extab.text._ZL23__gxx_exception_cleanup19_Unwind_Reason_CodeP21_Unwind_Control_Block
                0x000479bc        0x0
 .ARM.extab.text._ZL23__gxx_exception_cleanup19_Unwind_Reason_CodeP21_Unwind_Control_Block
                0x000479bc        0x0 /home/bseip/MentorGraphics/Sourcery_CodeBench_Lite_for_ARM_EABI/arm-none-eabi/lib/libstdc++.a(eh_throw.o)

.ARM.extab.text.__cxa_throw
                0x000479bc        0x0
 .ARM.extab.text.__cxa_throw
                0x000479bc        0x0 /home/bseip/MentorGraphics/Sourcery_CodeBench_Lite_for_ARM_EABI/arm-none-eabi/lib/libstdc++.a(eh_throw.o)

.ARM.extab.text.__cxa_rethrow
                0x000479bc        0x0
 .ARM.extab.text.__cxa_rethrow
                0x000479bc        0x0 /home/bseip/MentorGraphics/Sourcery_CodeBench_Lite_for_ARM_EABI/arm-none-eabi/lib/libstdc++.a(eh_throw.o)

.ARM.extab.text._ZNKSt9bad_alloc4whatEv
                0x000479bc        0x0
 .ARM.extab.text._ZNKSt9bad_alloc4whatEv
                0x000479bc        0x0 /home/bseip/MentorGraphics/Sourcery_CodeBench_Lite_for_ARM_EABI/arm-none-eabi/lib/libstdc++.a(bad_alloc.o)

.ARM.extab.text._ZNSt9bad_allocD2Ev
                0x000479bc        0x0
 .ARM.extab.text._ZNSt9bad_allocD2Ev
                0x000479bc        0x0 /home/bseip/MentorGraphics/Sourcery_CodeBench_Lite_for_ARM_EABI/arm-none-eabi/lib/libstdc++.a(bad_alloc.o)

.ARM.extab.text._ZNSt9bad_allocD0Ev
                0x000479bc        0x0
 .ARM.extab.text._ZNSt9bad_allocD0Ev
                0x000479bc        0x0 /home/bseip/MentorGraphics/Sourcery_CodeBench_Lite_for_ARM_EABI/arm-none-eabi/lib/libstdc++.a(bad_alloc.o)

.rodata._ZTVSt9bad_alloc
                0x000479c0       0x18
 .rodata._ZTVSt9bad_alloc
                0x000479c0       0x18 /home/bseip/MentorGraphics/Sourcery_CodeBench_Lite_for_ARM_EABI/arm-none-eabi/lib/libstdc++.a(bad_alloc.o)
                0x000479c0                vtable for std::bad_alloc

.rodata._ZTISt9bad_alloc
                0x000479d8        0xc
 .rodata._ZTISt9bad_alloc
                0x000479d8        0xc /home/bseip/MentorGraphics/Sourcery_CodeBench_Lite_for_ARM_EABI/arm-none-eabi/lib/libstdc++.a(bad_alloc.o)
                0x000479d8                typeinfo for std::bad_alloc

.rodata._ZTSSt9bad_alloc
                0x000479e4       0x10
 .rodata._ZTSSt9bad_alloc
                0x000479e4       0x10 /home/bseip/MentorGraphics/Sourcery_CodeBench_Lite_for_ARM_EABI/arm-none-eabi/lib/libstdc++.a(bad_alloc.o)
                0x000479e4                typeinfo name for std::bad_alloc

.ARM.extab.text._ZNK10__cxxabiv117__class_type_info11__do_upcastEPKS0_PPv
                0x000479f4        0x0
 .ARM.extab.text._ZNK10__cxxabiv117__class_type_info11__do_upcastEPKS0_PPv
                0x000479f4        0x0 /home/bseip/MentorGraphics/Sourcery_CodeBench_Lite_for_ARM_EABI/arm-none-eabi/lib/libstdc++.a(class_type_info.o)

.ARM.extab.text._ZNK10__cxxabiv117__class_type_info20__do_find_public_srcEiPKvPKS0_S2_
                0x000479f4        0x0
 .ARM.extab.text._ZNK10__cxxabiv117__class_type_info20__do_find_public_srcEiPKvPKS0_S2_
                0x000479f4        0x0 /home/bseip/MentorGraphics/Sourcery_CodeBench_Lite_for_ARM_EABI/arm-none-eabi/lib/libstdc++.a(class_type_info.o)

.ARM.extab.text._ZN10__cxxabiv117__class_type_infoD2Ev
                0x000479f4        0x0
 .ARM.extab.text._ZN10__cxxabiv117__class_type_infoD2Ev
                0x000479f4        0x0 /home/bseip/MentorGraphics/Sourcery_CodeBench_Lite_for_ARM_EABI/arm-none-eabi/lib/libstdc++.a(class_type_info.o)

.ARM.extab.text._ZN10__cxxabiv117__class_type_infoD0Ev
                0x000479f4        0x0
 .ARM.extab.text._ZN10__cxxabiv117__class_type_infoD0Ev
                0x000479f4        0x0 /home/bseip/MentorGraphics/Sourcery_CodeBench_Lite_for_ARM_EABI/arm-none-eabi/lib/libstdc++.a(class_type_info.o)

.ARM.extab.text._ZNK10__cxxabiv117__class_type_info11__do_upcastEPKS0_PKvRNS0_15__upcast_resultE
                0x000479f4        0x0
 .ARM.extab.text._ZNK10__cxxabiv117__class_type_info11__do_upcastEPKS0_PKvRNS0_15__upcast_resultE
                0x000479f4        0x0 /home/bseip/MentorGraphics/Sourcery_CodeBench_Lite_for_ARM_EABI/arm-none-eabi/lib/libstdc++.a(class_type_info.o)

.ARM.extab.text._ZNK10__cxxabiv117__class_type_info10__do_catchEPKSt9type_infoPPvj
                0x000479f4        0x0
 .ARM.extab.text._ZNK10__cxxabiv117__class_type_info10__do_catchEPKSt9type_infoPPvj
                0x000479f4        0x0 /home/bseip/MentorGraphics/Sourcery_CodeBench_Lite_for_ARM_EABI/arm-none-eabi/lib/libstdc++.a(class_type_info.o)

.ARM.extab.text._ZNK10__cxxabiv117__class_type_info12__do_dyncastEiNS0_10__sub_kindEPKS0_PKvS3_S5_RNS0_16__dyncast_resultE
                0x000479f4        0x0
 .ARM.extab.text._ZNK10__cxxabiv117__class_type_info12__do_dyncastEiNS0_10__sub_kindEPKS0_PKvS3_S5_RNS0_16__dyncast_resultE
                0x000479f4        0x0 /home/bseip/MentorGraphics/Sourcery_CodeBench_Lite_for_ARM_EABI/arm-none-eabi/lib/libstdc++.a(class_type_info.o)

.rodata._ZTVN10__cxxabiv117__class_type_infoE
                0x000479f8       0x30
 .rodata._ZTVN10__cxxabiv117__class_type_infoE
                0x000479f8       0x30 /home/bseip/MentorGraphics/Sourcery_CodeBench_Lite_for_ARM_EABI/arm-none-eabi/lib/libstdc++.a(class_type_info.o)
                0x000479f8                vtable for __cxxabiv1::__class_type_info

.rodata._ZTIN10__cxxabiv117__class_type_infoE
                0x00047a28        0xc
 .rodata._ZTIN10__cxxabiv117__class_type_infoE
                0x00047a28        0xc /home/bseip/MentorGraphics/Sourcery_CodeBench_Lite_for_ARM_EABI/arm-none-eabi/lib/libstdc++.a(class_type_info.o)
                0x00047a28                typeinfo for __cxxabiv1::__class_type_info

.rodata._ZTSN10__cxxabiv117__class_type_infoE
                0x00047a34       0x24
 .rodata._ZTSN10__cxxabiv117__class_type_infoE
                0x00047a34       0x24 /home/bseip/MentorGraphics/Sourcery_CodeBench_Lite_for_ARM_EABI/arm-none-eabi/lib/libstdc++.a(class_type_info.o)
                0x00047a34                typeinfo name for __cxxabiv1::__class_type_info

.ARM.extab.text.__cxa_pure_virtual
                0x00047a58        0xc
 .ARM.extab.text.__cxa_pure_virtual
                0x00047a58        0xc /home/bseip/MentorGraphics/Sourcery_CodeBench_Lite_for_ARM_EABI/arm-none-eabi/lib/libstdc++.a(pure.o)

.ARM.extab.text.__cxa_deleted_virtual
                0x00047a64        0xc
 .ARM.extab.text.__cxa_deleted_virtual
                0x00047a64        0xc /home/bseip/MentorGraphics/Sourcery_CodeBench_Lite_for_ARM_EABI/arm-none-eabi/lib/libstdc++.a(pure.o)

.ARM.extab.text._ZStL25local_Rb_tree_rotate_leftPSt18_Rb_tree_node_baseRS0_
                0x00047a70        0x0
 .ARM.extab.text._ZStL25local_Rb_tree_rotate_leftPSt18_Rb_tree_node_baseRS0_
                0x00047a70        0x0 /home/bseip/MentorGraphics/Sourcery_CodeBench_Lite_for_ARM_EABI/arm-none-eabi/lib/libstdc++.a(tree.o)

.ARM.extab.text._ZStL26local_Rb_tree_rotate_rightPSt18_Rb_tree_node_baseRS0_
                0x00047a70        0x0
 .ARM.extab.text._ZStL26local_Rb_tree_rotate_rightPSt18_Rb_tree_node_baseRS0_
                0x00047a70        0x0 /home/bseip/MentorGraphics/Sourcery_CodeBench_Lite_for_ARM_EABI/arm-none-eabi/lib/libstdc++.a(tree.o)

.ARM.extab.text._ZStL23local_Rb_tree_decrementPSt18_Rb_tree_node_base
                0x00047a70        0x0
 .ARM.extab.text._ZStL23local_Rb_tree_decrementPSt18_Rb_tree_node_base
                0x00047a70        0x0 /home/bseip/MentorGraphics/Sourcery_CodeBench_Lite_for_ARM_EABI/arm-none-eabi/lib/libstdc++.a(tree.o)

.ARM.extab.text._ZSt18_Rb_tree_incrementPSt18_Rb_tree_node_base
                0x00047a70        0x0
 .ARM.extab.text._ZSt18_Rb_tree_incrementPSt18_Rb_tree_node_base
                0x00047a70        0x0 /home/bseip/MentorGraphics/Sourcery_CodeBench_Lite_for_ARM_EABI/arm-none-eabi/lib/libstdc++.a(tree.o)

.ARM.extab.text._ZSt18_Rb_tree_incrementPKSt18_Rb_tree_node_base
                0x00047a70        0x0
 .ARM.extab.text._ZSt18_Rb_tree_incrementPKSt18_Rb_tree_node_base
                0x00047a70        0x0 /home/bseip/MentorGraphics/Sourcery_CodeBench_Lite_for_ARM_EABI/arm-none-eabi/lib/libstdc++.a(tree.o)

.ARM.extab.text._ZSt18_Rb_tree_decrementPSt18_Rb_tree_node_base
                0x00047a70        0x0
 .ARM.extab.text._ZSt18_Rb_tree_decrementPSt18_Rb_tree_node_base
                0x00047a70        0x0 /home/bseip/MentorGraphics/Sourcery_CodeBench_Lite_for_ARM_EABI/arm-none-eabi/lib/libstdc++.a(tree.o)

.ARM.extab.text._ZSt18_Rb_tree_decrementPKSt18_Rb_tree_node_base
                0x00047a70        0x0
 .ARM.extab.text._ZSt18_Rb_tree_decrementPKSt18_Rb_tree_node_base
                0x00047a70        0x0 /home/bseip/MentorGraphics/Sourcery_CodeBench_Lite_for_ARM_EABI/arm-none-eabi/lib/libstdc++.a(tree.o)

.ARM.extab.text._ZSt20_Rb_tree_rotate_leftPSt18_Rb_tree_node_baseRS0_
                0x00047a70        0x0
 .ARM.extab.text._ZSt20_Rb_tree_rotate_leftPSt18_Rb_tree_node_baseRS0_
                0x00047a70        0x0 /home/bseip/MentorGraphics/Sourcery_CodeBench_Lite_for_ARM_EABI/arm-none-eabi/lib/libstdc++.a(tree.o)

.ARM.extab.text._ZSt21_Rb_tree_rotate_rightPSt18_Rb_tree_node_baseRS0_
                0x00047a70        0x0
 .ARM.extab.text._ZSt21_Rb_tree_rotate_rightPSt18_Rb_tree_node_baseRS0_
                0x00047a70        0x0 /home/bseip/MentorGraphics/Sourcery_CodeBench_Lite_for_ARM_EABI/arm-none-eabi/lib/libstdc++.a(tree.o)

.ARM.extab.text._ZSt29_Rb_tree_insert_and_rebalancebPSt18_Rb_tree_node_baseS0_RS_
                0x00047a70        0x0
 .ARM.extab.text._ZSt29_Rb_tree_insert_and_rebalancebPSt18_Rb_tree_node_baseS0_RS_
                0x00047a70        0x0 /home/bseip/MentorGraphics/Sourcery_CodeBench_Lite_for_ARM_EABI/arm-none-eabi/lib/libstdc++.a(tree.o)

.ARM.extab.text._ZSt28_Rb_tree_rebalance_for_erasePSt18_Rb_tree_node_baseRS_
                0x00047a70        0x0
 .ARM.extab.text._ZSt28_Rb_tree_rebalance_for_erasePSt18_Rb_tree_node_baseRS_
                0x00047a70        0x0 /home/bseip/MentorGraphics/Sourcery_CodeBench_Lite_for_ARM_EABI/arm-none-eabi/lib/libstdc++.a(tree.o)

.ARM.extab.text._ZSt20_Rb_tree_black_countPKSt18_Rb_tree_node_baseS1_
                0x00047a70        0x0
 .ARM.extab.text._ZSt20_Rb_tree_black_countPKSt18_Rb_tree_node_baseS1_
                0x00047a70        0x0 /home/bseip/MentorGraphics/Sourcery_CodeBench_Lite_for_ARM_EABI/arm-none-eabi/lib/libstdc++.a(tree.o)

.ARM.extab.text._ZSt21__throw_bad_exceptionv
                0x00047a70        0xc
 .ARM.extab.text._ZSt21__throw_bad_exceptionv
                0x00047a70        0xc /home/bseip/MentorGraphics/Sourcery_CodeBench_Lite_for_ARM_EABI/arm-none-eabi/lib/libstdc++.a(functexcept.o)

.ARM.extab.text._ZSt17__throw_bad_allocv
                0x00047a7c        0xc
 .ARM.extab.text._ZSt17__throw_bad_allocv
                0x00047a7c        0xc /home/bseip/MentorGraphics/Sourcery_CodeBench_Lite_for_ARM_EABI/arm-none-eabi/lib/libstdc++.a(functexcept.o)

.ARM.extab.text._ZSt16__throw_bad_castv
                0x00047a88        0xc
 .ARM.extab.text._ZSt16__throw_bad_castv
                0x00047a88        0xc /home/bseip/MentorGraphics/Sourcery_CodeBench_Lite_for_ARM_EABI/arm-none-eabi/lib/libstdc++.a(functexcept.o)

.ARM.extab.text._ZSt18__throw_bad_typeidv
                0x00047a94        0xc
 .ARM.extab.text._ZSt18__throw_bad_typeidv
                0x00047a94        0xc /home/bseip/MentorGraphics/Sourcery_CodeBench_Lite_for_ARM_EABI/arm-none-eabi/lib/libstdc++.a(functexcept.o)

.ARM.extab.text._ZSt19__throw_logic_errorPKc
                0x00047aa0       0x18
 .ARM.extab.text._ZSt19__throw_logic_errorPKc
                0x00047aa0       0x18 /home/bseip/MentorGraphics/Sourcery_CodeBench_Lite_for_ARM_EABI/arm-none-eabi/lib/libstdc++.a(functexcept.o)

.ARM.extab.text._ZSt20__throw_domain_errorPKc
                0x00047ab8       0x18
 .ARM.extab.text._ZSt20__throw_domain_errorPKc
                0x00047ab8       0x18 /home/bseip/MentorGraphics/Sourcery_CodeBench_Lite_for_ARM_EABI/arm-none-eabi/lib/libstdc++.a(functexcept.o)

.ARM.extab.text._ZSt24__throw_invalid_argumentPKc
                0x00047ad0       0x18
 .ARM.extab.text._ZSt24__throw_invalid_argumentPKc
                0x00047ad0       0x18 /home/bseip/MentorGraphics/Sourcery_CodeBench_Lite_for_ARM_EABI/arm-none-eabi/lib/libstdc++.a(functexcept.o)

.ARM.extab.text._ZSt20__throw_length_errorPKc
                0x00047ae8       0x18
 .ARM.extab.text._ZSt20__throw_length_errorPKc
                0x00047ae8       0x18 /home/bseip/MentorGraphics/Sourcery_CodeBench_Lite_for_ARM_EABI/arm-none-eabi/lib/libstdc++.a(functexcept.o)

.ARM.extab.text._ZSt20__throw_out_of_rangePKc
                0x00047b00       0x18
 .ARM.extab.text._ZSt20__throw_out_of_rangePKc
                0x00047b00       0x18 /home/bseip/MentorGraphics/Sourcery_CodeBench_Lite_for_ARM_EABI/arm-none-eabi/lib/libstdc++.a(functexcept.o)

.ARM.extab.text._ZSt21__throw_runtime_errorPKc
                0x00047b18       0x18
 .ARM.extab.text._ZSt21__throw_runtime_errorPKc
                0x00047b18       0x18 /home/bseip/MentorGraphics/Sourcery_CodeBench_Lite_for_ARM_EABI/arm-none-eabi/lib/libstdc++.a(functexcept.o)

.ARM.extab.text._ZSt19__throw_range_errorPKc
                0x00047b30       0x18
 .ARM.extab.text._ZSt19__throw_range_errorPKc
                0x00047b30       0x18 /home/bseip/MentorGraphics/Sourcery_CodeBench_Lite_for_ARM_EABI/arm-none-eabi/lib/libstdc++.a(functexcept.o)

.ARM.extab.text._ZSt22__throw_overflow_errorPKc
                0x00047b48       0x18
 .ARM.extab.text._ZSt22__throw_overflow_errorPKc
                0x00047b48       0x18 /home/bseip/MentorGraphics/Sourcery_CodeBench_Lite_for_ARM_EABI/arm-none-eabi/lib/libstdc++.a(functexcept.o)

.ARM.extab.text._ZSt23__throw_underflow_errorPKc
                0x00047b60       0x18
 .ARM.extab.text._ZSt23__throw_underflow_errorPKc
                0x00047b60       0x18 /home/bseip/MentorGraphics/Sourcery_CodeBench_Lite_for_ARM_EABI/arm-none-eabi/lib/libstdc++.a(functexcept.o)

.ARM.extab.text._ZSt19__throw_ios_failurePKc
                0x00047b78       0x14
 .ARM.extab.text._ZSt19__throw_ios_failurePKc
                0x00047b78       0x14 /home/bseip/MentorGraphics/Sourcery_CodeBench_Lite_for_ARM_EABI/arm-none-eabi/lib/libstdc++.a(functexcept.o)

.ARM.extab.text._ZSt20__throw_system_errori
                0x00047b8c       0x1c
 .ARM.extab.text._ZSt20__throw_system_errori
                0x00047b8c       0x1c /home/bseip/MentorGraphics/Sourcery_CodeBench_Lite_for_ARM_EABI/arm-none-eabi/lib/libstdc++.a(functexcept.o)

.ARM.extab.text._ZSt20__throw_future_errori
                0x00047ba8       0x18
 .ARM.extab.text._ZSt20__throw_future_errori
                0x00047ba8       0x18 /home/bseip/MentorGraphics/Sourcery_CodeBench_Lite_for_ARM_EABI/arm-none-eabi/lib/libstdc++.a(functexcept.o)

.ARM.extab.text._ZSt25__throw_bad_function_callv
                0x00047bc0        0xc
 .ARM.extab.text._ZSt25__throw_bad_function_callv
                0x00047bc0        0xc /home/bseip/MentorGraphics/Sourcery_CodeBench_Lite_for_ARM_EABI/arm-none-eabi/lib/libstdc++.a(functexcept.o)

.ARM.extab.text._ZSt19__throw_regex_errorNSt15regex_constants10error_typeE
                0x00047bcc       0x14
 .ARM.extab.text._ZSt19__throw_regex_errorNSt15regex_constants10error_typeE
                0x00047bcc       0x14 /home/bseip/MentorGraphics/Sourcery_CodeBench_Lite_for_ARM_EABI/arm-none-eabi/lib/libstdc++.a(functexcept.o)

.ARM.extab.text._ZNKSs4dataEv
                0x00047be0        0x0
 .ARM.extab.text._ZNKSs4dataEv
                0x00047be0        0x0 /home/bseip/MentorGraphics/Sourcery_CodeBench_Lite_for_ARM_EABI/arm-none-eabi/lib/libstdc++.a(string-inst.o)

.ARM.extab.text._ZNKSs6lengthEv
                0x00047be0        0x0
 .ARM.extab.text._ZNKSs6lengthEv
                0x00047be0        0x0 /home/bseip/MentorGraphics/Sourcery_CodeBench_Lite_for_ARM_EABI/arm-none-eabi/lib/libstdc++.a(string-inst.o)

.ARM.extab.text._ZNKSs7_M_dataEv
                0x00047be0        0x0
 .ARM.extab.text._ZNKSs7_M_dataEv
                0x00047be0        0x0 /home/bseip/MentorGraphics/Sourcery_CodeBench_Lite_for_ARM_EABI/arm-none-eabi/lib/libstdc++.a(string-inst.o)

.ARM.extab.text._ZNSs7_M_dataEPc
                0x00047be0        0x0
 .ARM.extab.text._ZNSs7_M_dataEPc
                0x00047be0        0x0 /home/bseip/MentorGraphics/Sourcery_CodeBench_Lite_for_ARM_EABI/arm-none-eabi/lib/libstdc++.a(string-inst.o)

.ARM.extab.text._ZNKSs6_M_repEv
                0x00047be0        0x0
 .ARM.extab.text._ZNKSs6_M_repEv
                0x00047be0        0x0 /home/bseip/MentorGraphics/Sourcery_CodeBench_Lite_for_ARM_EABI/arm-none-eabi/lib/libstdc++.a(string-inst.o)

.ARM.extab.text._ZNKSs9_M_ibeginEv
                0x00047be0        0x0
 .ARM.extab.text._ZNKSs9_M_ibeginEv
                0x00047be0        0x0 /home/bseip/MentorGraphics/Sourcery_CodeBench_Lite_for_ARM_EABI/arm-none-eabi/lib/libstdc++.a(string-inst.o)

.ARM.extab.text._ZNKSs7_M_iendEv
                0x00047be0        0x0
 .ARM.extab.text._ZNKSs7_M_iendEv
                0x00047be0        0x0 /home/bseip/MentorGraphics/Sourcery_CodeBench_Lite_for_ARM_EABI/arm-none-eabi/lib/libstdc++.a(string-inst.o)

.ARM.extab.text._ZNKSs8_M_checkEjPKc
                0x00047be0        0xc
 .ARM.extab.text._ZNKSs8_M_checkEjPKc
                0x00047be0        0xc /home/bseip/MentorGraphics/Sourcery_CodeBench_Lite_for_ARM_EABI/arm-none-eabi/lib/libstdc++.a(string-inst.o)

.ARM.extab.text._ZNKSs15_M_check_lengthEjjPKc
                0x00047bec        0xc
 .ARM.extab.text._ZNKSs15_M_check_lengthEjjPKc
                0x00047bec        0xc /home/bseip/MentorGraphics/Sourcery_CodeBench_Lite_for_ARM_EABI/arm-none-eabi/lib/libstdc++.a(string-inst.o)

.ARM.extab.text._ZNKSs8_M_limitEjj
                0x00047bf8        0x0
 .ARM.extab.text._ZNKSs8_M_limitEjj
                0x00047bf8        0x0 /home/bseip/MentorGraphics/Sourcery_CodeBench_Lite_for_ARM_EABI/arm-none-eabi/lib/libstdc++.a(string-inst.o)

.ARM.extab.text._ZNKSs11_M_disjunctEPKc
                0x00047bf8        0x0
 .ARM.extab.text._ZNKSs11_M_disjunctEPKc
                0x00047bf8        0x0 /home/bseip/MentorGraphics/Sourcery_CodeBench_Lite_for_ARM_EABI/arm-none-eabi/lib/libstdc++.a(string-inst.o)

.ARM.extab.text._ZNSs7_M_copyEPcPKcj
                0x00047bf8        0x0
 .ARM.extab.text._ZNSs7_M_copyEPcPKcj
                0x00047bf8        0x0 /home/bseip/MentorGraphics/Sourcery_CodeBench_Lite_for_ARM_EABI/arm-none-eabi/lib/libstdc++.a(string-inst.o)

.ARM.extab.text._ZNSs7_M_moveEPcPKcj
                0x00047bf8        0x0
 .ARM.extab.text._ZNSs7_M_moveEPcPKcj
                0x00047bf8        0x0 /home/bseip/MentorGraphics/Sourcery_CodeBench_Lite_for_ARM_EABI/arm-none-eabi/lib/libstdc++.a(string-inst.o)

.ARM.extab.text._ZNSs9_M_assignEPcjc
                0x00047bf8        0x0
 .ARM.extab.text._ZNSs9_M_assignEPcjc
                0x00047bf8        0x0 /home/bseip/MentorGraphics/Sourcery_CodeBench_Lite_for_ARM_EABI/arm-none-eabi/lib/libstdc++.a(string-inst.o)

.ARM.extab.text._ZNSs13_S_copy_charsEPcN9__gnu_cxx17__normal_iteratorIS_SsEES2_
                0x00047bf8        0x0
 .ARM.extab.text._ZNSs13_S_copy_charsEPcN9__gnu_cxx17__normal_iteratorIS_SsEES2_
                0x00047bf8        0x0 /home/bseip/MentorGraphics/Sourcery_CodeBench_Lite_for_ARM_EABI/arm-none-eabi/lib/libstdc++.a(string-inst.o)

.ARM.extab.text._ZNSs13_S_copy_charsEPcN9__gnu_cxx17__normal_iteratorIPKcSsEES4_
                0x00047bf8        0x0
 .ARM.extab.text._ZNSs13_S_copy_charsEPcN9__gnu_cxx17__normal_iteratorIPKcSsEES4_
                0x00047bf8        0x0 /home/bseip/MentorGraphics/Sourcery_CodeBench_Lite_for_ARM_EABI/arm-none-eabi/lib/libstdc++.a(string-inst.o)

.ARM.extab.text._ZNSs13_S_copy_charsEPcS_S_
                0x00047bf8        0x0
 .ARM.extab.text._ZNSs13_S_copy_charsEPcS_S_
                0x00047bf8        0x0 /home/bseip/MentorGraphics/Sourcery_CodeBench_Lite_for_ARM_EABI/arm-none-eabi/lib/libstdc++.a(string-inst.o)

.ARM.extab.text._ZNSs13_S_copy_charsEPcPKcS1_
                0x00047bf8        0x0
 .ARM.extab.text._ZNSs13_S_copy_charsEPcPKcS1_
                0x00047bf8        0x0 /home/bseip/MentorGraphics/Sourcery_CodeBench_Lite_for_ARM_EABI/arm-none-eabi/lib/libstdc++.a(string-inst.o)

.ARM.extab.text._ZNSs10_S_compareEjj
                0x00047bf8        0x0
 .ARM.extab.text._ZNSs10_S_compareEjj
                0x00047bf8        0x0 /home/bseip/MentorGraphics/Sourcery_CodeBench_Lite_for_ARM_EABI/arm-none-eabi/lib/libstdc++.a(string-inst.o)

.ARM.extab.text._ZNSs12_S_empty_repEv
                0x00047bf8        0x0
 .ARM.extab.text._ZNSs12_S_empty_repEv
                0x00047bf8        0x0 /home/bseip/MentorGraphics/Sourcery_CodeBench_Lite_for_ARM_EABI/arm-none-eabi/lib/libstdc++.a(string-inst.o)

.ARM.extab.text._ZNSsC2Ev
                0x00047bf8        0x0
 .ARM.extab.text._ZNSsC2Ev
                0x00047bf8        0x0 /home/bseip/MentorGraphics/Sourcery_CodeBench_Lite_for_ARM_EABI/arm-none-eabi/lib/libstdc++.a(string-inst.o)

.ARM.extab.text._ZNSsC2EOSs
                0x00047bf8        0x0
 .ARM.extab.text._ZNSsC2EOSs
                0x00047bf8        0x0 /home/bseip/MentorGraphics/Sourcery_CodeBench_Lite_for_ARM_EABI/arm-none-eabi/lib/libstdc++.a(string-inst.o)

.ARM.extab.text._ZNKSs5beginEv
                0x00047bf8        0x0
 .ARM.extab.text._ZNKSs5beginEv
                0x00047bf8        0x0 /home/bseip/MentorGraphics/Sourcery_CodeBench_Lite_for_ARM_EABI/arm-none-eabi/lib/libstdc++.a(string-inst.o)

.ARM.extab.text._ZNKSs3endEv
                0x00047bf8        0x0
 .ARM.extab.text._ZNKSs3endEv
                0x00047bf8        0x0 /home/bseip/MentorGraphics/Sourcery_CodeBench_Lite_for_ARM_EABI/arm-none-eabi/lib/libstdc++.a(string-inst.o)

.ARM.extab.text._ZNKSs6rbeginEv
                0x00047bf8        0x0
 .ARM.extab.text._ZNKSs6rbeginEv
                0x00047bf8        0x0 /home/bseip/MentorGraphics/Sourcery_CodeBench_Lite_for_ARM_EABI/arm-none-eabi/lib/libstdc++.a(string-inst.o)

.ARM.extab.text._ZNKSs4rendEv
                0x00047bf8        0x0
 .ARM.extab.text._ZNKSs4rendEv
                0x00047bf8        0x0 /home/bseip/MentorGraphics/Sourcery_CodeBench_Lite_for_ARM_EABI/arm-none-eabi/lib/libstdc++.a(string-inst.o)

.ARM.extab.text._ZNKSs6cbeginEv
                0x00047bf8        0x0
 .ARM.extab.text._ZNKSs6cbeginEv
                0x00047bf8        0x0 /home/bseip/MentorGraphics/Sourcery_CodeBench_Lite_for_ARM_EABI/arm-none-eabi/lib/libstdc++.a(string-inst.o)

.ARM.extab.text._ZNKSs4cendEv
                0x00047bf8        0x0
 .ARM.extab.text._ZNKSs4cendEv
                0x00047bf8        0x0 /home/bseip/MentorGraphics/Sourcery_CodeBench_Lite_for_ARM_EABI/arm-none-eabi/lib/libstdc++.a(string-inst.o)

.ARM.extab.text._ZNKSs7crbeginEv
                0x00047bf8        0x0
 .ARM.extab.text._ZNKSs7crbeginEv
                0x00047bf8        0x0 /home/bseip/MentorGraphics/Sourcery_CodeBench_Lite_for_ARM_EABI/arm-none-eabi/lib/libstdc++.a(string-inst.o)

.ARM.extab.text._ZNKSs5crendEv
                0x00047bf8        0x0
 .ARM.extab.text._ZNKSs5crendEv
                0x00047bf8        0x0 /home/bseip/MentorGraphics/Sourcery_CodeBench_Lite_for_ARM_EABI/arm-none-eabi/lib/libstdc++.a(string-inst.o)

.ARM.extab.text._ZNKSs4sizeEv
                0x00047bf8        0x0
 .ARM.extab.text._ZNKSs4sizeEv
                0x00047bf8        0x0 /home/bseip/MentorGraphics/Sourcery_CodeBench_Lite_for_ARM_EABI/arm-none-eabi/lib/libstdc++.a(string-inst.o)

.ARM.extab.text._ZNKSs8max_sizeEv
                0x00047bf8        0x0
 .ARM.extab.text._ZNKSs8max_sizeEv
                0x00047bf8        0x0 /home/bseip/MentorGraphics/Sourcery_CodeBench_Lite_for_ARM_EABI/arm-none-eabi/lib/libstdc++.a(string-inst.o)

.ARM.extab.text._ZNKSs8capacityEv
                0x00047bf8        0x0
 .ARM.extab.text._ZNKSs8capacityEv
                0x00047bf8        0x0 /home/bseip/MentorGraphics/Sourcery_CodeBench_Lite_for_ARM_EABI/arm-none-eabi/lib/libstdc++.a(string-inst.o)

.ARM.extab.text._ZNKSs5emptyEv
                0x00047bf8        0x0
 .ARM.extab.text._ZNKSs5emptyEv
                0x00047bf8        0x0 /home/bseip/MentorGraphics/Sourcery_CodeBench_Lite_for_ARM_EABI/arm-none-eabi/lib/libstdc++.a(string-inst.o)

.ARM.extab.text._ZNKSsixEj
                0x00047bf8        0x0
 .ARM.extab.text._ZNKSsixEj
                0x00047bf8        0x0 /home/bseip/MentorGraphics/Sourcery_CodeBench_Lite_for_ARM_EABI/arm-none-eabi/lib/libstdc++.a(string-inst.o)

.ARM.extab.text._ZNKSs2atEj
                0x00047bf8        0xc
 .ARM.extab.text._ZNKSs2atEj
                0x00047bf8        0xc /home/bseip/MentorGraphics/Sourcery_CodeBench_Lite_for_ARM_EABI/arm-none-eabi/lib/libstdc++.a(string-inst.o)

.ARM.extab.text._ZNKSs5frontEv
                0x00047c04        0x0
 .ARM.extab.text._ZNKSs5frontEv
                0x00047c04        0x0 /home/bseip/MentorGraphics/Sourcery_CodeBench_Lite_for_ARM_EABI/arm-none-eabi/lib/libstdc++.a(string-inst.o)

.ARM.extab.text._ZNKSs4backEv
                0x00047c04        0x0
 .ARM.extab.text._ZNKSs4backEv
                0x00047c04        0x0 /home/bseip/MentorGraphics/Sourcery_CodeBench_Lite_for_ARM_EABI/arm-none-eabi/lib/libstdc++.a(string-inst.o)

.ARM.extab.text._ZNKSs4copyEPcjj
                0x00047c04        0x0
 .ARM.extab.text._ZNKSs4copyEPcjj
                0x00047c04        0x0 /home/bseip/MentorGraphics/Sourcery_CodeBench_Lite_for_ARM_EABI/arm-none-eabi/lib/libstdc++.a(string-inst.o)

.ARM.extab.text._ZNSs4swapERSs
                0x00047c04        0x0
 .ARM.extab.text._ZNSs4swapERSs
                0x00047c04        0x0 /home/bseip/MentorGraphics/Sourcery_CodeBench_Lite_for_ARM_EABI/arm-none-eabi/lib/libstdc++.a(string-inst.o)

.ARM.extab.text._ZNSsaSEOSs
                0x00047c04        0x0
 .ARM.extab.text._ZNSsaSEOSs
                0x00047c04        0x0 /home/bseip/MentorGraphics/Sourcery_CodeBench_Lite_for_ARM_EABI/arm-none-eabi/lib/libstdc++.a(string-inst.o)

.ARM.extab.text._ZNSs6assignEOSs
                0x00047c04        0x0
 .ARM.extab.text._ZNSs6assignEOSs
                0x00047c04        0x0 /home/bseip/MentorGraphics/Sourcery_CodeBench_Lite_for_ARM_EABI/arm-none-eabi/lib/libstdc++.a(string-inst.o)

.ARM.extab.text._ZNKSs5c_strEv
                0x00047c04        0x0
 .ARM.extab.text._ZNKSs5c_strEv
                0x00047c04        0x0 /home/bseip/MentorGraphics/Sourcery_CodeBench_Lite_for_ARM_EABI/arm-none-eabi/lib/libstdc++.a(string-inst.o)

.ARM.extab.text._ZNKSs13get_allocatorEv
                0x00047c04        0x0
 .ARM.extab.text._ZNKSs13get_allocatorEv
                0x00047c04        0x0 /home/bseip/MentorGraphics/Sourcery_CodeBench_Lite_for_ARM_EABI/arm-none-eabi/lib/libstdc++.a(string-inst.o)

.ARM.extab.text._ZNKSs4findEPKcjj
                0x00047c04        0x0
 .ARM.extab.text._ZNKSs4findEPKcjj
                0x00047c04        0x0 /home/bseip/MentorGraphics/Sourcery_CodeBench_Lite_for_ARM_EABI/arm-none-eabi/lib/libstdc++.a(string-inst.o)

.ARM.extab.text._ZNKSs4findERKSsj
                0x00047c04       0x10
 .ARM.extab.text._ZNKSs4findERKSsj
                0x00047c04       0x10 /home/bseip/MentorGraphics/Sourcery_CodeBench_Lite_for_ARM_EABI/arm-none-eabi/lib/libstdc++.a(string-inst.o)

.ARM.extab.text._ZNKSs4findEPKcj
                0x00047c14        0x0
 .ARM.extab.text._ZNKSs4findEPKcj
                0x00047c14        0x0 /home/bseip/MentorGraphics/Sourcery_CodeBench_Lite_for_ARM_EABI/arm-none-eabi/lib/libstdc++.a(string-inst.o)

.ARM.extab.text._ZNKSs4findEcj
                0x00047c14        0x0
 .ARM.extab.text._ZNKSs4findEcj
                0x00047c14        0x0 /home/bseip/MentorGraphics/Sourcery_CodeBench_Lite_for_ARM_EABI/arm-none-eabi/lib/libstdc++.a(string-inst.o)

.ARM.extab.text._ZNKSs5rfindEPKcjj
                0x00047c14        0x0
 .ARM.extab.text._ZNKSs5rfindEPKcjj
                0x00047c14        0x0 /home/bseip/MentorGraphics/Sourcery_CodeBench_Lite_for_ARM_EABI/arm-none-eabi/lib/libstdc++.a(string-inst.o)

.ARM.extab.text._ZNKSs5rfindERKSsj
                0x00047c14       0x10
 .ARM.extab.text._ZNKSs5rfindERKSsj
                0x00047c14       0x10 /home/bseip/MentorGraphics/Sourcery_CodeBench_Lite_for_ARM_EABI/arm-none-eabi/lib/libstdc++.a(string-inst.o)

.ARM.extab.text._ZNKSs5rfindEPKcj
                0x00047c24        0x0
 .ARM.extab.text._ZNKSs5rfindEPKcj
                0x00047c24        0x0 /home/bseip/MentorGraphics/Sourcery_CodeBench_Lite_for_ARM_EABI/arm-none-eabi/lib/libstdc++.a(string-inst.o)

.ARM.extab.text._ZNKSs5rfindEcj
                0x00047c24        0x0
 .ARM.extab.text._ZNKSs5rfindEcj
                0x00047c24        0x0 /home/bseip/MentorGraphics/Sourcery_CodeBench_Lite_for_ARM_EABI/arm-none-eabi/lib/libstdc++.a(string-inst.o)

.ARM.extab.text._ZNKSs13find_first_ofEPKcjj
                0x00047c24        0x0
 .ARM.extab.text._ZNKSs13find_first_ofEPKcjj
                0x00047c24        0x0 /home/bseip/MentorGraphics/Sourcery_CodeBench_Lite_for_ARM_EABI/arm-none-eabi/lib/libstdc++.a(string-inst.o)

.ARM.extab.text._ZNKSs13find_first_ofERKSsj
                0x00047c24       0x10
 .ARM.extab.text._ZNKSs13find_first_ofERKSsj
                0x00047c24       0x10 /home/bseip/MentorGraphics/Sourcery_CodeBench_Lite_for_ARM_EABI/arm-none-eabi/lib/libstdc++.a(string-inst.o)

.ARM.extab.text._ZNKSs13find_first_ofEPKcj
                0x00047c34        0x0
 .ARM.extab.text._ZNKSs13find_first_ofEPKcj
                0x00047c34        0x0 /home/bseip/MentorGraphics/Sourcery_CodeBench_Lite_for_ARM_EABI/arm-none-eabi/lib/libstdc++.a(string-inst.o)

.ARM.extab.text._ZNKSs13find_first_ofEcj
                0x00047c34        0x0
 .ARM.extab.text._ZNKSs13find_first_ofEcj
                0x00047c34        0x0 /home/bseip/MentorGraphics/Sourcery_CodeBench_Lite_for_ARM_EABI/arm-none-eabi/lib/libstdc++.a(string-inst.o)

.ARM.extab.text._ZNKSs12find_last_ofEPKcjj
                0x00047c34        0x0
 .ARM.extab.text._ZNKSs12find_last_ofEPKcjj
                0x00047c34        0x0 /home/bseip/MentorGraphics/Sourcery_CodeBench_Lite_for_ARM_EABI/arm-none-eabi/lib/libstdc++.a(string-inst.o)

.ARM.extab.text._ZNKSs12find_last_ofERKSsj
                0x00047c34       0x10
 .ARM.extab.text._ZNKSs12find_last_ofERKSsj
                0x00047c34       0x10 /home/bseip/MentorGraphics/Sourcery_CodeBench_Lite_for_ARM_EABI/arm-none-eabi/lib/libstdc++.a(string-inst.o)

.ARM.extab.text._ZNKSs12find_last_ofEPKcj
                0x00047c44        0x0
 .ARM.extab.text._ZNKSs12find_last_ofEPKcj
                0x00047c44        0x0 /home/bseip/MentorGraphics/Sourcery_CodeBench_Lite_for_ARM_EABI/arm-none-eabi/lib/libstdc++.a(string-inst.o)

.ARM.extab.text._ZNKSs12find_last_ofEcj
                0x00047c44        0x0
 .ARM.extab.text._ZNKSs12find_last_ofEcj
                0x00047c44        0x0 /home/bseip/MentorGraphics/Sourcery_CodeBench_Lite_for_ARM_EABI/arm-none-eabi/lib/libstdc++.a(string-inst.o)

.ARM.extab.text._ZNKSs17find_first_not_ofEPKcjj
                0x00047c44        0x0
 .ARM.extab.text._ZNKSs17find_first_not_ofEPKcjj
                0x00047c44        0x0 /home/bseip/MentorGraphics/Sourcery_CodeBench_Lite_for_ARM_EABI/arm-none-eabi/lib/libstdc++.a(string-inst.o)

.ARM.extab.text._ZNKSs17find_first_not_ofERKSsj
                0x00047c44       0x10
 .ARM.extab.text._ZNKSs17find_first_not_ofERKSsj
                0x00047c44       0x10 /home/bseip/MentorGraphics/Sourcery_CodeBench_Lite_for_ARM_EABI/arm-none-eabi/lib/libstdc++.a(string-inst.o)

.ARM.extab.text._ZNKSs17find_first_not_ofEPKcj
                0x00047c54        0x0
 .ARM.extab.text._ZNKSs17find_first_not_ofEPKcj
                0x00047c54        0x0 /home/bseip/MentorGraphics/Sourcery_CodeBench_Lite_for_ARM_EABI/arm-none-eabi/lib/libstdc++.a(string-inst.o)

.ARM.extab.text._ZNKSs17find_first_not_ofEcj
                0x00047c54        0x0
 .ARM.extab.text._ZNKSs17find_first_not_ofEcj
                0x00047c54        0x0 /home/bseip/MentorGraphics/Sourcery_CodeBench_Lite_for_ARM_EABI/arm-none-eabi/lib/libstdc++.a(string-inst.o)

.ARM.extab.text._ZNKSs16find_last_not_ofEPKcjj
                0x00047c54        0x0
 .ARM.extab.text._ZNKSs16find_last_not_ofEPKcjj
                0x00047c54        0x0 /home/bseip/MentorGraphics/Sourcery_CodeBench_Lite_for_ARM_EABI/arm-none-eabi/lib/libstdc++.a(string-inst.o)

.ARM.extab.text._ZNKSs16find_last_not_ofERKSsj
                0x00047c54       0x10
 .ARM.extab.text._ZNKSs16find_last_not_ofERKSsj
                0x00047c54       0x10 /home/bseip/MentorGraphics/Sourcery_CodeBench_Lite_for_ARM_EABI/arm-none-eabi/lib/libstdc++.a(string-inst.o)

.ARM.extab.text._ZNKSs16find_last_not_ofEPKcj
                0x00047c64        0x0
 .ARM.extab.text._ZNKSs16find_last_not_ofEPKcj
                0x00047c64        0x0 /home/bseip/MentorGraphics/Sourcery_CodeBench_Lite_for_ARM_EABI/arm-none-eabi/lib/libstdc++.a(string-inst.o)

.ARM.extab.text._ZNKSs16find_last_not_ofEcj
                0x00047c64        0x0
 .ARM.extab.text._ZNKSs16find_last_not_ofEcj
                0x00047c64        0x0 /home/bseip/MentorGraphics/Sourcery_CodeBench_Lite_for_ARM_EABI/arm-none-eabi/lib/libstdc++.a(string-inst.o)

.ARM.extab.text._ZNKSs7compareERKSs
                0x00047c64        0x0
 .ARM.extab.text._ZNKSs7compareERKSs
                0x00047c64        0x0 /home/bseip/MentorGraphics/Sourcery_CodeBench_Lite_for_ARM_EABI/arm-none-eabi/lib/libstdc++.a(string-inst.o)

.ARM.extab.text._ZNKSs7compareEjjRKSs
                0x00047c64        0x0
 .ARM.extab.text._ZNKSs7compareEjjRKSs
                0x00047c64        0x0 /home/bseip/MentorGraphics/Sourcery_CodeBench_Lite_for_ARM_EABI/arm-none-eabi/lib/libstdc++.a(string-inst.o)

.ARM.extab.text._ZNKSs7compareEjjRKSsjj
                0x00047c64        0x0
 .ARM.extab.text._ZNKSs7compareEjjRKSsjj
                0x00047c64        0x0 /home/bseip/MentorGraphics/Sourcery_CodeBench_Lite_for_ARM_EABI/arm-none-eabi/lib/libstdc++.a(string-inst.o)

.ARM.extab.text._ZNKSs7compareEPKc
                0x00047c64        0x0
 .ARM.extab.text._ZNKSs7compareEPKc
                0x00047c64        0x0 /home/bseip/MentorGraphics/Sourcery_CodeBench_Lite_for_ARM_EABI/arm-none-eabi/lib/libstdc++.a(string-inst.o)

.ARM.extab.text._ZNKSs7compareEjjPKc
                0x00047c64        0x0
 .ARM.extab.text._ZNKSs7compareEjjPKc
                0x00047c64        0x0 /home/bseip/MentorGraphics/Sourcery_CodeBench_Lite_for_ARM_EABI/arm-none-eabi/lib/libstdc++.a(string-inst.o)

.ARM.extab.text._ZNKSs7compareEjjPKcj
                0x00047c64        0x0
 .ARM.extab.text._ZNKSs7compareEjjPKcj
                0x00047c64        0x0 /home/bseip/MentorGraphics/Sourcery_CodeBench_Lite_for_ARM_EABI/arm-none-eabi/lib/libstdc++.a(string-inst.o)

.ARM.extab.text._ZNSs12_Alloc_hiderC2EPcRKSaIcE
                0x00047c64        0x0
 .ARM.extab.text._ZNSs12_Alloc_hiderC2EPcRKSaIcE
                0x00047c64        0x0 /home/bseip/MentorGraphics/Sourcery_CodeBench_Lite_for_ARM_EABI/arm-none-eabi/lib/libstdc++.a(string-inst.o)

.ARM.extab.text._ZNSs4_Rep12_S_empty_repEv
                0x00047c64        0x0
 .ARM.extab.text._ZNSs4_Rep12_S_empty_repEv
                0x00047c64        0x0 /home/bseip/MentorGraphics/Sourcery_CodeBench_Lite_for_ARM_EABI/arm-none-eabi/lib/libstdc++.a(string-inst.o)

.ARM.extab.text._ZNKSs4_Rep12_M_is_leakedEv
                0x00047c64        0x0
 .ARM.extab.text._ZNKSs4_Rep12_M_is_leakedEv
                0x00047c64        0x0 /home/bseip/MentorGraphics/Sourcery_CodeBench_Lite_for_ARM_EABI/arm-none-eabi/lib/libstdc++.a(string-inst.o)

.ARM.extab.text._ZNKSs4_Rep12_M_is_sharedEv
                0x00047c64        0x0
 .ARM.extab.text._ZNKSs4_Rep12_M_is_sharedEv
                0x00047c64        0x0 /home/bseip/MentorGraphics/Sourcery_CodeBench_Lite_for_ARM_EABI/arm-none-eabi/lib/libstdc++.a(string-inst.o)

.ARM.extab.text._ZNSs4_Rep13_M_set_leakedEv
                0x00047c64        0x0
 .ARM.extab.text._ZNSs4_Rep13_M_set_leakedEv
                0x00047c64        0x0 /home/bseip/MentorGraphics/Sourcery_CodeBench_Lite_for_ARM_EABI/arm-none-eabi/lib/libstdc++.a(string-inst.o)

.ARM.extab.text._ZNSs4_Rep15_M_set_sharableEv
                0x00047c64        0x0
 .ARM.extab.text._ZNSs4_Rep15_M_set_sharableEv
                0x00047c64        0x0 /home/bseip/MentorGraphics/Sourcery_CodeBench_Lite_for_ARM_EABI/arm-none-eabi/lib/libstdc++.a(string-inst.o)

.ARM.extab.text._ZNSs4_Rep26_M_set_length_and_sharableEj
                0x00047c64        0x0
 .ARM.extab.text._ZNSs4_Rep26_M_set_length_and_sharableEj
                0x00047c64        0x0 /home/bseip/MentorGraphics/Sourcery_CodeBench_Lite_for_ARM_EABI/arm-none-eabi/lib/libstdc++.a(string-inst.o)

.ARM.extab.text._ZNSs4_Rep10_M_refdataEv
                0x00047c64        0x0
 .ARM.extab.text._ZNSs4_Rep10_M_refdataEv
                0x00047c64        0x0 /home/bseip/MentorGraphics/Sourcery_CodeBench_Lite_for_ARM_EABI/arm-none-eabi/lib/libstdc++.a(string-inst.o)

.ARM.extab.text._ZNSs4_Rep9_S_createEjjRKSaIcE
                0x00047c64        0x0
 .ARM.extab.text._ZNSs4_Rep9_S_createEjjRKSaIcE
                0x00047c64        0x0 /home/bseip/MentorGraphics/Sourcery_CodeBench_Lite_for_ARM_EABI/arm-none-eabi/lib/libstdc++.a(string-inst.o)

.ARM.extab.text._ZNSs12_S_constructEjcRKSaIcE
                0x00047c64        0x0
 .ARM.extab.text._ZNSs12_S_constructEjcRKSaIcE
                0x00047c64        0x0 /home/bseip/MentorGraphics/Sourcery_CodeBench_Lite_for_ARM_EABI/arm-none-eabi/lib/libstdc++.a(string-inst.o)

.ARM.extab.text._ZNSsC2ERKSaIcE
                0x00047c64        0x0
 .ARM.extab.text._ZNSsC2ERKSaIcE
                0x00047c64        0x0 /home/bseip/MentorGraphics/Sourcery_CodeBench_Lite_for_ARM_EABI/arm-none-eabi/lib/libstdc++.a(string-inst.o)

.ARM.extab.text._ZNSsC2EjcRKSaIcE
                0x00047c64        0x0
 .ARM.extab.text._ZNSsC2EjcRKSaIcE
                0x00047c64        0x0 /home/bseip/MentorGraphics/Sourcery_CodeBench_Lite_for_ARM_EABI/arm-none-eabi/lib/libstdc++.a(string-inst.o)

.ARM.extab.text._ZNSs18_S_construct_aux_2EjcRKSaIcE
                0x00047c64        0xc
 .ARM.extab.text._ZNSs18_S_construct_aux_2EjcRKSaIcE
                0x00047c64        0xc /home/bseip/MentorGraphics/Sourcery_CodeBench_Lite_for_ARM_EABI/arm-none-eabi/lib/libstdc++.a(string-inst.o)

.ARM.extab.text._ZNSs4_Rep10_M_destroyERKSaIcE
                0x00047c70        0x0
 .ARM.extab.text._ZNSs4_Rep10_M_destroyERKSaIcE
                0x00047c70        0x0 /home/bseip/MentorGraphics/Sourcery_CodeBench_Lite_for_ARM_EABI/arm-none-eabi/lib/libstdc++.a(string-inst.o)

.ARM.extab.text.unlikely._ZNSs4_Rep10_M_disposeERKSaIcE.part.11
                0x00047c70        0x0
 .ARM.extab.text.unlikely._ZNSs4_Rep10_M_disposeERKSaIcE.part.11
                0x00047c70        0x0 /home/bseip/MentorGraphics/Sourcery_CodeBench_Lite_for_ARM_EABI/arm-none-eabi/lib/libstdc++.a(string-inst.o)

.ARM.extab.text._ZNSs4_Rep10_M_disposeERKSaIcE
                0x00047c70        0x0
 .ARM.extab.text._ZNSs4_Rep10_M_disposeERKSaIcE
                0x00047c70        0x0 /home/bseip/MentorGraphics/Sourcery_CodeBench_Lite_for_ARM_EABI/arm-none-eabi/lib/libstdc++.a(string-inst.o)

.ARM.extab.text._ZNSsD2Ev
                0x00047c70        0x0
 .ARM.extab.text._ZNSsD2Ev
                0x00047c70        0x0 /home/bseip/MentorGraphics/Sourcery_CodeBench_Lite_for_ARM_EABI/arm-none-eabi/lib/libstdc++.a(string-inst.o)

.ARM.extab.text._ZNSs9_M_mutateEjjj
                0x00047c70        0x0
 .ARM.extab.text._ZNSs9_M_mutateEjjj
                0x00047c70        0x0 /home/bseip/MentorGraphics/Sourcery_CodeBench_Lite_for_ARM_EABI/arm-none-eabi/lib/libstdc++.a(string-inst.o)

.ARM.extab.text._ZNSs12_M_leak_hardEv
                0x00047c70        0x0
 .ARM.extab.text._ZNSs12_M_leak_hardEv
                0x00047c70        0x0 /home/bseip/MentorGraphics/Sourcery_CodeBench_Lite_for_ARM_EABI/arm-none-eabi/lib/libstdc++.a(string-inst.o)

.ARM.extab.text._ZNSs7_M_leakEv
                0x00047c70        0xc
 .ARM.extab.text._ZNSs7_M_leakEv
                0x00047c70        0xc /home/bseip/MentorGraphics/Sourcery_CodeBench_Lite_for_ARM_EABI/arm-none-eabi/lib/libstdc++.a(string-inst.o)

.ARM.extab.text._ZNSs5beginEv
                0x00047c7c        0xc
 .ARM.extab.text._ZNSs5beginEv
                0x00047c7c        0xc /home/bseip/MentorGraphics/Sourcery_CodeBench_Lite_for_ARM_EABI/arm-none-eabi/lib/libstdc++.a(string-inst.o)

.ARM.extab.text._ZNSs4rendEv
                0x00047c88        0xc
 .ARM.extab.text._ZNSs4rendEv
                0x00047c88        0xc /home/bseip/MentorGraphics/Sourcery_CodeBench_Lite_for_ARM_EABI/arm-none-eabi/lib/libstdc++.a(string-inst.o)

.ARM.extab.text._ZNSs3endEv
                0x00047c94        0xc
 .ARM.extab.text._ZNSs3endEv
                0x00047c94        0xc /home/bseip/MentorGraphics/Sourcery_CodeBench_Lite_for_ARM_EABI/arm-none-eabi/lib/libstdc++.a(string-inst.o)

.ARM.extab.text._ZNSsixEj
                0x00047ca0        0x0
 .ARM.extab.text._ZNSsixEj
                0x00047ca0        0x0 /home/bseip/MentorGraphics/Sourcery_CodeBench_Lite_for_ARM_EABI/arm-none-eabi/lib/libstdc++.a(string-inst.o)

.ARM.extab.text._ZNSs5frontEv
                0x00047ca0        0x0
 .ARM.extab.text._ZNSs5frontEv
                0x00047ca0        0x0 /home/bseip/MentorGraphics/Sourcery_CodeBench_Lite_for_ARM_EABI/arm-none-eabi/lib/libstdc++.a(string-inst.o)

.ARM.extab.text._ZNSs4backEv
                0x00047ca0        0x0
 .ARM.extab.text._ZNSs4backEv
                0x00047ca0        0x0 /home/bseip/MentorGraphics/Sourcery_CodeBench_Lite_for_ARM_EABI/arm-none-eabi/lib/libstdc++.a(string-inst.o)

.ARM.extab.text._ZNSs2atEj
                0x00047ca0        0x0
 .ARM.extab.text._ZNSs2atEj
                0x00047ca0        0x0 /home/bseip/MentorGraphics/Sourcery_CodeBench_Lite_for_ARM_EABI/arm-none-eabi/lib/libstdc++.a(string-inst.o)

.ARM.extab.text._ZNSs6rbeginEv
                0x00047ca0        0xc
 .ARM.extab.text._ZNSs6rbeginEv
                0x00047ca0        0xc /home/bseip/MentorGraphics/Sourcery_CodeBench_Lite_for_ARM_EABI/arm-none-eabi/lib/libstdc++.a(string-inst.o)

.ARM.extab.text._ZNSs5clearEv
                0x00047cac       0x10
 .ARM.extab.text._ZNSs5clearEv
                0x00047cac       0x10 /home/bseip/MentorGraphics/Sourcery_CodeBench_Lite_for_ARM_EABI/arm-none-eabi/lib/libstdc++.a(string-inst.o)

.ARM.extab.text._ZNSs5eraseEjj
                0x00047cbc        0x0
 .ARM.extab.text._ZNSs5eraseEjj
                0x00047cbc        0x0 /home/bseip/MentorGraphics/Sourcery_CodeBench_Lite_for_ARM_EABI/arm-none-eabi/lib/libstdc++.a(string-inst.o)

.ARM.extab.text._ZNSs5eraseEN9__gnu_cxx17__normal_iteratorIPcSsEE
                0x00047cbc        0x0
 .ARM.extab.text._ZNSs5eraseEN9__gnu_cxx17__normal_iteratorIPcSsEE
                0x00047cbc        0x0 /home/bseip/MentorGraphics/Sourcery_CodeBench_Lite_for_ARM_EABI/arm-none-eabi/lib/libstdc++.a(string-inst.o)

.ARM.extab.text._ZNSs5eraseEN9__gnu_cxx17__normal_iteratorIPcSsEES2_
                0x00047cbc        0x0
 .ARM.extab.text._ZNSs5eraseEN9__gnu_cxx17__normal_iteratorIPcSsEES2_
                0x00047cbc        0x0 /home/bseip/MentorGraphics/Sourcery_CodeBench_Lite_for_ARM_EABI/arm-none-eabi/lib/libstdc++.a(string-inst.o)

.ARM.extab.text._ZNSs14_M_replace_auxEjjjc
                0x00047cbc        0x0
 .ARM.extab.text._ZNSs14_M_replace_auxEjjjc
                0x00047cbc        0x0 /home/bseip/MentorGraphics/Sourcery_CodeBench_Lite_for_ARM_EABI/arm-none-eabi/lib/libstdc++.a(string-inst.o)

.ARM.extab.text._ZNSs6assignEjc
                0x00047cbc        0x0
 .ARM.extab.text._ZNSs6assignEjc
                0x00047cbc        0x0 /home/bseip/MentorGraphics/Sourcery_CodeBench_Lite_for_ARM_EABI/arm-none-eabi/lib/libstdc++.a(string-inst.o)

.ARM.extab.text._ZNSsaSEc
                0x00047cbc        0x0
 .ARM.extab.text._ZNSsaSEc
                0x00047cbc        0x0 /home/bseip/MentorGraphics/Sourcery_CodeBench_Lite_for_ARM_EABI/arm-none-eabi/lib/libstdc++.a(string-inst.o)

.ARM.extab.text._ZNSs6insertEjjc
                0x00047cbc        0x0
 .ARM.extab.text._ZNSs6insertEjjc
                0x00047cbc        0x0 /home/bseip/MentorGraphics/Sourcery_CodeBench_Lite_for_ARM_EABI/arm-none-eabi/lib/libstdc++.a(string-inst.o)

.ARM.extab.text._ZNSs6insertEN9__gnu_cxx17__normal_iteratorIPcSsEEc
                0x00047cbc        0x0
 .ARM.extab.text._ZNSs6insertEN9__gnu_cxx17__normal_iteratorIPcSsEEc
                0x00047cbc        0x0 /home/bseip/MentorGraphics/Sourcery_CodeBench_Lite_for_ARM_EABI/arm-none-eabi/lib/libstdc++.a(string-inst.o)

.ARM.extab.text._ZNSs7replaceEjjjc
                0x00047cbc        0x0
 .ARM.extab.text._ZNSs7replaceEjjjc
                0x00047cbc        0x0 /home/bseip/MentorGraphics/Sourcery_CodeBench_Lite_for_ARM_EABI/arm-none-eabi/lib/libstdc++.a(string-inst.o)

.ARM.extab.text._ZNSs7replaceEN9__gnu_cxx17__normal_iteratorIPcSsEES2_jc
                0x00047cbc        0x0
 .ARM.extab.text._ZNSs7replaceEN9__gnu_cxx17__normal_iteratorIPcSsEES2_jc
                0x00047cbc        0x0 /home/bseip/MentorGraphics/Sourcery_CodeBench_Lite_for_ARM_EABI/arm-none-eabi/lib/libstdc++.a(string-inst.o)

.ARM.extab.text._ZNSs6insertEN9__gnu_cxx17__normal_iteratorIPcSsEEjc
                0x00047cbc        0x0
 .ARM.extab.text._ZNSs6insertEN9__gnu_cxx17__normal_iteratorIPcSsEEjc
                0x00047cbc        0x0 /home/bseip/MentorGraphics/Sourcery_CodeBench_Lite_for_ARM_EABI/arm-none-eabi/lib/libstdc++.a(string-inst.o)

.ARM.extab.text._ZNSs15_M_replace_safeEjjPKcj
                0x00047cbc        0x0
 .ARM.extab.text._ZNSs15_M_replace_safeEjjPKcj
                0x00047cbc        0x0 /home/bseip/MentorGraphics/Sourcery_CodeBench_Lite_for_ARM_EABI/arm-none-eabi/lib/libstdc++.a(string-inst.o)

.ARM.extab.text._ZNSs6assignEPKcj
                0x00047cbc        0x0
 .ARM.extab.text._ZNSs6assignEPKcj
                0x00047cbc        0x0 /home/bseip/MentorGraphics/Sourcery_CodeBench_Lite_for_ARM_EABI/arm-none-eabi/lib/libstdc++.a(string-inst.o)

.ARM.extab.text._ZNSsaSESt16initializer_listIcE
                0x00047cbc        0x0
 .ARM.extab.text._ZNSsaSESt16initializer_listIcE
                0x00047cbc        0x0 /home/bseip/MentorGraphics/Sourcery_CodeBench_Lite_for_ARM_EABI/arm-none-eabi/lib/libstdc++.a(string-inst.o)

.ARM.extab.text._ZNSs6assignERKSsjj
                0x00047cbc        0xc
 .ARM.extab.text._ZNSs6assignERKSsjj
                0x00047cbc        0xc /home/bseip/MentorGraphics/Sourcery_CodeBench_Lite_for_ARM_EABI/arm-none-eabi/lib/libstdc++.a(string-inst.o)

.ARM.extab.text._ZNSs6assignEPKc
                0x00047cc8        0x0
 .ARM.extab.text._ZNSs6assignEPKc
                0x00047cc8        0x0 /home/bseip/MentorGraphics/Sourcery_CodeBench_Lite_for_ARM_EABI/arm-none-eabi/lib/libstdc++.a(string-inst.o)

.ARM.extab.text._ZNSs6assignESt16initializer_listIcE
                0x00047cc8        0x0
 .ARM.extab.text._ZNSs6assignESt16initializer_listIcE
                0x00047cc8        0x0 /home/bseip/MentorGraphics/Sourcery_CodeBench_Lite_for_ARM_EABI/arm-none-eabi/lib/libstdc++.a(string-inst.o)

.ARM.extab.text._ZNSsaSEPKc
                0x00047cc8        0x0
 .ARM.extab.text._ZNSsaSEPKc
                0x00047cc8        0x0 /home/bseip/MentorGraphics/Sourcery_CodeBench_Lite_for_ARM_EABI/arm-none-eabi/lib/libstdc++.a(string-inst.o)

.ARM.extab.text._ZNSs6insertEjPKcj
                0x00047cc8        0x0
 .ARM.extab.text._ZNSs6insertEjPKcj
                0x00047cc8        0x0 /home/bseip/MentorGraphics/Sourcery_CodeBench_Lite_for_ARM_EABI/arm-none-eabi/lib/libstdc++.a(string-inst.o)

.ARM.extab.text._ZNSs6insertEN9__gnu_cxx17__normal_iteratorIPcSsEESt16initializer_listIcE
                0x00047cc8        0x0
 .ARM.extab.text._ZNSs6insertEN9__gnu_cxx17__normal_iteratorIPcSsEESt16initializer_listIcE
                0x00047cc8        0x0 /home/bseip/MentorGraphics/Sourcery_CodeBench_Lite_for_ARM_EABI/arm-none-eabi/lib/libstdc++.a(string-inst.o)

.ARM.extab.text._ZNSs6insertEjRKSsjj
                0x00047cc8        0xc
 .ARM.extab.text._ZNSs6insertEjRKSsjj
                0x00047cc8        0xc /home/bseip/MentorGraphics/Sourcery_CodeBench_Lite_for_ARM_EABI/arm-none-eabi/lib/libstdc++.a(string-inst.o)

.ARM.extab.text._ZNSs6insertEjPKc
                0x00047cd4        0x0
 .ARM.extab.text._ZNSs6insertEjPKc
                0x00047cd4        0x0 /home/bseip/MentorGraphics/Sourcery_CodeBench_Lite_for_ARM_EABI/arm-none-eabi/lib/libstdc++.a(string-inst.o)

.ARM.extab.text._ZNSs6insertEjRKSs
                0x00047cd4        0xc
 .ARM.extab.text._ZNSs6insertEjRKSs
                0x00047cd4        0xc /home/bseip/MentorGraphics/Sourcery_CodeBench_Lite_for_ARM_EABI/arm-none-eabi/lib/libstdc++.a(string-inst.o)

.ARM.extab.text._ZNSs8pop_backEv
                0x00047ce0        0xc
 .ARM.extab.text._ZNSs8pop_backEv
                0x00047ce0        0xc /home/bseip/MentorGraphics/Sourcery_CodeBench_Lite_for_ARM_EABI/arm-none-eabi/lib/libstdc++.a(string-inst.o)

.ARM.extab.text._ZNSs4_Rep10_M_refcopyEv
                0x00047cec        0x0
 .ARM.extab.text._ZNSs4_Rep10_M_refcopyEv
                0x00047cec        0x0 /home/bseip/MentorGraphics/Sourcery_CodeBench_Lite_for_ARM_EABI/arm-none-eabi/lib/libstdc++.a(string-inst.o)

.ARM.extab.text._ZNSs4_Rep8_M_cloneERKSaIcEj
                0x00047cec        0x0
 .ARM.extab.text._ZNSs4_Rep8_M_cloneERKSaIcEj
                0x00047cec        0x0 /home/bseip/MentorGraphics/Sourcery_CodeBench_Lite_for_ARM_EABI/arm-none-eabi/lib/libstdc++.a(string-inst.o)

.ARM.extab.text._ZNSs7reserveEj
                0x00047cec        0x0
 .ARM.extab.text._ZNSs7reserveEj
                0x00047cec        0x0 /home/bseip/MentorGraphics/Sourcery_CodeBench_Lite_for_ARM_EABI/arm-none-eabi/lib/libstdc++.a(string-inst.o)

.ARM.extab.text._ZNSs13shrink_to_fitEv
                0x00047cec       0x20
 .ARM.extab.text._ZNSs13shrink_to_fitEv
                0x00047cec       0x20 /home/bseip/MentorGraphics/Sourcery_CodeBench_Lite_for_ARM_EABI/arm-none-eabi/lib/libstdc++.a(string-inst.o)

.ARM.extab.text._ZNSs6appendERKSs
                0x00047d0c        0x0
 .ARM.extab.text._ZNSs6appendERKSs
                0x00047d0c        0x0 /home/bseip/MentorGraphics/Sourcery_CodeBench_Lite_for_ARM_EABI/arm-none-eabi/lib/libstdc++.a(string-inst.o)

.ARM.extab.text._ZNSspLERKSs
                0x00047d0c        0xc
 .ARM.extab.text._ZNSspLERKSs
                0x00047d0c        0xc /home/bseip/MentorGraphics/Sourcery_CodeBench_Lite_for_ARM_EABI/arm-none-eabi/lib/libstdc++.a(string-inst.o)

.ARM.extab.text._ZNSs6appendERKSsjj
                0x00047d18        0x0
 .ARM.extab.text._ZNSs6appendERKSsjj
                0x00047d18        0x0 /home/bseip/MentorGraphics/Sourcery_CodeBench_Lite_for_ARM_EABI/arm-none-eabi/lib/libstdc++.a(string-inst.o)

.ARM.extab.text._ZNSs6appendEPKcj
                0x00047d18        0x0
 .ARM.extab.text._ZNSs6appendEPKcj
                0x00047d18        0x0 /home/bseip/MentorGraphics/Sourcery_CodeBench_Lite_for_ARM_EABI/arm-none-eabi/lib/libstdc++.a(string-inst.o)

.ARM.extab.text._ZNSspLESt16initializer_listIcE
                0x00047d18        0x0
 .ARM.extab.text._ZNSspLESt16initializer_listIcE
                0x00047d18        0x0 /home/bseip/MentorGraphics/Sourcery_CodeBench_Lite_for_ARM_EABI/arm-none-eabi/lib/libstdc++.a(string-inst.o)

.ARM.extab.text._ZNSs6appendEPKc
                0x00047d18        0x0
 .ARM.extab.text._ZNSs6appendEPKc
                0x00047d18        0x0 /home/bseip/MentorGraphics/Sourcery_CodeBench_Lite_for_ARM_EABI/arm-none-eabi/lib/libstdc++.a(string-inst.o)

.ARM.extab.text._ZNSs6appendESt16initializer_listIcE
                0x00047d18        0x0
 .ARM.extab.text._ZNSs6appendESt16initializer_listIcE
                0x00047d18        0x0 /home/bseip/MentorGraphics/Sourcery_CodeBench_Lite_for_ARM_EABI/arm-none-eabi/lib/libstdc++.a(string-inst.o)

.ARM.extab.text._ZNSspLEPKc
                0x00047d18        0x0
 .ARM.extab.text._ZNSspLEPKc
                0x00047d18        0x0 /home/bseip/MentorGraphics/Sourcery_CodeBench_Lite_for_ARM_EABI/arm-none-eabi/lib/libstdc++.a(string-inst.o)

.ARM.extab.text._ZNSs6appendEjc
                0x00047d18        0x0
 .ARM.extab.text._ZNSs6appendEjc
                0x00047d18        0x0 /home/bseip/MentorGraphics/Sourcery_CodeBench_Lite_for_ARM_EABI/arm-none-eabi/lib/libstdc++.a(string-inst.o)

.ARM.extab.text._ZNSs6resizeEjc
                0x00047d18        0xc
 .ARM.extab.text._ZNSs6resizeEjc
                0x00047d18        0xc /home/bseip/MentorGraphics/Sourcery_CodeBench_Lite_for_ARM_EABI/arm-none-eabi/lib/libstdc++.a(string-inst.o)

.ARM.extab.text._ZNSs6resizeEj
                0x00047d24        0xc
 .ARM.extab.text._ZNSs6resizeEj
                0x00047d24        0xc /home/bseip/MentorGraphics/Sourcery_CodeBench_Lite_for_ARM_EABI/arm-none-eabi/lib/libstdc++.a(string-inst.o)

.ARM.extab.text._ZNSs9push_backEc
                0x00047d30        0x0
 .ARM.extab.text._ZNSs9push_backEc
                0x00047d30        0x0 /home/bseip/MentorGraphics/Sourcery_CodeBench_Lite_for_ARM_EABI/arm-none-eabi/lib/libstdc++.a(string-inst.o)

.ARM.extab.text._ZNSspLEc
                0x00047d30        0x0
 .ARM.extab.text._ZNSspLEc
                0x00047d30        0x0 /home/bseip/MentorGraphics/Sourcery_CodeBench_Lite_for_ARM_EABI/arm-none-eabi/lib/libstdc++.a(string-inst.o)

.ARM.extab.text._ZNSs4_Rep7_M_grabERKSaIcES2_
                0x00047d30        0xc
 .ARM.extab.text._ZNSs4_Rep7_M_grabERKSaIcES2_
                0x00047d30        0xc /home/bseip/MentorGraphics/Sourcery_CodeBench_Lite_for_ARM_EABI/arm-none-eabi/lib/libstdc++.a(string-inst.o)

.ARM.extab.text._ZNSsC2ERKSs
                0x00047d3c        0x0
 .ARM.extab.text._ZNSsC2ERKSs
                0x00047d3c        0x0 /home/bseip/MentorGraphics/Sourcery_CodeBench_Lite_for_ARM_EABI/arm-none-eabi/lib/libstdc++.a(string-inst.o)

.ARM.extab.text._ZNSs6assignERKSs
                0x00047d3c        0x0
 .ARM.extab.text._ZNSs6assignERKSs
                0x00047d3c        0x0 /home/bseip/MentorGraphics/Sourcery_CodeBench_Lite_for_ARM_EABI/arm-none-eabi/lib/libstdc++.a(string-inst.o)

.ARM.extab.text._ZNSsaSERKSs
                0x00047d3c        0xc
 .ARM.extab.text._ZNSsaSERKSs
                0x00047d3c        0xc /home/bseip/MentorGraphics/Sourcery_CodeBench_Lite_for_ARM_EABI/arm-none-eabi/lib/libstdc++.a(string-inst.o)

.ARM.extab.text._ZStplIcSt11char_traitsIcESaIcEESbIT_T0_T1_EPKS3_RKS6_
                0x00047d48       0x18
 .ARM.extab.text._ZStplIcSt11char_traitsIcESaIcEESbIT_T0_T1_EPKS3_RKS6_
                0x00047d48       0x18 /home/bseip/MentorGraphics/Sourcery_CodeBench_Lite_for_ARM_EABI/arm-none-eabi/lib/libstdc++.a(string-inst.o)

.ARM.extab.text._ZStplIcSt11char_traitsIcESaIcEESbIT_T0_T1_ES3_RKS6_
                0x00047d60       0x14
 .ARM.extab.text._ZStplIcSt11char_traitsIcESaIcEESbIT_T0_T1_ES3_RKS6_
                0x00047d60       0x14 /home/bseip/MentorGraphics/Sourcery_CodeBench_Lite_for_ARM_EABI/arm-none-eabi/lib/libstdc++.a(string-inst.o)

.ARM.extab.text._ZStplIcSt11char_traitsIcESaIcEESbIT_T0_T1_ERKS6_S8_
                0x00047d74       0x18
 .ARM.extab.text._ZStplIcSt11char_traitsIcESaIcEESbIT_T0_T1_ERKS6_S8_
                0x00047d74       0x18 /home/bseip/MentorGraphics/Sourcery_CodeBench_Lite_for_ARM_EABI/arm-none-eabi/lib/libstdc++.a(string-inst.o)

.ARM.extab.text._ZNSs12_S_constructIN9__gnu_cxx17__normal_iteratorIPcSsEEEES2_T_S4_RKSaIcESt20forward_iterator_tag
                0x00047d8c        0x0
 .ARM.extab.text._ZNSs12_S_constructIN9__gnu_cxx17__normal_iteratorIPcSsEEEES2_T_S4_RKSaIcESt20forward_iterator_tag
                0x00047d8c        0x0 /home/bseip/MentorGraphics/Sourcery_CodeBench_Lite_for_ARM_EABI/arm-none-eabi/lib/libstdc++.a(string-inst.o)

.ARM.extab.text._ZNSsC2IN9__gnu_cxx17__normal_iteratorIPcSsEEEET_S4_RKSaIcE
                0x00047d8c        0x0
 .ARM.extab.text._ZNSsC2IN9__gnu_cxx17__normal_iteratorIPcSsEEEET_S4_RKSaIcE
                0x00047d8c        0x0 /home/bseip/MentorGraphics/Sourcery_CodeBench_Lite_for_ARM_EABI/arm-none-eabi/lib/libstdc++.a(string-inst.o)

.ARM.extab.text._ZNSs12_S_constructIPcEES0_T_S1_RKSaIcESt20forward_iterator_tag
                0x00047d8c        0x0
 .ARM.extab.text._ZNSs12_S_constructIPcEES0_T_S1_RKSaIcESt20forward_iterator_tag
                0x00047d8c        0x0 /home/bseip/MentorGraphics/Sourcery_CodeBench_Lite_for_ARM_EABI/arm-none-eabi/lib/libstdc++.a(string-inst.o)

.ARM.extab.text._ZNSsC2ERKSsjj
                0x00047d8c        0x0
 .ARM.extab.text._ZNSsC2ERKSsjj
                0x00047d8c        0x0 /home/bseip/MentorGraphics/Sourcery_CodeBench_Lite_for_ARM_EABI/arm-none-eabi/lib/libstdc++.a(string-inst.o)

.ARM.extab.text._ZNKSs6substrEjj
                0x00047d8c        0x0
 .ARM.extab.text._ZNKSs6substrEjj
                0x00047d8c        0x0 /home/bseip/MentorGraphics/Sourcery_CodeBench_Lite_for_ARM_EABI/arm-none-eabi/lib/libstdc++.a(string-inst.o)

.ARM.extab.text._ZNSsC2ERKSsjjRKSaIcE
                0x00047d8c        0x0
 .ARM.extab.text._ZNSsC2ERKSsjjRKSaIcE
                0x00047d8c        0x0 /home/bseip/MentorGraphics/Sourcery_CodeBench_Lite_for_ARM_EABI/arm-none-eabi/lib/libstdc++.a(string-inst.o)

.ARM.extab.text._ZNSsC2IPcEET_S1_RKSaIcE
                0x00047d8c        0x0
 .ARM.extab.text._ZNSsC2IPcEET_S1_RKSaIcE
                0x00047d8c        0x0 /home/bseip/MentorGraphics/Sourcery_CodeBench_Lite_for_ARM_EABI/arm-none-eabi/lib/libstdc++.a(string-inst.o)

.ARM.extab.text._ZNSs12_S_constructIPKcEEPcT_S3_RKSaIcESt20forward_iterator_tag
                0x00047d8c        0x0
 .ARM.extab.text._ZNSs12_S_constructIPKcEEPcT_S3_RKSaIcESt20forward_iterator_tag
                0x00047d8c        0x0 /home/bseip/MentorGraphics/Sourcery_CodeBench_Lite_for_ARM_EABI/arm-none-eabi/lib/libstdc++.a(string-inst.o)

.ARM.extab.text._ZNSsC2EPKcjRKSaIcE
                0x00047d8c        0x0
 .ARM.extab.text._ZNSsC2EPKcjRKSaIcE
                0x00047d8c        0x0 /home/bseip/MentorGraphics/Sourcery_CodeBench_Lite_for_ARM_EABI/arm-none-eabi/lib/libstdc++.a(string-inst.o)

.ARM.extab.text._ZNSs7replaceEjjPKcj
                0x00047d8c       0x1c
 .ARM.extab.text._ZNSs7replaceEjjPKcj
                0x00047d8c       0x1c /home/bseip/MentorGraphics/Sourcery_CodeBench_Lite_for_ARM_EABI/arm-none-eabi/lib/libstdc++.a(string-inst.o)

.ARM.extab.text._ZNSs7replaceEjjRKSs
                0x00047da8        0x0
 .ARM.extab.text._ZNSs7replaceEjjRKSs
                0x00047da8        0x0 /home/bseip/MentorGraphics/Sourcery_CodeBench_Lite_for_ARM_EABI/arm-none-eabi/lib/libstdc++.a(string-inst.o)

.ARM.extab.text._ZNSs7replaceEjjRKSsjj
                0x00047da8        0x0
 .ARM.extab.text._ZNSs7replaceEjjRKSsjj
                0x00047da8        0x0 /home/bseip/MentorGraphics/Sourcery_CodeBench_Lite_for_ARM_EABI/arm-none-eabi/lib/libstdc++.a(string-inst.o)

.ARM.extab.text._ZNSs7replaceEjjPKc
                0x00047da8        0x0
 .ARM.extab.text._ZNSs7replaceEjjPKc
                0x00047da8        0x0 /home/bseip/MentorGraphics/Sourcery_CodeBench_Lite_for_ARM_EABI/arm-none-eabi/lib/libstdc++.a(string-inst.o)

.ARM.extab.text._ZNSs7replaceEN9__gnu_cxx17__normal_iteratorIPcSsEES2_PKcj
                0x00047da8        0x0
 .ARM.extab.text._ZNSs7replaceEN9__gnu_cxx17__normal_iteratorIPcSsEES2_PKcj
                0x00047da8        0x0 /home/bseip/MentorGraphics/Sourcery_CodeBench_Lite_for_ARM_EABI/arm-none-eabi/lib/libstdc++.a(string-inst.o)

.ARM.extab.text._ZNSs7replaceEN9__gnu_cxx17__normal_iteratorIPcSsEES2_RKSs
                0x00047da8        0x0
 .ARM.extab.text._ZNSs7replaceEN9__gnu_cxx17__normal_iteratorIPcSsEES2_RKSs
                0x00047da8        0x0 /home/bseip/MentorGraphics/Sourcery_CodeBench_Lite_for_ARM_EABI/arm-none-eabi/lib/libstdc++.a(string-inst.o)

.ARM.extab.text._ZNSs7replaceEN9__gnu_cxx17__normal_iteratorIPcSsEES2_PKc
                0x00047da8        0x0
 .ARM.extab.text._ZNSs7replaceEN9__gnu_cxx17__normal_iteratorIPcSsEES2_PKc
                0x00047da8        0x0 /home/bseip/MentorGraphics/Sourcery_CodeBench_Lite_for_ARM_EABI/arm-none-eabi/lib/libstdc++.a(string-inst.o)

.ARM.extab.text._ZNSs7replaceEN9__gnu_cxx17__normal_iteratorIPcSsEES2_S1_S1_
                0x00047da8        0x0
 .ARM.extab.text._ZNSs7replaceEN9__gnu_cxx17__normal_iteratorIPcSsEES2_S1_S1_
                0x00047da8        0x0 /home/bseip/MentorGraphics/Sourcery_CodeBench_Lite_for_ARM_EABI/arm-none-eabi/lib/libstdc++.a(string-inst.o)

.ARM.extab.text._ZNSs7replaceEN9__gnu_cxx17__normal_iteratorIPcSsEES2_PKcS4_
                0x00047da8        0x0
 .ARM.extab.text._ZNSs7replaceEN9__gnu_cxx17__normal_iteratorIPcSsEES2_PKcS4_
                0x00047da8        0x0 /home/bseip/MentorGraphics/Sourcery_CodeBench_Lite_for_ARM_EABI/arm-none-eabi/lib/libstdc++.a(string-inst.o)

.ARM.extab.text._ZNSs7replaceEN9__gnu_cxx17__normal_iteratorIPcSsEES2_St16initializer_listIcE
                0x00047da8        0xc
 .ARM.extab.text._ZNSs7replaceEN9__gnu_cxx17__normal_iteratorIPcSsEES2_St16initializer_listIcE
                0x00047da8        0xc /home/bseip/MentorGraphics/Sourcery_CodeBench_Lite_for_ARM_EABI/arm-none-eabi/lib/libstdc++.a(string-inst.o)

.ARM.extab.text._ZNSs7replaceEN9__gnu_cxx17__normal_iteratorIPcSsEES2_S2_S2_
                0x00047db4        0x0
 .ARM.extab.text._ZNSs7replaceEN9__gnu_cxx17__normal_iteratorIPcSsEES2_S2_S2_
                0x00047db4        0x0 /home/bseip/MentorGraphics/Sourcery_CodeBench_Lite_for_ARM_EABI/arm-none-eabi/lib/libstdc++.a(string-inst.o)

.ARM.extab.text._ZNSs7replaceEN9__gnu_cxx17__normal_iteratorIPcSsEES2_NS0_IPKcSsEES5_
                0x00047db4        0x0
 .ARM.extab.text._ZNSs7replaceEN9__gnu_cxx17__normal_iteratorIPcSsEES2_NS0_IPKcSsEES5_
                0x00047db4        0x0 /home/bseip/MentorGraphics/Sourcery_CodeBench_Lite_for_ARM_EABI/arm-none-eabi/lib/libstdc++.a(string-inst.o)

.ARM.extab.text._ZNSsC2EPKcRKSaIcE
                0x00047db4        0x0
 .ARM.extab.text._ZNSsC2EPKcRKSaIcE
                0x00047db4        0x0 /home/bseip/MentorGraphics/Sourcery_CodeBench_Lite_for_ARM_EABI/arm-none-eabi/lib/libstdc++.a(string-inst.o)

.ARM.extab.text._ZNSsC2ESt16initializer_listIcERKSaIcE
                0x00047db4        0x0
 .ARM.extab.text._ZNSsC2ESt16initializer_listIcERKSaIcE
                0x00047db4        0x0 /home/bseip/MentorGraphics/Sourcery_CodeBench_Lite_for_ARM_EABI/arm-none-eabi/lib/libstdc++.a(string-inst.o)

.ARM.extab.text._ZNSsC2IPKcEET_S2_RKSaIcE
                0x00047db4        0x0
 .ARM.extab.text._ZNSsC2IPKcEET_S2_RKSaIcE
                0x00047db4        0x0 /home/bseip/MentorGraphics/Sourcery_CodeBench_Lite_for_ARM_EABI/arm-none-eabi/lib/libstdc++.a(string-inst.o)

.ARM.extab.text._ZN9__gnu_cxxeqIPcSsEEbRKNS_17__normal_iteratorIT_T0_EES7_
                0x00047db4        0x0
 .ARM.extab.text._ZN9__gnu_cxxeqIPcSsEEbRKNS_17__normal_iteratorIT_T0_EES7_
                0x00047db4        0x0 /home/bseip/MentorGraphics/Sourcery_CodeBench_Lite_for_ARM_EABI/arm-none-eabi/lib/libstdc++.a(string-inst.o)

.ARM.extab.text._ZN9__gnu_cxxeqIPKcSsEEbRKNS_17__normal_iteratorIT_T0_EES8_
                0x00047db4        0x0
 .ARM.extab.text._ZN9__gnu_cxxeqIPKcSsEEbRKNS_17__normal_iteratorIT_T0_EES8_
                0x00047db4        0x0 /home/bseip/MentorGraphics/Sourcery_CodeBench_Lite_for_ARM_EABI/arm-none-eabi/lib/libstdc++.a(string-inst.o)

.rodata._ZNSs4_Rep11_S_terminalE
                0x00047db4        0x1
 .rodata._ZNSs4_Rep11_S_terminalE
                0x00047db4        0x1 /home/bseip/MentorGraphics/Sourcery_CodeBench_Lite_for_ARM_EABI/arm-none-eabi/lib/libstdc++.a(string-inst.o)
                0x00047db4                std::string::_Rep::_S_terminal

.rodata._ZNSs4_Rep11_S_max_sizeE
                0x00047db8        0x4
 .rodata._ZNSs4_Rep11_S_max_sizeE
                0x00047db8        0x4 /home/bseip/MentorGraphics/Sourcery_CodeBench_Lite_for_ARM_EABI/arm-none-eabi/lib/libstdc++.a(string-inst.o)
                0x00047db8                std::string::_Rep::_S_max_size

.rodata._ZNSs4nposE
                0x00047dbc        0x4
 .rodata._ZNSs4nposE
                0x00047dbc        0x4 /home/bseip/MentorGraphics/Sourcery_CodeBench_Lite_for_ARM_EABI/arm-none-eabi/lib/libstdc++.a(string-inst.o)
                0x00047dbc                std::string::npos

.ARM.extab.text._ZNK12_GLOBAL__N_121future_error_category4nameEv
                0x00047dc0        0x0
 .ARM.extab.text._ZNK12_GLOBAL__N_121future_error_category4nameEv
                0x00047dc0        0x0 /home/bseip/MentorGraphics/Sourcery_CodeBench_Lite_for_ARM_EABI/arm-none-eabi/lib/libstdc++.a(future.o)

.ARM.extab.text._ZN12_GLOBAL__N_121future_error_categoryD2Ev
                0x00047dc0        0x0
 .ARM.extab.text._ZN12_GLOBAL__N_121future_error_categoryD2Ev
                0x00047dc0        0x0 /home/bseip/MentorGraphics/Sourcery_CodeBench_Lite_for_ARM_EABI/arm-none-eabi/lib/libstdc++.a(future.o)

.ARM.extab.text._ZN12_GLOBAL__N_121future_error_categoryD0Ev
                0x00047dc0        0x0
 .ARM.extab.text._ZN12_GLOBAL__N_121future_error_categoryD0Ev
                0x00047dc0        0x0 /home/bseip/MentorGraphics/Sourcery_CodeBench_Lite_for_ARM_EABI/arm-none-eabi/lib/libstdc++.a(future.o)

.ARM.extab.text._ZNSt12future_errorD2Ev
                0x00047dc0        0x0
 .ARM.extab.text._ZNSt12future_errorD2Ev
                0x00047dc0        0x0 /home/bseip/MentorGraphics/Sourcery_CodeBench_Lite_for_ARM_EABI/arm-none-eabi/lib/libstdc++.a(future.o)

.ARM.extab.text._ZNSt12future_errorD0Ev
                0x00047dc0        0x0
 .ARM.extab.text._ZNSt12future_errorD0Ev
                0x00047dc0        0x0 /home/bseip/MentorGraphics/Sourcery_CodeBench_Lite_for_ARM_EABI/arm-none-eabi/lib/libstdc++.a(future.o)

.ARM.extab.text._ZNKSt12future_error4whatEv
                0x00047dc0        0xc
 .ARM.extab.text._ZNKSt12future_error4whatEv
                0x00047dc0        0xc /home/bseip/MentorGraphics/Sourcery_CodeBench_Lite_for_ARM_EABI/arm-none-eabi/lib/libstdc++.a(future.o)

.ARM.extab.text._ZNK12_GLOBAL__N_121future_error_category7messageEi
                0x00047dcc       0x18
 .ARM.extab.text._ZNK12_GLOBAL__N_121future_error_category7messageEi
                0x00047dcc       0x18 /home/bseip/MentorGraphics/Sourcery_CodeBench_Lite_for_ARM_EABI/arm-none-eabi/lib/libstdc++.a(future.o)

.ARM.extab.text._ZSt15future_categoryv
                0x00047de4        0x0
 .ARM.extab.text._ZSt15future_categoryv
                0x00047de4        0x0 /home/bseip/MentorGraphics/Sourcery_CodeBench_Lite_for_ARM_EABI/arm-none-eabi/lib/libstdc++.a(future.o)

.rodata._ZTIN12_GLOBAL__N_121future_error_categoryE
                0x00047de4        0xc
 .rodata._ZTIN12_GLOBAL__N_121future_error_categoryE
                0x00047de4        0xc /home/bseip/MentorGraphics/Sourcery_CodeBench_Lite_for_ARM_EABI/arm-none-eabi/lib/libstdc++.a(future.o)

.rodata._ZTVN12_GLOBAL__N_121future_error_categoryE
                0x00047df0       0x28
 .rodata._ZTVN12_GLOBAL__N_121future_error_categoryE
                0x00047df0       0x28 /home/bseip/MentorGraphics/Sourcery_CodeBench_Lite_for_ARM_EABI/arm-none-eabi/lib/libstdc++.a(future.o)

.rodata._ZTISt12future_error
                0x00047e18        0xc
 .rodata._ZTISt12future_error
                0x00047e18        0xc /home/bseip/MentorGraphics/Sourcery_CodeBench_Lite_for_ARM_EABI/arm-none-eabi/lib/libstdc++.a(future.o)
                0x00047e18                typeinfo for std::future_error

.rodata._ZTSSt12future_error
                0x00047e24       0x14
 .rodata._ZTSSt12future_error
                0x00047e24       0x14 /home/bseip/MentorGraphics/Sourcery_CodeBench_Lite_for_ARM_EABI/arm-none-eabi/lib/libstdc++.a(future.o)
                0x00047e24                typeinfo name for std::future_error

.rodata._ZTSN12_GLOBAL__N_121future_error_categoryE
                0x00047e38       0x2c
 .rodata._ZTSN12_GLOBAL__N_121future_error_categoryE
                0x00047e38       0x2c /home/bseip/MentorGraphics/Sourcery_CodeBench_Lite_for_ARM_EABI/arm-none-eabi/lib/libstdc++.a(future.o)

.rodata._ZTVSt12future_error
                0x00047e68       0x18
 .rodata._ZTVSt12future_error
                0x00047e68       0x18 /home/bseip/MentorGraphics/Sourcery_CodeBench_Lite_for_ARM_EABI/arm-none-eabi/lib/libstdc++.a(future.o)
                0x00047e68                vtable for std::future_error

.ARM.extab.text._ZNKSt17bad_function_call4whatEv
                0x00047e80        0x0
 .ARM.extab.text._ZNKSt17bad_function_call4whatEv
                0x00047e80        0x0 /home/bseip/MentorGraphics/Sourcery_CodeBench_Lite_for_ARM_EABI/arm-none-eabi/lib/libstdc++.a(functional.o)

.ARM.extab.text._ZNSt17bad_function_callD2Ev
                0x00047e80        0x0
 .ARM.extab.text._ZNSt17bad_function_callD2Ev
                0x00047e80        0x0 /home/bseip/MentorGraphics/Sourcery_CodeBench_Lite_for_ARM_EABI/arm-none-eabi/lib/libstdc++.a(functional.o)

.ARM.extab.text._ZNSt17bad_function_callD0Ev
                0x00047e80        0x0
 .ARM.extab.text._ZNSt17bad_function_callD0Ev
                0x00047e80        0x0 /home/bseip/MentorGraphics/Sourcery_CodeBench_Lite_for_ARM_EABI/arm-none-eabi/lib/libstdc++.a(functional.o)

.rodata._ZTISt17bad_function_call
                0x00047e80        0xc
 .rodata._ZTISt17bad_function_call
                0x00047e80        0xc /home/bseip/MentorGraphics/Sourcery_CodeBench_Lite_for_ARM_EABI/arm-none-eabi/lib/libstdc++.a(functional.o)
                0x00047e80                typeinfo for std::bad_function_call

.rodata._ZTVSt17bad_function_call
                0x00047e90       0x18
 .rodata._ZTVSt17bad_function_call
                0x00047e90       0x18 /home/bseip/MentorGraphics/Sourcery_CodeBench_Lite_for_ARM_EABI/arm-none-eabi/lib/libstdc++.a(functional.o)
                0x00047e90                vtable for std::bad_function_call

.rodata._ZTSSt17bad_function_call
                0x00047ea8       0x18
 .rodata._ZTSSt17bad_function_call
                0x00047ea8       0x18 /home/bseip/MentorGraphics/Sourcery_CodeBench_Lite_for_ARM_EABI/arm-none-eabi/lib/libstdc++.a(functional.o)
                0x00047ea8                typeinfo name for std::bad_function_call

.ARM.extab.text._ZNSt11regex_errorD2Ev
                0x00047ec0        0x0
 .ARM.extab.text._ZNSt11regex_errorD2Ev
                0x00047ec0        0x0 /home/bseip/MentorGraphics/Sourcery_CodeBench_Lite_for_ARM_EABI/arm-none-eabi/lib/libstdc++.a(regex.o)

.ARM.extab.text._ZNSt11regex_errorD0Ev
                0x00047ec0        0x0
 .ARM.extab.text._ZNSt11regex_errorD0Ev
                0x00047ec0        0x0 /home/bseip/MentorGraphics/Sourcery_CodeBench_Lite_for_ARM_EABI/arm-none-eabi/lib/libstdc++.a(regex.o)

.ARM.extab.text._ZNSt11regex_errorC2ENSt15regex_constants10error_typeE
                0x00047ec0       0x1c
 .ARM.extab.text._ZNSt11regex_errorC2ENSt15regex_constants10error_typeE
                0x00047ec0       0x1c /home/bseip/MentorGraphics/Sourcery_CodeBench_Lite_for_ARM_EABI/arm-none-eabi/lib/libstdc++.a(regex.o)

.rodata._ZTVSt11regex_error
                0x00047ee0       0x18
 .rodata._ZTVSt11regex_error
                0x00047ee0       0x18 /home/bseip/MentorGraphics/Sourcery_CodeBench_Lite_for_ARM_EABI/arm-none-eabi/lib/libstdc++.a(regex.o)
                0x00047ee0                vtable for std::regex_error

.rodata._ZTSSt11regex_error
                0x00047ef8       0x10
 .rodata._ZTSSt11regex_error
                0x00047ef8       0x10 /home/bseip/MentorGraphics/Sourcery_CodeBench_Lite_for_ARM_EABI/arm-none-eabi/lib/libstdc++.a(regex.o)
                0x00047ef8                typeinfo name for std::regex_error

.rodata._ZTISt11regex_error
                0x00047f08        0xc
 .rodata._ZTISt11regex_error
                0x00047f08        0xc /home/bseip/MentorGraphics/Sourcery_CodeBench_Lite_for_ARM_EABI/arm-none-eabi/lib/libstdc++.a(regex.o)
                0x00047f08                typeinfo for std::regex_error

.ARM.extab.text._ZNKSt8bad_cast4whatEv
                0x00047f14        0x0
 .ARM.extab.text._ZNKSt8bad_cast4whatEv
                0x00047f14        0x0 /home/bseip/MentorGraphics/Sourcery_CodeBench_Lite_for_ARM_EABI/arm-none-eabi/lib/libstdc++.a(bad_cast.o)

.ARM.extab.text._ZNSt8bad_castD2Ev
                0x00047f14        0x0
 .ARM.extab.text._ZNSt8bad_castD2Ev
                0x00047f14        0x0 /home/bseip/MentorGraphics/Sourcery_CodeBench_Lite_for_ARM_EABI/arm-none-eabi/lib/libstdc++.a(bad_cast.o)

.ARM.extab.text._ZNSt8bad_castD0Ev
                0x00047f14        0x0
 .ARM.extab.text._ZNSt8bad_castD0Ev
                0x00047f14        0x0 /home/bseip/MentorGraphics/Sourcery_CodeBench_Lite_for_ARM_EABI/arm-none-eabi/lib/libstdc++.a(bad_cast.o)

.rodata._ZTISt8bad_cast
                0x00047f14        0xc
 .rodata._ZTISt8bad_cast
                0x00047f14        0xc /home/bseip/MentorGraphics/Sourcery_CodeBench_Lite_for_ARM_EABI/arm-none-eabi/lib/libstdc++.a(bad_cast.o)
                0x00047f14                typeinfo for std::bad_cast

.rodata._ZTSSt8bad_cast
                0x00047f20        0xc
 .rodata._ZTSSt8bad_cast
                0x00047f20        0xc /home/bseip/MentorGraphics/Sourcery_CodeBench_Lite_for_ARM_EABI/arm-none-eabi/lib/libstdc++.a(bad_cast.o)
                0x00047f20                typeinfo name for std::bad_cast

.rodata._ZTVSt8bad_cast
                0x00047f30       0x18
 .rodata._ZTVSt8bad_cast
                0x00047f30       0x18 /home/bseip/MentorGraphics/Sourcery_CodeBench_Lite_for_ARM_EABI/arm-none-eabi/lib/libstdc++.a(bad_cast.o)
                0x00047f30                vtable for std::bad_cast

.ARM.extab.text._ZNKSt10bad_typeid4whatEv
                0x00047f48        0x0
 .ARM.extab.text._ZNKSt10bad_typeid4whatEv
                0x00047f48        0x0 /home/bseip/MentorGraphics/Sourcery_CodeBench_Lite_for_ARM_EABI/arm-none-eabi/lib/libstdc++.a(bad_typeid.o)

.ARM.extab.text._ZNSt10bad_typeidD2Ev
                0x00047f48        0x0
 .ARM.extab.text._ZNSt10bad_typeidD2Ev
                0x00047f48        0x0 /home/bseip/MentorGraphics/Sourcery_CodeBench_Lite_for_ARM_EABI/arm-none-eabi/lib/libstdc++.a(bad_typeid.o)

.ARM.extab.text._ZNSt10bad_typeidD0Ev
                0x00047f48        0x0
 .ARM.extab.text._ZNSt10bad_typeidD0Ev
                0x00047f48        0x0 /home/bseip/MentorGraphics/Sourcery_CodeBench_Lite_for_ARM_EABI/arm-none-eabi/lib/libstdc++.a(bad_typeid.o)

.rodata._ZTVSt10bad_typeid
                0x00047f48       0x18
 .rodata._ZTVSt10bad_typeid
                0x00047f48       0x18 /home/bseip/MentorGraphics/Sourcery_CodeBench_Lite_for_ARM_EABI/arm-none-eabi/lib/libstdc++.a(bad_typeid.o)
                0x00047f48                vtable for std::bad_typeid

.rodata._ZTISt10bad_typeid
                0x00047f60        0xc
 .rodata._ZTISt10bad_typeid
                0x00047f60        0xc /home/bseip/MentorGraphics/Sourcery_CodeBench_Lite_for_ARM_EABI/arm-none-eabi/lib/libstdc++.a(bad_typeid.o)
                0x00047f60                typeinfo for std::bad_typeid

.rodata._ZTSSt10bad_typeid
                0x00047f6c       0x10
 .rodata._ZTSSt10bad_typeid
                0x00047f6c       0x10 /home/bseip/MentorGraphics/Sourcery_CodeBench_Lite_for_ARM_EABI/arm-none-eabi/lib/libstdc++.a(bad_typeid.o)
                0x00047f6c                typeinfo name for std::bad_typeid

.ARM.extab.text.__cxa_guard_acquire
                0x00047f7c        0xc
 .ARM.extab.text.__cxa_guard_acquire
                0x00047f7c        0xc /home/bseip/MentorGraphics/Sourcery_CodeBench_Lite_for_ARM_EABI/arm-none-eabi/lib/libstdc++.a(guard.o)

.ARM.extab.text.__cxa_guard_abort
                0x00047f88        0x0
 .ARM.extab.text.__cxa_guard_abort
                0x00047f88        0x0 /home/bseip/MentorGraphics/Sourcery_CodeBench_Lite_for_ARM_EABI/arm-none-eabi/lib/libstdc++.a(guard.o)

.ARM.extab.text.__cxa_guard_release
                0x00047f88        0x0
 .ARM.extab.text.__cxa_guard_release
                0x00047f88        0x0 /home/bseip/MentorGraphics/Sourcery_CodeBench_Lite_for_ARM_EABI/arm-none-eabi/lib/libstdc++.a(guard.o)

.ARM.extab.text._ZN9__gnu_cxx27__verbose_terminate_handlerEv
                0x00047f88       0x34
 .ARM.extab.text._ZN9__gnu_cxx27__verbose_terminate_handlerEv
                0x00047f88       0x34 /home/bseip/MentorGraphics/Sourcery_CodeBench_Lite_for_ARM_EABI/arm-none-eabi/lib/libstdc++.a(vterminate.o)

.ARM.extab.text.__cxa_current_exception_type
                0x00047fbc        0x0
 .ARM.extab.text.__cxa_current_exception_type
                0x00047fbc        0x0 /home/bseip/MentorGraphics/Sourcery_CodeBench_Lite_for_ARM_EABI/arm-none-eabi/lib/libstdc++.a(eh_type.o)

.ARM.extab.text._ZNKSt8ios_base7failure4whatEv
                0x00047fbc        0x0
 .ARM.extab.text._ZNKSt8ios_base7failure4whatEv
                0x00047fbc        0x0 /home/bseip/MentorGraphics/Sourcery_CodeBench_Lite_for_ARM_EABI/arm-none-eabi/lib/libstdc++.a(ios_failure.o)

.ARM.extab.text._ZNSt8ios_base7failureD2Ev
                0x00047fbc        0x0
 .ARM.extab.text._ZNSt8ios_base7failureD2Ev
                0x00047fbc        0x0 /home/bseip/MentorGraphics/Sourcery_CodeBench_Lite_for_ARM_EABI/arm-none-eabi/lib/libstdc++.a(ios_failure.o)

.ARM.extab.text._ZNSt8ios_base7failureD0Ev
                0x00047fbc        0x0
 .ARM.extab.text._ZNSt8ios_base7failureD0Ev
                0x00047fbc        0x0 /home/bseip/MentorGraphics/Sourcery_CodeBench_Lite_for_ARM_EABI/arm-none-eabi/lib/libstdc++.a(ios_failure.o)

.ARM.extab.text._ZNSt8ios_base7failureC2ERKSs
                0x00047fbc       0x20
 .ARM.extab.text._ZNSt8ios_base7failureC2ERKSs
                0x00047fbc       0x20 /home/bseip/MentorGraphics/Sourcery_CodeBench_Lite_for_ARM_EABI/arm-none-eabi/lib/libstdc++.a(ios_failure.o)

.rodata._ZTVNSt8ios_base7failureE
                0x00047fe0       0x18
 .rodata._ZTVNSt8ios_base7failureE
                0x00047fe0       0x18 /home/bseip/MentorGraphics/Sourcery_CodeBench_Lite_for_ARM_EABI/arm-none-eabi/lib/libstdc++.a(ios_failure.o)
                0x00047fe0                vtable for std::ios_base::failure

.rodata._ZTSNSt8ios_base7failureE
                0x00047ff8       0x18
 .rodata._ZTSNSt8ios_base7failureE
                0x00047ff8       0x18 /home/bseip/MentorGraphics/Sourcery_CodeBench_Lite_for_ARM_EABI/arm-none-eabi/lib/libstdc++.a(ios_failure.o)
                0x00047ff8                typeinfo name for std::ios_base::failure

.rodata._ZTINSt8ios_base7failureE
                0x00048010        0xc
 .rodata._ZTINSt8ios_base7failureE
                0x00048010        0xc /home/bseip/MentorGraphics/Sourcery_CodeBench_Lite_for_ARM_EABI/arm-none-eabi/lib/libstdc++.a(ios_failure.o)
                0x00048010                typeinfo for std::ios_base::failure

.ARM.extab.text._ZNKSt11logic_error4whatEv
                0x0004801c        0x0
 .ARM.extab.text._ZNKSt11logic_error4whatEv
                0x0004801c        0x0 /home/bseip/MentorGraphics/Sourcery_CodeBench_Lite_for_ARM_EABI/arm-none-eabi/lib/libstdc++.a(stdexcept.o)

.ARM.extab.text._ZNKSt13runtime_error4whatEv
                0x0004801c        0x0
 .ARM.extab.text._ZNKSt13runtime_error4whatEv
                0x0004801c        0x0 /home/bseip/MentorGraphics/Sourcery_CodeBench_Lite_for_ARM_EABI/arm-none-eabi/lib/libstdc++.a(stdexcept.o)

.ARM.extab.text._ZNSt11logic_errorD2Ev
                0x0004801c        0x0
 .ARM.extab.text._ZNSt11logic_errorD2Ev
                0x0004801c        0x0 /home/bseip/MentorGraphics/Sourcery_CodeBench_Lite_for_ARM_EABI/arm-none-eabi/lib/libstdc++.a(stdexcept.o)

.ARM.extab.text._ZNSt11logic_errorD0Ev
                0x0004801c        0x0
 .ARM.extab.text._ZNSt11logic_errorD0Ev
                0x0004801c        0x0 /home/bseip/MentorGraphics/Sourcery_CodeBench_Lite_for_ARM_EABI/arm-none-eabi/lib/libstdc++.a(stdexcept.o)

.ARM.extab.text._ZNSt12domain_errorD2Ev
                0x0004801c        0x0
 .ARM.extab.text._ZNSt12domain_errorD2Ev
                0x0004801c        0x0 /home/bseip/MentorGraphics/Sourcery_CodeBench_Lite_for_ARM_EABI/arm-none-eabi/lib/libstdc++.a(stdexcept.o)

.ARM.extab.text._ZNSt12domain_errorD0Ev
                0x0004801c        0x0
 .ARM.extab.text._ZNSt12domain_errorD0Ev
                0x0004801c        0x0 /home/bseip/MentorGraphics/Sourcery_CodeBench_Lite_for_ARM_EABI/arm-none-eabi/lib/libstdc++.a(stdexcept.o)

.ARM.extab.text._ZNSt16invalid_argumentD2Ev
                0x0004801c        0x0
 .ARM.extab.text._ZNSt16invalid_argumentD2Ev
                0x0004801c        0x0 /home/bseip/MentorGraphics/Sourcery_CodeBench_Lite_for_ARM_EABI/arm-none-eabi/lib/libstdc++.a(stdexcept.o)

.ARM.extab.text._ZNSt16invalid_argumentD0Ev
                0x0004801c        0x0
 .ARM.extab.text._ZNSt16invalid_argumentD0Ev
                0x0004801c        0x0 /home/bseip/MentorGraphics/Sourcery_CodeBench_Lite_for_ARM_EABI/arm-none-eabi/lib/libstdc++.a(stdexcept.o)

.ARM.extab.text._ZNSt12length_errorD2Ev
                0x0004801c        0x0
 .ARM.extab.text._ZNSt12length_errorD2Ev
                0x0004801c        0x0 /home/bseip/MentorGraphics/Sourcery_CodeBench_Lite_for_ARM_EABI/arm-none-eabi/lib/libstdc++.a(stdexcept.o)

.ARM.extab.text._ZNSt12length_errorD0Ev
                0x0004801c        0x0
 .ARM.extab.text._ZNSt12length_errorD0Ev
                0x0004801c        0x0 /home/bseip/MentorGraphics/Sourcery_CodeBench_Lite_for_ARM_EABI/arm-none-eabi/lib/libstdc++.a(stdexcept.o)

.ARM.extab.text._ZNSt12out_of_rangeD2Ev
                0x0004801c        0x0
 .ARM.extab.text._ZNSt12out_of_rangeD2Ev
                0x0004801c        0x0 /home/bseip/MentorGraphics/Sourcery_CodeBench_Lite_for_ARM_EABI/arm-none-eabi/lib/libstdc++.a(stdexcept.o)

.ARM.extab.text._ZNSt12out_of_rangeD0Ev
                0x0004801c        0x0
 .ARM.extab.text._ZNSt12out_of_rangeD0Ev
                0x0004801c        0x0 /home/bseip/MentorGraphics/Sourcery_CodeBench_Lite_for_ARM_EABI/arm-none-eabi/lib/libstdc++.a(stdexcept.o)

.ARM.extab.text._ZNSt13runtime_errorD2Ev
                0x0004801c        0x0
 .ARM.extab.text._ZNSt13runtime_errorD2Ev
                0x0004801c        0x0 /home/bseip/MentorGraphics/Sourcery_CodeBench_Lite_for_ARM_EABI/arm-none-eabi/lib/libstdc++.a(stdexcept.o)

.ARM.extab.text._ZNSt13runtime_errorD0Ev
                0x0004801c        0x0
 .ARM.extab.text._ZNSt13runtime_errorD0Ev
                0x0004801c        0x0 /home/bseip/MentorGraphics/Sourcery_CodeBench_Lite_for_ARM_EABI/arm-none-eabi/lib/libstdc++.a(stdexcept.o)

.ARM.extab.text._ZNSt11range_errorD2Ev
                0x0004801c        0x0
 .ARM.extab.text._ZNSt11range_errorD2Ev
                0x0004801c        0x0 /home/bseip/MentorGraphics/Sourcery_CodeBench_Lite_for_ARM_EABI/arm-none-eabi/lib/libstdc++.a(stdexcept.o)

.ARM.extab.text._ZNSt11range_errorD0Ev
                0x0004801c        0x0
 .ARM.extab.text._ZNSt11range_errorD0Ev
                0x0004801c        0x0 /home/bseip/MentorGraphics/Sourcery_CodeBench_Lite_for_ARM_EABI/arm-none-eabi/lib/libstdc++.a(stdexcept.o)

.ARM.extab.text._ZNSt14overflow_errorD2Ev
                0x0004801c        0x0
 .ARM.extab.text._ZNSt14overflow_errorD2Ev
                0x0004801c        0x0 /home/bseip/MentorGraphics/Sourcery_CodeBench_Lite_for_ARM_EABI/arm-none-eabi/lib/libstdc++.a(stdexcept.o)

.ARM.extab.text._ZNSt14overflow_errorD0Ev
                0x0004801c        0x0
 .ARM.extab.text._ZNSt14overflow_errorD0Ev
                0x0004801c        0x0 /home/bseip/MentorGraphics/Sourcery_CodeBench_Lite_for_ARM_EABI/arm-none-eabi/lib/libstdc++.a(stdexcept.o)

.ARM.extab.text._ZNSt15underflow_errorD2Ev
                0x0004801c        0x0
 .ARM.extab.text._ZNSt15underflow_errorD2Ev
                0x0004801c        0x0 /home/bseip/MentorGraphics/Sourcery_CodeBench_Lite_for_ARM_EABI/arm-none-eabi/lib/libstdc++.a(stdexcept.o)

.ARM.extab.text._ZNSt15underflow_errorD0Ev
                0x0004801c        0x0
 .ARM.extab.text._ZNSt15underflow_errorD0Ev
                0x0004801c        0x0 /home/bseip/MentorGraphics/Sourcery_CodeBench_Lite_for_ARM_EABI/arm-none-eabi/lib/libstdc++.a(stdexcept.o)

.ARM.extab.text._ZNSt11logic_errorC2ERKSs
                0x0004801c       0x14
 .ARM.extab.text._ZNSt11logic_errorC2ERKSs
                0x0004801c       0x14 /home/bseip/MentorGraphics/Sourcery_CodeBench_Lite_for_ARM_EABI/arm-none-eabi/lib/libstdc++.a(stdexcept.o)

.ARM.extab.text._ZNSt12domain_errorC2ERKSs
                0x00048030        0x0
 .ARM.extab.text._ZNSt12domain_errorC2ERKSs
                0x00048030        0x0 /home/bseip/MentorGraphics/Sourcery_CodeBench_Lite_for_ARM_EABI/arm-none-eabi/lib/libstdc++.a(stdexcept.o)

.ARM.extab.text._ZNSt16invalid_argumentC2ERKSs
                0x00048030        0x0
 .ARM.extab.text._ZNSt16invalid_argumentC2ERKSs
                0x00048030        0x0 /home/bseip/MentorGraphics/Sourcery_CodeBench_Lite_for_ARM_EABI/arm-none-eabi/lib/libstdc++.a(stdexcept.o)

.ARM.extab.text._ZNSt12length_errorC2ERKSs
                0x00048030        0x0
 .ARM.extab.text._ZNSt12length_errorC2ERKSs
                0x00048030        0x0 /home/bseip/MentorGraphics/Sourcery_CodeBench_Lite_for_ARM_EABI/arm-none-eabi/lib/libstdc++.a(stdexcept.o)

.ARM.extab.text._ZNSt12out_of_rangeC2ERKSs
                0x00048030        0x0
 .ARM.extab.text._ZNSt12out_of_rangeC2ERKSs
                0x00048030        0x0 /home/bseip/MentorGraphics/Sourcery_CodeBench_Lite_for_ARM_EABI/arm-none-eabi/lib/libstdc++.a(stdexcept.o)

.ARM.extab.text._ZNSt13runtime_errorC2ERKSs
                0x00048030       0x14
 .ARM.extab.text._ZNSt13runtime_errorC2ERKSs
                0x00048030       0x14 /home/bseip/MentorGraphics/Sourcery_CodeBench_Lite_for_ARM_EABI/arm-none-eabi/lib/libstdc++.a(stdexcept.o)

.ARM.extab.text._ZNSt11range_errorC2ERKSs
                0x00048044        0x0
 .ARM.extab.text._ZNSt11range_errorC2ERKSs
                0x00048044        0x0 /home/bseip/MentorGraphics/Sourcery_CodeBench_Lite_for_ARM_EABI/arm-none-eabi/lib/libstdc++.a(stdexcept.o)

.ARM.extab.text._ZNSt14overflow_errorC2ERKSs
                0x00048044        0x0
 .ARM.extab.text._ZNSt14overflow_errorC2ERKSs
                0x00048044        0x0 /home/bseip/MentorGraphics/Sourcery_CodeBench_Lite_for_ARM_EABI/arm-none-eabi/lib/libstdc++.a(stdexcept.o)

.ARM.extab.text._ZNSt15underflow_errorC2ERKSs
                0x00048044        0x0
 .ARM.extab.text._ZNSt15underflow_errorC2ERKSs
                0x00048044        0x0 /home/bseip/MentorGraphics/Sourcery_CodeBench_Lite_for_ARM_EABI/arm-none-eabi/lib/libstdc++.a(stdexcept.o)

.rodata._ZTSSt13runtime_error
                0x00048044       0x14
 .rodata._ZTSSt13runtime_error
                0x00048044       0x14 /home/bseip/MentorGraphics/Sourcery_CodeBench_Lite_for_ARM_EABI/arm-none-eabi/lib/libstdc++.a(stdexcept.o)
                0x00048044                typeinfo name for std::runtime_error

.rodata._ZTVSt13runtime_error
                0x00048058       0x18
 .rodata._ZTVSt13runtime_error
                0x00048058       0x18 /home/bseip/MentorGraphics/Sourcery_CodeBench_Lite_for_ARM_EABI/arm-none-eabi/lib/libstdc++.a(stdexcept.o)
                0x00048058                vtable for std::runtime_error

.rodata._ZTISt13runtime_error
                0x00048070        0xc
 .rodata._ZTISt13runtime_error
                0x00048070        0xc /home/bseip/MentorGraphics/Sourcery_CodeBench_Lite_for_ARM_EABI/arm-none-eabi/lib/libstdc++.a(stdexcept.o)
                0x00048070                typeinfo for std::runtime_error

.rodata._ZTISt11logic_error
                0x0004807c        0xc
 .rodata._ZTISt11logic_error
                0x0004807c        0xc /home/bseip/MentorGraphics/Sourcery_CodeBench_Lite_for_ARM_EABI/arm-none-eabi/lib/libstdc++.a(stdexcept.o)
                0x0004807c                typeinfo for std::logic_error

.rodata._ZTVSt15underflow_error
                0x00048088       0x18
 .rodata._ZTVSt15underflow_error
                0x00048088       0x18 /home/bseip/MentorGraphics/Sourcery_CodeBench_Lite_for_ARM_EABI/arm-none-eabi/lib/libstdc++.a(stdexcept.o)
                0x00048088                vtable for std::underflow_error

.rodata._ZTSSt14overflow_error
                0x000480a0       0x14
 .rodata._ZTSSt14overflow_error
                0x000480a0       0x14 /home/bseip/MentorGraphics/Sourcery_CodeBench_Lite_for_ARM_EABI/arm-none-eabi/lib/libstdc++.a(stdexcept.o)
                0x000480a0                typeinfo name for std::overflow_error

.rodata._ZTISt11range_error
                0x000480b4        0xc
 .rodata._ZTISt11range_error
                0x000480b4        0xc /home/bseip/MentorGraphics/Sourcery_CodeBench_Lite_for_ARM_EABI/arm-none-eabi/lib/libstdc++.a(stdexcept.o)
                0x000480b4                typeinfo for std::range_error

.rodata._ZTSSt16invalid_argument
                0x000480c0       0x18
 .rodata._ZTSSt16invalid_argument
                0x000480c0       0x18 /home/bseip/MentorGraphics/Sourcery_CodeBench_Lite_for_ARM_EABI/arm-none-eabi/lib/libstdc++.a(stdexcept.o)
                0x000480c0                typeinfo name for std::invalid_argument

.rodata._ZTSSt12out_of_range
                0x000480d8       0x14
 .rodata._ZTSSt12out_of_range
                0x000480d8       0x14 /home/bseip/MentorGraphics/Sourcery_CodeBench_Lite_for_ARM_EABI/arm-none-eabi/lib/libstdc++.a(stdexcept.o)
                0x000480d8                typeinfo name for std::out_of_range

.rodata._ZTVSt11range_error
                0x000480f0       0x18
 .rodata._ZTVSt11range_error
                0x000480f0       0x18 /home/bseip/MentorGraphics/Sourcery_CodeBench_Lite_for_ARM_EABI/arm-none-eabi/lib/libstdc++.a(stdexcept.o)
                0x000480f0                vtable for std::range_error

.rodata._ZTSSt11logic_error
                0x00048108       0x10
 .rodata._ZTSSt11logic_error
                0x00048108       0x10 /home/bseip/MentorGraphics/Sourcery_CodeBench_Lite_for_ARM_EABI/arm-none-eabi/lib/libstdc++.a(stdexcept.o)
                0x00048108                typeinfo name for std::logic_error

.rodata._ZTVSt12out_of_range
                0x00048118       0x18
 .rodata._ZTVSt12out_of_range
                0x00048118       0x18 /home/bseip/MentorGraphics/Sourcery_CodeBench_Lite_for_ARM_EABI/arm-none-eabi/lib/libstdc++.a(stdexcept.o)
                0x00048118                vtable for std::out_of_range

.rodata._ZTISt15underflow_error
                0x00048130        0xc
 .rodata._ZTISt15underflow_error
                0x00048130        0xc /home/bseip/MentorGraphics/Sourcery_CodeBench_Lite_for_ARM_EABI/arm-none-eabi/lib/libstdc++.a(stdexcept.o)
                0x00048130                typeinfo for std::underflow_error

.rodata._ZTSSt11range_error
                0x0004813c       0x10
 .rodata._ZTSSt11range_error
                0x0004813c       0x10 /home/bseip/MentorGraphics/Sourcery_CodeBench_Lite_for_ARM_EABI/arm-none-eabi/lib/libstdc++.a(stdexcept.o)
                0x0004813c                typeinfo name for std::range_error

.rodata._ZTISt16invalid_argument
                0x0004814c        0xc
 .rodata._ZTISt16invalid_argument
                0x0004814c        0xc /home/bseip/MentorGraphics/Sourcery_CodeBench_Lite_for_ARM_EABI/arm-none-eabi/lib/libstdc++.a(stdexcept.o)
                0x0004814c                typeinfo for std::invalid_argument

.rodata._ZTVSt11logic_error
                0x00048158       0x18
 .rodata._ZTVSt11logic_error
                0x00048158       0x18 /home/bseip/MentorGraphics/Sourcery_CodeBench_Lite_for_ARM_EABI/arm-none-eabi/lib/libstdc++.a(stdexcept.o)
                0x00048158                vtable for std::logic_error

.rodata._ZTISt12out_of_range
                0x00048170        0xc
 .rodata._ZTISt12out_of_range
                0x00048170        0xc /home/bseip/MentorGraphics/Sourcery_CodeBench_Lite_for_ARM_EABI/arm-none-eabi/lib/libstdc++.a(stdexcept.o)
                0x00048170                typeinfo for std::out_of_range

.rodata._ZTSSt12domain_error
                0x0004817c       0x14
 .rodata._ZTSSt12domain_error
                0x0004817c       0x14 /home/bseip/MentorGraphics/Sourcery_CodeBench_Lite_for_ARM_EABI/arm-none-eabi/lib/libstdc++.a(stdexcept.o)
                0x0004817c                typeinfo name for std::domain_error

.rodata._ZTVSt16invalid_argument
                0x00048190       0x18
 .rodata._ZTVSt16invalid_argument
                0x00048190       0x18 /home/bseip/MentorGraphics/Sourcery_CodeBench_Lite_for_ARM_EABI/arm-none-eabi/lib/libstdc++.a(stdexcept.o)
                0x00048190                vtable for std::invalid_argument

.rodata._ZTVSt12domain_error
                0x000481a8       0x18
 .rodata._ZTVSt12domain_error
                0x000481a8       0x18 /home/bseip/MentorGraphics/Sourcery_CodeBench_Lite_for_ARM_EABI/arm-none-eabi/lib/libstdc++.a(stdexcept.o)
                0x000481a8                vtable for std::domain_error

.rodata._ZTSSt12length_error
                0x000481c0       0x14
 .rodata._ZTSSt12length_error
                0x000481c0       0x14 /home/bseip/MentorGraphics/Sourcery_CodeBench_Lite_for_ARM_EABI/arm-none-eabi/lib/libstdc++.a(stdexcept.o)
                0x000481c0                typeinfo name for std::length_error

.rodata._ZTVSt14overflow_error
                0x000481d8       0x18
 .rodata._ZTVSt14overflow_error
                0x000481d8       0x18 /home/bseip/MentorGraphics/Sourcery_CodeBench_Lite_for_ARM_EABI/arm-none-eabi/lib/libstdc++.a(stdexcept.o)
                0x000481d8                vtable for std::overflow_error

.rodata._ZTISt14overflow_error
                0x000481f0        0xc
 .rodata._ZTISt14overflow_error
                0x000481f0        0xc /home/bseip/MentorGraphics/Sourcery_CodeBench_Lite_for_ARM_EABI/arm-none-eabi/lib/libstdc++.a(stdexcept.o)
                0x000481f0                typeinfo for std::overflow_error

.rodata._ZTISt12length_error
                0x000481fc        0xc
 .rodata._ZTISt12length_error
                0x000481fc        0xc /home/bseip/MentorGraphics/Sourcery_CodeBench_Lite_for_ARM_EABI/arm-none-eabi/lib/libstdc++.a(stdexcept.o)
                0x000481fc                typeinfo for std::length_error

.rodata._ZTVSt12length_error
                0x00048208       0x18
 .rodata._ZTVSt12length_error
                0x00048208       0x18 /home/bseip/MentorGraphics/Sourcery_CodeBench_Lite_for_ARM_EABI/arm-none-eabi/lib/libstdc++.a(stdexcept.o)
                0x00048208                vtable for std::length_error

.rodata._ZTSSt15underflow_error
                0x00048220       0x14
 .rodata._ZTSSt15underflow_error
                0x00048220       0x14 /home/bseip/MentorGraphics/Sourcery_CodeBench_Lite_for_ARM_EABI/arm-none-eabi/lib/libstdc++.a(stdexcept.o)
                0x00048220                typeinfo name for std::underflow_error

.rodata._ZTISt12domain_error
                0x00048234        0xc
 .rodata._ZTISt12domain_error
                0x00048234        0xc /home/bseip/MentorGraphics/Sourcery_CodeBench_Lite_for_ARM_EABI/arm-none-eabi/lib/libstdc++.a(stdexcept.o)
                0x00048234                typeinfo for std::domain_error

.ARM.extab.text._ZNK12_GLOBAL__N_122generic_error_category4nameEv
                0x00048240        0x0
 .ARM.extab.text._ZNK12_GLOBAL__N_122generic_error_category4nameEv
                0x00048240        0x0 /home/bseip/MentorGraphics/Sourcery_CodeBench_Lite_for_ARM_EABI/arm-none-eabi/lib/libstdc++.a(system_error.o)

.ARM.extab.text._ZNK12_GLOBAL__N_121system_error_category4nameEv
                0x00048240        0x0
 .ARM.extab.text._ZNK12_GLOBAL__N_121system_error_category4nameEv
                0x00048240        0x0 /home/bseip/MentorGraphics/Sourcery_CodeBench_Lite_for_ARM_EABI/arm-none-eabi/lib/libstdc++.a(system_error.o)

.ARM.extab.text._ZNSt14error_categoryD2Ev
                0x00048240        0x0
 .ARM.extab.text._ZNSt14error_categoryD2Ev
                0x00048240        0x0 /home/bseip/MentorGraphics/Sourcery_CodeBench_Lite_for_ARM_EABI/arm-none-eabi/lib/libstdc++.a(system_error.o)

.ARM.extab.text._ZNKSt14error_category23default_error_conditionEi
                0x00048240        0x0
 .ARM.extab.text._ZNKSt14error_category23default_error_conditionEi
                0x00048240        0x0 /home/bseip/MentorGraphics/Sourcery_CodeBench_Lite_for_ARM_EABI/arm-none-eabi/lib/libstdc++.a(system_error.o)

.ARM.extab.text._ZNKSt14error_category10equivalentEiRKSt15error_condition
                0x00048240        0x0
 .ARM.extab.text._ZNKSt14error_category10equivalentEiRKSt15error_condition
                0x00048240        0x0 /home/bseip/MentorGraphics/Sourcery_CodeBench_Lite_for_ARM_EABI/arm-none-eabi/lib/libstdc++.a(system_error.o)

.ARM.extab.text._ZNKSt14error_category10equivalentERKSt10error_codei
                0x00048240        0x0
 .ARM.extab.text._ZNKSt14error_category10equivalentERKSt10error_codei
                0x00048240        0x0 /home/bseip/MentorGraphics/Sourcery_CodeBench_Lite_for_ARM_EABI/arm-none-eabi/lib/libstdc++.a(system_error.o)

.ARM.extab.text._ZN12_GLOBAL__N_121system_error_categoryD2Ev
                0x00048240        0x0
 .ARM.extab.text._ZN12_GLOBAL__N_121system_error_categoryD2Ev
                0x00048240        0x0 /home/bseip/MentorGraphics/Sourcery_CodeBench_Lite_for_ARM_EABI/arm-none-eabi/lib/libstdc++.a(system_error.o)

.ARM.extab.text._ZN12_GLOBAL__N_122generic_error_categoryD2Ev
                0x00048240        0x0
 .ARM.extab.text._ZN12_GLOBAL__N_122generic_error_categoryD2Ev
                0x00048240        0x0 /home/bseip/MentorGraphics/Sourcery_CodeBench_Lite_for_ARM_EABI/arm-none-eabi/lib/libstdc++.a(system_error.o)

.ARM.extab.text._ZNSt14error_categoryD0Ev
                0x00048240        0x0
 .ARM.extab.text._ZNSt14error_categoryD0Ev
                0x00048240        0x0 /home/bseip/MentorGraphics/Sourcery_CodeBench_Lite_for_ARM_EABI/arm-none-eabi/lib/libstdc++.a(system_error.o)

.ARM.extab.text._ZN12_GLOBAL__N_121system_error_categoryD0Ev
                0x00048240        0x0
 .ARM.extab.text._ZN12_GLOBAL__N_121system_error_categoryD0Ev
                0x00048240        0x0 /home/bseip/MentorGraphics/Sourcery_CodeBench_Lite_for_ARM_EABI/arm-none-eabi/lib/libstdc++.a(system_error.o)

.ARM.extab.text._ZN12_GLOBAL__N_122generic_error_categoryD0Ev
                0x00048240        0x0
 .ARM.extab.text._ZN12_GLOBAL__N_122generic_error_categoryD0Ev
                0x00048240        0x0 /home/bseip/MentorGraphics/Sourcery_CodeBench_Lite_for_ARM_EABI/arm-none-eabi/lib/libstdc++.a(system_error.o)

.ARM.extab.text._ZNSt12system_errorD2Ev
                0x00048240        0x0
 .ARM.extab.text._ZNSt12system_errorD2Ev
                0x00048240        0x0 /home/bseip/MentorGraphics/Sourcery_CodeBench_Lite_for_ARM_EABI/arm-none-eabi/lib/libstdc++.a(system_error.o)

.ARM.extab.text._ZNSt12system_errorD0Ev
                0x00048240        0x0
 .ARM.extab.text._ZNSt12system_errorD0Ev
                0x00048240        0x0 /home/bseip/MentorGraphics/Sourcery_CodeBench_Lite_for_ARM_EABI/arm-none-eabi/lib/libstdc++.a(system_error.o)

.ARM.extab.text._ZNK12_GLOBAL__N_121system_error_category7messageEi
                0x00048240        0x0
 .ARM.extab.text._ZNK12_GLOBAL__N_121system_error_category7messageEi
                0x00048240        0x0 /home/bseip/MentorGraphics/Sourcery_CodeBench_Lite_for_ARM_EABI/arm-none-eabi/lib/libstdc++.a(system_error.o)

.ARM.extab.text._ZNK12_GLOBAL__N_122generic_error_category7messageEi
                0x00048240        0x0
 .ARM.extab.text._ZNK12_GLOBAL__N_122generic_error_category7messageEi
                0x00048240        0x0 /home/bseip/MentorGraphics/Sourcery_CodeBench_Lite_for_ARM_EABI/arm-none-eabi/lib/libstdc++.a(system_error.o)

.ARM.extab.text._ZNSt14error_categoryC2Ev
                0x00048240        0x0
 .ARM.extab.text._ZNSt14error_categoryC2Ev
                0x00048240        0x0 /home/bseip/MentorGraphics/Sourcery_CodeBench_Lite_for_ARM_EABI/arm-none-eabi/lib/libstdc++.a(system_error.o)

.ARM.extab.text._ZSt15system_categoryv
                0x00048240        0x0
 .ARM.extab.text._ZSt15system_categoryv
                0x00048240        0x0 /home/bseip/MentorGraphics/Sourcery_CodeBench_Lite_for_ARM_EABI/arm-none-eabi/lib/libstdc++.a(system_error.o)

.ARM.extab.text._ZSt16generic_categoryv
                0x00048240        0x0
 .ARM.extab.text._ZSt16generic_categoryv
                0x00048240        0x0 /home/bseip/MentorGraphics/Sourcery_CodeBench_Lite_for_ARM_EABI/arm-none-eabi/lib/libstdc++.a(system_error.o)

.ARM.extab.text._ZNKSt10error_code23default_error_conditionEv
                0x00048240        0x0
 .ARM.extab.text._ZNKSt10error_code23default_error_conditionEv
                0x00048240        0x0 /home/bseip/MentorGraphics/Sourcery_CodeBench_Lite_for_ARM_EABI/arm-none-eabi/lib/libstdc++.a(system_error.o)

.ARM.extab.text.startup._GLOBAL__sub_I__ZNSt14error_categoryC2Ev
                0x00048240        0x0
 .ARM.extab.text.startup._GLOBAL__sub_I__ZNSt14error_categoryC2Ev
                0x00048240        0x0 /home/bseip/MentorGraphics/Sourcery_CodeBench_Lite_for_ARM_EABI/arm-none-eabi/lib/libstdc++.a(system_error.o)

.rodata._ZTVSt12system_error
                0x00048240       0x18
 .rodata._ZTVSt12system_error
                0x00048240       0x18 /home/bseip/MentorGraphics/Sourcery_CodeBench_Lite_for_ARM_EABI/arm-none-eabi/lib/libstdc++.a(system_error.o)
                0x00048240                vtable for std::system_error

.rodata._ZTSN12_GLOBAL__N_121system_error_categoryE
                0x00048258       0x2c
 .rodata._ZTSN12_GLOBAL__N_121system_error_categoryE
                0x00048258       0x2c /home/bseip/MentorGraphics/Sourcery_CodeBench_Lite_for_ARM_EABI/arm-none-eabi/lib/libstdc++.a(system_error.o)

.rodata._ZTVSt14error_category
                0x00048288       0x28
 .rodata._ZTVSt14error_category
                0x00048288       0x28 /home/bseip/MentorGraphics/Sourcery_CodeBench_Lite_for_ARM_EABI/arm-none-eabi/lib/libstdc++.a(system_error.o)
                0x00048288                vtable for std::error_category

.rodata._ZTVN12_GLOBAL__N_121system_error_categoryE
                0x000482b0       0x28
 .rodata._ZTVN12_GLOBAL__N_121system_error_categoryE
                0x000482b0       0x28 /home/bseip/MentorGraphics/Sourcery_CodeBench_Lite_for_ARM_EABI/arm-none-eabi/lib/libstdc++.a(system_error.o)

.rodata._ZTSSt14error_category
                0x000482d8       0x14
 .rodata._ZTSSt14error_category
                0x000482d8       0x14 /home/bseip/MentorGraphics/Sourcery_CodeBench_Lite_for_ARM_EABI/arm-none-eabi/lib/libstdc++.a(system_error.o)
                0x000482d8                typeinfo name for std::error_category

.rodata._ZTVN12_GLOBAL__N_122generic_error_categoryE
                0x000482f0       0x28
 .rodata._ZTVN12_GLOBAL__N_122generic_error_categoryE
                0x000482f0       0x28 /home/bseip/MentorGraphics/Sourcery_CodeBench_Lite_for_ARM_EABI/arm-none-eabi/lib/libstdc++.a(system_error.o)

.rodata._ZTISt12system_error
                0x00048318        0xc
 .rodata._ZTISt12system_error
                0x00048318        0xc /home/bseip/MentorGraphics/Sourcery_CodeBench_Lite_for_ARM_EABI/arm-none-eabi/lib/libstdc++.a(system_error.o)
                0x00048318                typeinfo for std::system_error

.rodata._ZTISt14error_category
                0x00048324        0x8
 .rodata._ZTISt14error_category
                0x00048324        0x8 /home/bseip/MentorGraphics/Sourcery_CodeBench_Lite_for_ARM_EABI/arm-none-eabi/lib/libstdc++.a(system_error.o)
                0x00048324                typeinfo for std::error_category

.rodata._ZTSN12_GLOBAL__N_122generic_error_categoryE
                0x0004832c       0x2c
 .rodata._ZTSN12_GLOBAL__N_122generic_error_categoryE
                0x0004832c       0x2c /home/bseip/MentorGraphics/Sourcery_CodeBench_Lite_for_ARM_EABI/arm-none-eabi/lib/libstdc++.a(system_error.o)

.rodata._ZTIN12_GLOBAL__N_121system_error_categoryE
                0x00048358        0xc
 .rodata._ZTIN12_GLOBAL__N_121system_error_categoryE
                0x00048358        0xc /home/bseip/MentorGraphics/Sourcery_CodeBench_Lite_for_ARM_EABI/arm-none-eabi/lib/libstdc++.a(system_error.o)

.rodata._ZTIN12_GLOBAL__N_122generic_error_categoryE
                0x00048364        0xc
 .rodata._ZTIN12_GLOBAL__N_122generic_error_categoryE
                0x00048364        0xc /home/bseip/MentorGraphics/Sourcery_CodeBench_Lite_for_ARM_EABI/arm-none-eabi/lib/libstdc++.a(system_error.o)

.rodata._ZTSSt12system_error
                0x00048370       0x14
 .rodata._ZTSSt12system_error
                0x00048370       0x14 /home/bseip/MentorGraphics/Sourcery_CodeBench_Lite_for_ARM_EABI/arm-none-eabi/lib/libstdc++.a(system_error.o)
                0x00048370                typeinfo name for std::system_error

.ARM.extab.text._ZN9__gnu_cxx20recursive_init_errorD2Ev
                0x00048384        0x0
 .ARM.extab.text._ZN9__gnu_cxx20recursive_init_errorD2Ev
                0x00048384        0x0 /home/bseip/MentorGraphics/Sourcery_CodeBench_Lite_for_ARM_EABI/arm-none-eabi/lib/libstdc++.a(guard_error.o)

.ARM.extab.text._ZN9__gnu_cxx20recursive_init_errorD0Ev
                0x00048384        0x0
 .ARM.extab.text._ZN9__gnu_cxx20recursive_init_errorD0Ev
                0x00048384        0x0 /home/bseip/MentorGraphics/Sourcery_CodeBench_Lite_for_ARM_EABI/arm-none-eabi/lib/libstdc++.a(guard_error.o)

.rodata._ZTIN9__gnu_cxx20recursive_init_errorE
                0x00048384        0xc
 .rodata._ZTIN9__gnu_cxx20recursive_init_errorE
                0x00048384        0xc /home/bseip/MentorGraphics/Sourcery_CodeBench_Lite_for_ARM_EABI/arm-none-eabi/lib/libstdc++.a(guard_error.o)
                0x00048384                typeinfo for __gnu_cxx::recursive_init_error

.rodata._ZTSN9__gnu_cxx20recursive_init_errorE
                0x00048390       0x24
 .rodata._ZTSN9__gnu_cxx20recursive_init_errorE
                0x00048390       0x24 /home/bseip/MentorGraphics/Sourcery_CodeBench_Lite_for_ARM_EABI/arm-none-eabi/lib/libstdc++.a(guard_error.o)
                0x00048390                typeinfo name for __gnu_cxx::recursive_init_error

.rodata._ZTVN9__gnu_cxx20recursive_init_errorE
                0x000483b8       0x18
 .rodata._ZTVN9__gnu_cxx20recursive_init_errorE
                0x000483b8       0x18 /home/bseip/MentorGraphics/Sourcery_CodeBench_Lite_for_ARM_EABI/arm-none-eabi/lib/libstdc++.a(guard_error.o)
                0x000483b8                vtable for __gnu_cxx::recursive_init_error

.eh_frame       0x000483d0        0x4
 .eh_frame      0x000483d0        0x0 /home/bseip/MentorGraphics/Sourcery_CodeBench_Lite_for_ARM_EABI/lib/gcc/arm-none-eabi/4.8.1/crtbegin.o
 .eh_frame      0x000483d0        0x4 /home/bseip/MentorGraphics/Sourcery_CodeBench_Lite_for_ARM_EABI/lib/gcc/arm-none-eabi/4.8.1/crtend.o

.rel.dyn        0x00000000        0x0
 .rel.iplt      0x00000000        0x0 build/bcm2835.o

.ctors          0x00000000        0x0
                0x00000000                _CTORS_START_ = .
 *(SORT(.ctors.*))
 *(.ctors)
                0x00000000                _CTORS_END_ = .

.dtors          0x00000000        0x0
                0x00000000                _DTORS_START_ = .
 *(SORT(.dtors.*))
 *(.dtors)
                0x00000000                _DTORS_END_ = .

.bss            0x000483d8    0x401bc
                0x000483d8                _BSS_START_ = .
 *(.bss)
 .bss           0x000483d8        0x0 build/bcm2835.o
 .bss           0x000483d8       0xc0 build/main.o
                0x000483d8                serialreceived
                0x000483dc                serialbufferptr
                0x000483e0                serialbuffer
                0x00048444                timer1signal
                0x00048448                timer200signal
                0x0004844c                timer200countdown
                0x00048450                time
                0x00048454                timer20countdown
                0x00048458                timer20signal
                0x00048460                mysysinfo
                0x00048490                testledon
                0x00048494                fb
 .bss           0x00048498        0x0 build/other.o
 .bss           0x00048498        0x0 build/uart.o
 .bss           0x00048498        0x0 build/gapi/binaries.o
 .bss           0x00048498        0x0 build/gapi/bitmap.o
 .bss           0x00048498    0x40030 build/gapi/common.o
                0x00048498                MessageQueue
                0x000484c0                buf
                0x000884c0                InactivityAction
                0x000884c4                inactivity_counter
 .bss           0x000884c8        0xc build/gapi/controlbutton.o
                0x000884c8                ControlButton::_fontxx
                0x000884cc                ControlButton::_sounddata
                0x000884d0                ControlButton::_soundsize
 .bss           0x000884d4        0x0 build/gapi/flipbook.o
 .bss           0x000884d4        0x0 build/gapi/font.o
 .bss           0x000884d4       0x38 build/gapi/memory_tracking.o
                0x000884ec                gTrackAllocation
                0x000884f0                gAllocatedMemory
 .bss           0x0008850c        0x0 build/gapi/rectangle.o
 .bss           0x0008850c        0x0 build/gapi/screen.o
 .bss           0x0008850c        0x0 build/gapi/screenraspi.o
 .bss           0x0008850c        0x0 build/gapi/wconsole.o
 .bss           0x0008850c        0x4 build/gapi/window.o
                0x0008850c                Window::_pen_capture_target
 .bss           0x00088510        0xc build/syscalls.o
                0x00088510                heap_end
                0x00088518                __env
 .bss           0x0008851c        0x0 build/fonts/6x8.o
 .bss           0x0008851c        0x0 build/fonts/ComicSansMS10.o
 .bss           0x0008851c        0x0 build/fonts/ComicSansMS10.height.o
 .bss           0x0008851c        0x0 build/fonts/ComicSansMS10.width.o
 .bss           0x0008851c        0x0 build/fonts/ComicSansMS12.o
 .bss           0x0008851c        0x0 build/fonts/ComicSansMS12.height.o
 .bss           0x0008851c        0x0 build/fonts/ComicSansMS12.width.o
 .bss           0x0008851c        0x0 build/fonts/EGA_8x8.o
 .bss           0x0008851c        0x0 build/fonts/font6x8.o
 .bss           0x0008851c        0x0 build/fonts/font6x8_width.o
 .bss           0x0008851c        0x0 build/fonts/LucidaConsole10.o
 .bss           0x0008851c        0x0 build/fonts/LucidaConsole10.width.o
 .bss           0x0008851c        0x0 build/fonts/Noritake5x5.o
 .bss           0x0008851c        0x0 build/fonts/Noritake5x5.width.o
 .bss           0x0008851c        0x0 build/fonts/VGA_16x16.o
 .bss           0x0008851c        0x0 build/fatfs/diskio.o
 .bss           0x0008851c        0x8 build/fatfs/ff.o
 .bss           0x00088524        0x0 build/mmc/block.o
 .bss           0x00088524        0xc build/mmc/emmc.o
 .bss           0x00088530        0x0 build/mmc/mbox.o
 .bss           0x00088530        0x0 build/mmc/mmio.o
 .bss           0x00088530        0x0 build/mmc/timer.o
 .bss           0x00088530        0x0 build/gpio.o
 .bss           0x00088530        0x0 build/mailbox.o
 .bss           0x00088530        0x0 build/screens.o
 .bss           0x00088530        0x0 build/startup.o
 .bss           0x00088530        0x0 /home/bseip/MentorGraphics/Sourcery_CodeBench_Lite_for_ARM_EABI/lib/gcc/arm-none-eabi/4.8.1/libgcc.a(_udivsi3.o)
 .bss           0x00088530        0x0 /home/bseip/MentorGraphics/Sourcery_CodeBench_Lite_for_ARM_EABI/lib/gcc/arm-none-eabi/4.8.1/libgcc.a(_divsi3.o)
 .bss           0x00088530        0x0 /home/bseip/MentorGraphics/Sourcery_CodeBench_Lite_for_ARM_EABI/lib/gcc/arm-none-eabi/4.8.1/libgcc.a(_dvmd_tls.o)
 .bss           0x00088530        0x0 /home/bseip/MentorGraphics/Sourcery_CodeBench_Lite_for_ARM_EABI/lib/gcc/arm-none-eabi/4.8.1/libgcc.a(unwind-arm.o)
 .bss           0x00088530        0x0 /home/bseip/MentorGraphics/Sourcery_CodeBench_Lite_for_ARM_EABI/lib/gcc/arm-none-eabi/4.8.1/libgcc.a(libunwind.o)
 .bss           0x00088530        0x0 /home/bseip/MentorGraphics/Sourcery_CodeBench_Lite_for_ARM_EABI/lib/gcc/arm-none-eabi/4.8.1/libgcc.a(pr-support.o)
 .bss           0x00088530        0x0 /home/bseip/MentorGraphics/Sourcery_CodeBench_Lite_for_ARM_EABI/arm-none-eabi/lib/libc.a(lib_a-aeabi_atexit.o)
 .bss           0x00088530        0x0 /home/bseip/MentorGraphics/Sourcery_CodeBench_Lite_for_ARM_EABI/arm-none-eabi/lib/libc.a(lib_a-assert.o)
 .bss           0x00088530        0x0 /home/bseip/MentorGraphics/Sourcery_CodeBench_Lite_for_ARM_EABI/arm-none-eabi/lib/libc.a(lib_a-cxa_atexit.o)
 .bss           0x00088530        0x0 /home/bseip/MentorGraphics/Sourcery_CodeBench_Lite_for_ARM_EABI/arm-none-eabi/lib/libc.a(lib_a-fiprintf.o)
 .bss           0x00088530        0x0 /home/bseip/MentorGraphics/Sourcery_CodeBench_Lite_for_ARM_EABI/arm-none-eabi/lib/libc.a(lib_a-fprintf.o)
 .bss           0x00088530        0x0 /home/bseip/MentorGraphics/Sourcery_CodeBench_Lite_for_ARM_EABI/arm-none-eabi/lib/libc.a(lib_a-impure.o)
 .bss           0x00088530        0x0 /home/bseip/MentorGraphics/Sourcery_CodeBench_Lite_for_ARM_EABI/arm-none-eabi/lib/libc.a(lib_a-malloc.o)
 .bss           0x00088530       0x34 /home/bseip/MentorGraphics/Sourcery_CodeBench_Lite_for_ARM_EABI/arm-none-eabi/lib/libc.a(lib_a-mallocr.o)
                0x00088530                __malloc_top_pad
                0x00088534                __malloc_current_mallinfo
                0x0008855c                __malloc_max_sbrked_mem
                0x00088560                __malloc_max_total_mem
 .bss           0x00088564        0x0 /home/bseip/MentorGraphics/Sourcery_CodeBench_Lite_for_ARM_EABI/arm-none-eabi/lib/libc.a(lib_a-memcpy-stub.o)
 .bss           0x00088564        0x0 /home/bseip/MentorGraphics/Sourcery_CodeBench_Lite_for_ARM_EABI/arm-none-eabi/lib/libc.a(lib_a-memmove.o)
 .bss           0x00088564        0x0 /home/bseip/MentorGraphics/Sourcery_CodeBench_Lite_for_ARM_EABI/arm-none-eabi/lib/libc.a(lib_a-memset.o)
 .bss           0x00088564        0x0 /home/bseip/MentorGraphics/Sourcery_CodeBench_Lite_for_ARM_EABI/arm-none-eabi/lib/libc.a(lib_a-mlock.o)
 .bss           0x00088564        0x0 /home/bseip/MentorGraphics/Sourcery_CodeBench_Lite_for_ARM_EABI/arm-none-eabi/lib/libc.a(lib_a-printf.o)
 .bss           0x00088564        0x0 /home/bseip/MentorGraphics/Sourcery_CodeBench_Lite_for_ARM_EABI/arm-none-eabi/lib/libc.a(lib_a-reent.o)
 .bss           0x00088564        0x0 /home/bseip/MentorGraphics/Sourcery_CodeBench_Lite_for_ARM_EABI/arm-none-eabi/lib/libc.a(lib_a-sbrkr.o)
 .bss           0x00088564        0x0 /home/bseip/MentorGraphics/Sourcery_CodeBench_Lite_for_ARM_EABI/arm-none-eabi/lib/libc.a(lib_a-sprintf.o)
 .bss           0x00088564        0x0 /home/bseip/MentorGraphics/Sourcery_CodeBench_Lite_for_ARM_EABI/arm-none-eabi/lib/libc.a(lib_a-sscanf.o)
 .bss           0x00088564        0x0 /home/bseip/MentorGraphics/Sourcery_CodeBench_Lite_for_ARM_EABI/arm-none-eabi/lib/libc.a(lib_a-stdio.o)
 .bss           0x00088564        0x0 /home/bseip/MentorGraphics/Sourcery_CodeBench_Lite_for_ARM_EABI/arm-none-eabi/lib/libc.a(lib_a-strlen.o)
 .bss           0x00088564        0x0 /home/bseip/MentorGraphics/Sourcery_CodeBench_Lite_for_ARM_EABI/arm-none-eabi/lib/libc.a(lib_a-strncpy.o)
 .bss           0x00088564        0x0 /home/bseip/MentorGraphics/Sourcery_CodeBench_Lite_for_ARM_EABI/arm-none-eabi/lib/libc.a(lib_a-svfprintf.o)
 .bss           0x00088564        0x0 /home/bseip/MentorGraphics/Sourcery_CodeBench_Lite_for_ARM_EABI/arm-none-eabi/lib/libc.a(lib_a-svfscanf.o)
 .bss           0x00088564        0x0 /home/bseip/MentorGraphics/Sourcery_CodeBench_Lite_for_ARM_EABI/arm-none-eabi/lib/libc.a(lib_a-toupper.o)
 .bss           0x00088564        0x0 /home/bseip/MentorGraphics/Sourcery_CodeBench_Lite_for_ARM_EABI/arm-none-eabi/lib/libc.a(lib_a-vfiprintf.o)
 .bss           0x00088564        0x0 /home/bseip/MentorGraphics/Sourcery_CodeBench_Lite_for_ARM_EABI/arm-none-eabi/lib/libc.a(lib_a-vfprintf.o)
 .bss           0x00088564        0x0 /home/bseip/MentorGraphics/Sourcery_CodeBench_Lite_for_ARM_EABI/arm-none-eabi/lib/libc.a(lib_a-writer.o)
 .bss           0x00088564        0x0 /home/bseip/MentorGraphics/Sourcery_CodeBench_Lite_for_ARM_EABI/arm-none-eabi/lib/libc.a(lib_a-wsetup.o)
 .bss           0x00088564        0x0 /home/bseip/MentorGraphics/Sourcery_CodeBench_Lite_for_ARM_EABI/arm-none-eabi/lib/libc.a(lib_a-__atexit.o)
 .bss           0x00088564        0x0 /home/bseip/MentorGraphics/Sourcery_CodeBench_Lite_for_ARM_EABI/arm-none-eabi/lib/libc.a(lib_a-closer.o)
 .bss           0x00088564        0x0 /home/bseip/MentorGraphics/Sourcery_CodeBench_Lite_for_ARM_EABI/arm-none-eabi/lib/libc.a(lib_a-ctype_.o)
 .bss           0x00088564        0x0 /home/bseip/MentorGraphics/Sourcery_CodeBench_Lite_for_ARM_EABI/arm-none-eabi/lib/libc.a(lib_a-dtoa.o)
 .bss           0x00088564        0x0 /home/bseip/MentorGraphics/Sourcery_CodeBench_Lite_for_ARM_EABI/arm-none-eabi/lib/libc.a(lib_a-fflush.o)
 .bss           0x00088564        0x0 /home/bseip/MentorGraphics/Sourcery_CodeBench_Lite_for_ARM_EABI/arm-none-eabi/lib/libc.a(lib_a-findfp.o)
 .bss           0x00088564        0x0 /home/bseip/MentorGraphics/Sourcery_CodeBench_Lite_for_ARM_EABI/arm-none-eabi/lib/libc.a(lib_a-fputwc.o)
 .bss           0x00088564        0x0 /home/bseip/MentorGraphics/Sourcery_CodeBench_Lite_for_ARM_EABI/arm-none-eabi/lib/libc.a(lib_a-freer.o)
 .bss           0x00088564        0x0 /home/bseip/MentorGraphics/Sourcery_CodeBench_Lite_for_ARM_EABI/arm-none-eabi/lib/libc.a(lib_a-fvwrite.o)
 .bss           0x00088564        0x0 /home/bseip/MentorGraphics/Sourcery_CodeBench_Lite_for_ARM_EABI/arm-none-eabi/lib/libc.a(lib_a-fwalk.o)
 .bss           0x00088564        0x0 /home/bseip/MentorGraphics/Sourcery_CodeBench_Lite_for_ARM_EABI/arm-none-eabi/lib/libc.a(lib_a-iswspace.o)
 .bss           0x00088564        0xc /home/bseip/MentorGraphics/Sourcery_CodeBench_Lite_for_ARM_EABI/arm-none-eabi/lib/libc.a(lib_a-locale.o)
                0x00088564                _PathLocale
                0x00088568                __mlocale_changed
                0x0008856c                __nlocale_changed
 .bss           0x00088570        0x0 /home/bseip/MentorGraphics/Sourcery_CodeBench_Lite_for_ARM_EABI/arm-none-eabi/lib/libc.a(lib_a-lseekr.o)
 .bss           0x00088570        0x0 /home/bseip/MentorGraphics/Sourcery_CodeBench_Lite_for_ARM_EABI/arm-none-eabi/lib/libc.a(lib_a-makebuf.o)
 .bss           0x00088570        0x0 /home/bseip/MentorGraphics/Sourcery_CodeBench_Lite_for_ARM_EABI/arm-none-eabi/lib/libc.a(lib_a-mbrtowc.o)
 .bss           0x00088570        0x0 /home/bseip/MentorGraphics/Sourcery_CodeBench_Lite_for_ARM_EABI/arm-none-eabi/lib/libc.a(lib_a-mbtowc_r.o)
 .bss           0x00088570        0x0 /home/bseip/MentorGraphics/Sourcery_CodeBench_Lite_for_ARM_EABI/arm-none-eabi/lib/libc.a(lib_a-memchr-stub.o)
 .bss           0x00088570        0x0 /home/bseip/MentorGraphics/Sourcery_CodeBench_Lite_for_ARM_EABI/arm-none-eabi/lib/libc.a(lib_a-mprec.o)
 .bss           0x00088570        0x0 /home/bseip/MentorGraphics/Sourcery_CodeBench_Lite_for_ARM_EABI/arm-none-eabi/lib/libc.a(lib_a-readr.o)
 .bss           0x00088570        0x0 /home/bseip/MentorGraphics/Sourcery_CodeBench_Lite_for_ARM_EABI/arm-none-eabi/lib/libc.a(lib_a-reallocr.o)
 .bss           0x00088570        0x0 /home/bseip/MentorGraphics/Sourcery_CodeBench_Lite_for_ARM_EABI/arm-none-eabi/lib/libc.a(lib_a-s_fpclassify.o)
 .bss           0x00088570        0x0 /home/bseip/MentorGraphics/Sourcery_CodeBench_Lite_for_ARM_EABI/arm-none-eabi/lib/libc.a(lib_a-sccl.o)
 .bss           0x00088570        0x0 /home/bseip/MentorGraphics/Sourcery_CodeBench_Lite_for_ARM_EABI/arm-none-eabi/lib/libc.a(lib_a-sf_nan.o)
 .bss           0x00088570        0x0 /home/bseip/MentorGraphics/Sourcery_CodeBench_Lite_for_ARM_EABI/arm-none-eabi/lib/libc.a(lib_a-strcmp.o)
 .bss           0x00088570        0x0 /home/bseip/MentorGraphics/Sourcery_CodeBench_Lite_for_ARM_EABI/arm-none-eabi/lib/libc.a(lib_a-strtod.o)
 .bss           0x00088570        0x0 /home/bseip/MentorGraphics/Sourcery_CodeBench_Lite_for_ARM_EABI/arm-none-eabi/lib/libc.a(lib_a-strtol.o)
 .bss           0x00088570        0x0 /home/bseip/MentorGraphics/Sourcery_CodeBench_Lite_for_ARM_EABI/arm-none-eabi/lib/libc.a(lib_a-strtoll_r.o)
 .bss           0x00088570        0x0 /home/bseip/MentorGraphics/Sourcery_CodeBench_Lite_for_ARM_EABI/arm-none-eabi/lib/libc.a(lib_a-strtoul.o)
 .bss           0x00088570        0x0 /home/bseip/MentorGraphics/Sourcery_CodeBench_Lite_for_ARM_EABI/arm-none-eabi/lib/libc.a(lib_a-strtoull_r.o)
 .bss           0x00088570        0x0 /home/bseip/MentorGraphics/Sourcery_CodeBench_Lite_for_ARM_EABI/arm-none-eabi/lib/libc.a(lib_a-svfiprintf.o)
 .bss           0x00088570        0x0 /home/bseip/MentorGraphics/Sourcery_CodeBench_Lite_for_ARM_EABI/arm-none-eabi/lib/libc.a(lib_a-svfiscanf.o)
 .bss           0x00088570        0x0 /home/bseip/MentorGraphics/Sourcery_CodeBench_Lite_for_ARM_EABI/arm-none-eabi/lib/libc.a(lib_a-ungetc.o)
 .bss           0x00088570        0x0 /home/bseip/MentorGraphics/Sourcery_CodeBench_Lite_for_ARM_EABI/arm-none-eabi/lib/libc.a(lib_a-wbuf.o)
 .bss           0x00088570        0x0 /home/bseip/MentorGraphics/Sourcery_CodeBench_Lite_for_ARM_EABI/arm-none-eabi/lib/libc.a(lib_a-wcrtomb.o)
 .bss           0x00088570        0x0 /home/bseip/MentorGraphics/Sourcery_CodeBench_Lite_for_ARM_EABI/arm-none-eabi/lib/libc.a(lib_a-wctomb_r.o)
 .bss           0x00088570        0x0 /home/bseip/MentorGraphics/Sourcery_CodeBench_Lite_for_ARM_EABI/arm-none-eabi/lib/libc.a(lib_a-callocr.o)
 .bss           0x00088570        0x0 /home/bseip/MentorGraphics/Sourcery_CodeBench_Lite_for_ARM_EABI/arm-none-eabi/lib/libc.a(lib_a-fclose.o)
 .bss           0x00088570        0x0 /home/bseip/MentorGraphics/Sourcery_CodeBench_Lite_for_ARM_EABI/arm-none-eabi/lib/libc.a(lib_a-fstatr.o)
 .bss           0x00088570        0x0 /home/bseip/MentorGraphics/Sourcery_CodeBench_Lite_for_ARM_EABI/arm-none-eabi/lib/libc.a(lib_a-gdtoa-gethex.o)
 .bss           0x00088570        0x0 /home/bseip/MentorGraphics/Sourcery_CodeBench_Lite_for_ARM_EABI/arm-none-eabi/lib/libc.a(lib_a-gdtoa-hexnan.o)
 .bss           0x00088570        0x0 /home/bseip/MentorGraphics/Sourcery_CodeBench_Lite_for_ARM_EABI/arm-none-eabi/lib/libc.a(lib_a-isattyr.o)
 .bss           0x00088570        0x0 /home/bseip/MentorGraphics/Sourcery_CodeBench_Lite_for_ARM_EABI/arm-none-eabi/lib/libc.a(lib_a-strncmp.o)
 .bss           0x00088570        0x0 /home/bseip/MentorGraphics/Sourcery_CodeBench_Lite_for_ARM_EABI/arm-none-eabi/lib/libstdc++.a(eh_catch.o)
 .bss           0x00088570        0x0 /home/bseip/MentorGraphics/Sourcery_CodeBench_Lite_for_ARM_EABI/arm-none-eabi/lib/libstdc++.a(si_class_type_info.o)
 .bss           0x00088570        0x0 /home/bseip/MentorGraphics/Sourcery_CodeBench_Lite_for_ARM_EABI/arm-none-eabi/lib/libstdc++.a(eh_terminate.o)
 .bss           0x00088570        0x0 /home/bseip/MentorGraphics/Sourcery_CodeBench_Lite_for_ARM_EABI/arm-none-eabi/lib/libstdc++.a(tinfo.o)
 .bss           0x00088570        0x0 /home/bseip/MentorGraphics/Sourcery_CodeBench_Lite_for_ARM_EABI/arm-none-eabi/lib/libstdc++.a(eh_alloc.o)
 .bss           0x00088570        0x0 /home/bseip/MentorGraphics/Sourcery_CodeBench_Lite_for_ARM_EABI/arm-none-eabi/lib/libstdc++.a(eh_personality.o)
 .bss           0x00088570        0x0 /home/bseip/MentorGraphics/Sourcery_CodeBench_Lite_for_ARM_EABI/arm-none-eabi/lib/libstdc++.a(eh_arm.o)
 .bss           0x00088570        0x0 /home/bseip/MentorGraphics/Sourcery_CodeBench_Lite_for_ARM_EABI/arm-none-eabi/lib/libstdc++.a(eh_exception.o)
 .bss           0x00088570        0x0 /home/bseip/MentorGraphics/Sourcery_CodeBench_Lite_for_ARM_EABI/arm-none-eabi/lib/libstdc++.a(eh_globals.o)
 .bss           0x00088570        0x0 /home/bseip/MentorGraphics/Sourcery_CodeBench_Lite_for_ARM_EABI/arm-none-eabi/lib/libstdc++.a(eh_call.o)
 .bss           0x00088570        0x0 /home/bseip/MentorGraphics/Sourcery_CodeBench_Lite_for_ARM_EABI/arm-none-eabi/lib/libstdc++.a(eh_throw.o)
 .bss           0x00088570        0x0 /home/bseip/MentorGraphics/Sourcery_CodeBench_Lite_for_ARM_EABI/arm-none-eabi/lib/libstdc++.a(bad_alloc.o)
 .bss           0x00088570        0x0 /home/bseip/MentorGraphics/Sourcery_CodeBench_Lite_for_ARM_EABI/arm-none-eabi/lib/libstdc++.a(eh_unex_handler.o)
 .bss           0x00088570        0x0 /home/bseip/MentorGraphics/Sourcery_CodeBench_Lite_for_ARM_EABI/arm-none-eabi/lib/libstdc++.a(class_type_info.o)
 .bss           0x00088570        0x0 /home/bseip/MentorGraphics/Sourcery_CodeBench_Lite_for_ARM_EABI/arm-none-eabi/lib/libstdc++.a(eh_term_handler.o)
 .bss           0x00088570        0x0 /home/bseip/MentorGraphics/Sourcery_CodeBench_Lite_for_ARM_EABI/arm-none-eabi/lib/libstdc++.a(pure.o)
 .bss           0x00088570        0x0 /home/bseip/MentorGraphics/Sourcery_CodeBench_Lite_for_ARM_EABI/arm-none-eabi/lib/libstdc++.a(tree.o)
 .bss           0x00088570        0x0 /home/bseip/MentorGraphics/Sourcery_CodeBench_Lite_for_ARM_EABI/arm-none-eabi/lib/libstdc++.a(functexcept.o)
 .bss           0x00088570        0x0 /home/bseip/MentorGraphics/Sourcery_CodeBench_Lite_for_ARM_EABI/arm-none-eabi/lib/libstdc++.a(string-inst.o)
 .bss           0x00088570        0x0 /home/bseip/MentorGraphics/Sourcery_CodeBench_Lite_for_ARM_EABI/arm-none-eabi/lib/libstdc++.a(future.o)
 .bss           0x00088570        0x0 /home/bseip/MentorGraphics/Sourcery_CodeBench_Lite_for_ARM_EABI/arm-none-eabi/lib/libstdc++.a(functional.o)
 .bss           0x00088570        0x0 /home/bseip/MentorGraphics/Sourcery_CodeBench_Lite_for_ARM_EABI/arm-none-eabi/lib/libstdc++.a(regex.o)
 .bss           0x00088570        0x0 /home/bseip/MentorGraphics/Sourcery_CodeBench_Lite_for_ARM_EABI/arm-none-eabi/lib/libstdc++.a(bad_cast.o)
 .bss           0x00088570        0x0 /home/bseip/MentorGraphics/Sourcery_CodeBench_Lite_for_ARM_EABI/arm-none-eabi/lib/libstdc++.a(bad_typeid.o)
 .bss           0x00088570        0x0 /home/bseip/MentorGraphics/Sourcery_CodeBench_Lite_for_ARM_EABI/arm-none-eabi/lib/libstdc++.a(guard.o)
 .bss           0x00088570        0x0 /home/bseip/MentorGraphics/Sourcery_CodeBench_Lite_for_ARM_EABI/arm-none-eabi/lib/libstdc++.a(vterminate.o)
 .bss           0x00088570        0x0 /home/bseip/MentorGraphics/Sourcery_CodeBench_Lite_for_ARM_EABI/arm-none-eabi/lib/libstdc++.a(cp-demangle.o)
 .bss           0x00088570        0x0 /home/bseip/MentorGraphics/Sourcery_CodeBench_Lite_for_ARM_EABI/arm-none-eabi/lib/libstdc++.a(eh_type.o)
 .bss           0x00088570        0x0 /home/bseip/MentorGraphics/Sourcery_CodeBench_Lite_for_ARM_EABI/arm-none-eabi/lib/libstdc++.a(ios_failure.o)
 .bss           0x00088570        0x0 /home/bseip/MentorGraphics/Sourcery_CodeBench_Lite_for_ARM_EABI/arm-none-eabi/lib/libstdc++.a(stdexcept.o)
 .bss           0x00088570        0x0 /home/bseip/MentorGraphics/Sourcery_CodeBench_Lite_for_ARM_EABI/arm-none-eabi/lib/libstdc++.a(system_error.o)
 .bss           0x00088570        0x0 /home/bseip/MentorGraphics/Sourcery_CodeBench_Lite_for_ARM_EABI/arm-none-eabi/lib/libstdc++.a(guard_error.o)
 .bss           0x00088570        0x0 /home/bseip/MentorGraphics/Sourcery_CodeBench_Lite_for_ARM_EABI/lib/gcc/arm-none-eabi/4.8.1/crti.o
 .bss           0x00088570       0x1c /home/bseip/MentorGraphics/Sourcery_CodeBench_Lite_for_ARM_EABI/lib/gcc/arm-none-eabi/4.8.1/crtbegin.o
 .bss           0x0008858c        0x0 /home/bseip/MentorGraphics/Sourcery_CodeBench_Lite_for_ARM_EABI/lib/gcc/arm-none-eabi/4.8.1/crtend.o
 .bss           0x0008858c        0x0 /home/bseip/MentorGraphics/Sourcery_CodeBench_Lite_for_ARM_EABI/lib/gcc/arm-none-eabi/4.8.1/libgcc.a(_arm_addsubdf3.o)
 .bss           0x0008858c        0x0 /home/bseip/MentorGraphics/Sourcery_CodeBench_Lite_for_ARM_EABI/lib/gcc/arm-none-eabi/4.8.1/libgcc.a(_arm_muldivdf3.o)
 .bss           0x0008858c        0x0 /home/bseip/MentorGraphics/Sourcery_CodeBench_Lite_for_ARM_EABI/lib/gcc/arm-none-eabi/4.8.1/libgcc.a(_arm_cmpdf2.o)
 .bss           0x0008858c        0x0 /home/bseip/MentorGraphics/Sourcery_CodeBench_Lite_for_ARM_EABI/lib/gcc/arm-none-eabi/4.8.1/libgcc.a(_arm_fixdfsi.o)
 .bss           0x0008858c        0x0 /home/bseip/MentorGraphics/Sourcery_CodeBench_Lite_for_ARM_EABI/lib/gcc/arm-none-eabi/4.8.1/libgcc.a(_arm_fixunsdfsi.o)
 .bss           0x0008858c        0x0 /home/bseip/MentorGraphics/Sourcery_CodeBench_Lite_for_ARM_EABI/lib/gcc/arm-none-eabi/4.8.1/libgcc.a(_arm_truncdfsf2.o)
 .bss           0x0008858c        0x0 /home/bseip/MentorGraphics/Sourcery_CodeBench_Lite_for_ARM_EABI/lib/gcc/arm-none-eabi/4.8.1/libgcc.a(_arm_cmpsf2.o)
 .bss           0x0008858c        0x0 /home/bseip/MentorGraphics/Sourcery_CodeBench_Lite_for_ARM_EABI/lib/gcc/arm-none-eabi/4.8.1/libgcc.a(_aeabi_uldivmod.o)
 .bss           0x0008858c        0x0 /home/bseip/MentorGraphics/Sourcery_CodeBench_Lite_for_ARM_EABI/lib/gcc/arm-none-eabi/4.8.1/libgcc.a(bpabi.o)
 .bss           0x0008858c        0x0 /home/bseip/MentorGraphics/Sourcery_CodeBench_Lite_for_ARM_EABI/lib/gcc/arm-none-eabi/4.8.1/libgcc.a(_divdi3.o)
 .bss           0x0008858c        0x0 /home/bseip/MentorGraphics/Sourcery_CodeBench_Lite_for_ARM_EABI/lib/gcc/arm-none-eabi/4.8.1/libgcc.a(_udivdi3.o)
 .bss           0x0008858c        0x0 /home/bseip/MentorGraphics/Sourcery_CodeBench_Lite_for_ARM_EABI/lib/gcc/arm-none-eabi/4.8.1/libgcc.a(_clzsi2.o)
 .bss           0x0008858c        0x0 /home/bseip/MentorGraphics/Sourcery_CodeBench_Lite_for_ARM_EABI/arm-none-eabi/lib/libc.a(lib_a-fputc.o)
 .bss           0x0008858c        0x0 /home/bseip/MentorGraphics/Sourcery_CodeBench_Lite_for_ARM_EABI/arm-none-eabi/lib/libc.a(lib_a-fputs.o)
 .bss           0x0008858c        0x0 /home/bseip/MentorGraphics/Sourcery_CodeBench_Lite_for_ARM_EABI/arm-none-eabi/lib/libc.a(lib_a-fwrite.o)
 .bss           0x0008858c        0x0 /home/bseip/MentorGraphics/Sourcery_CodeBench_Lite_for_ARM_EABI/arm-none-eabi/lib/libc.a(lib_a-memcmp.o)
 .bss           0x0008858c        0x0 /home/bseip/MentorGraphics/Sourcery_CodeBench_Lite_for_ARM_EABI/arm-none-eabi/lib/libc.a(lib_a-putc.o)
 .bss           0x0008858c        0x0 /home/bseip/MentorGraphics/Sourcery_CodeBench_Lite_for_ARM_EABI/arm-none-eabi/lib/libc.a(lib_a-realloc.o)
 .bss           0x0008858c        0x0 /home/bseip/MentorGraphics/Sourcery_CodeBench_Lite_for_ARM_EABI/arm-none-eabi/lib/libc.a(lib_a-strerror.o)
 .bss           0x0008858c        0x0 /home/bseip/MentorGraphics/Sourcery_CodeBench_Lite_for_ARM_EABI/arm-none-eabi/lib/libc.a(lib_a-syswrite.o)
 .bss           0x0008858c        0x0 /home/bseip/MentorGraphics/Sourcery_CodeBench_Lite_for_ARM_EABI/arm-none-eabi/lib/libc.a(lib_a-u_strerr.o)
                0x0008858c                _BSS_END_ = .
 COMMON         0x0008858c        0x4 build/fatfs/diskio.o
                0x0008858c                sddevice
 COMMON         0x00088590        0x4 /home/bseip/MentorGraphics/Sourcery_CodeBench_Lite_for_ARM_EABI/arm-none-eabi/lib/libc.a(lib_a-reent.o)
                0x00088590                errno

.bss._ZL15dependents_used
                0x00088594        0x4
 .bss._ZL15dependents_used
                0x00088594        0x4 /home/bseip/MentorGraphics/Sourcery_CodeBench_Lite_for_ARM_EABI/arm-none-eabi/lib/libstdc++.a(eh_alloc.o)

.bss._ZL17dependents_buffer
                0x00088598      0x1e0
 .bss._ZL17dependents_buffer
                0x00088598      0x1e0 /home/bseip/MentorGraphics/Sourcery_CodeBench_Lite_for_ARM_EABI/arm-none-eabi/lib/libstdc++.a(eh_alloc.o)

.bss._ZL14emergency_used
                0x00088778        0x4
 .bss._ZL14emergency_used
                0x00088778        0x4 /home/bseip/MentorGraphics/Sourcery_CodeBench_Lite_for_ARM_EABI/arm-none-eabi/lib/libstdc++.a(eh_alloc.o)

.bss._ZL16emergency_buffer
                0x00088780      0x800
 .bss._ZL16emergency_buffer
                0x00088780      0x800 /home/bseip/MentorGraphics/Sourcery_CodeBench_Lite_for_ARM_EABI/arm-none-eabi/lib/libstdc++.a(eh_alloc.o)

.bss._ZL10eh_globals
                0x00088f80        0xc
 .bss._ZL10eh_globals
                0x00088f80        0xc /home/bseip/MentorGraphics/Sourcery_CodeBench_Lite_for_ARM_EABI/arm-none-eabi/lib/libstdc++.a(eh_globals.o)

.bss._ZNSs4_Rep20_S_empty_rep_storageE
                0x00088f8c       0x10
 .bss._ZNSs4_Rep20_S_empty_rep_storageE
                0x00088f8c       0x10 /home/bseip/MentorGraphics/Sourcery_CodeBench_Lite_for_ARM_EABI/arm-none-eabi/lib/libstdc++.a(string-inst.o)
                0x00088f8c                std::string::_Rep::_S_empty_rep_storage

.bss._ZZN12_GLOBAL__N_126__future_category_instanceEvE5__fec
                0x00088f9c        0x4
 .bss._ZZN12_GLOBAL__N_126__future_category_instanceEvE5__fec
                0x00088f9c        0x4 /home/bseip/MentorGraphics/Sourcery_CodeBench_Lite_for_ARM_EABI/arm-none-eabi/lib/libstdc++.a(future.o)

.bss._ZGVZN12_GLOBAL__N_126__future_category_instanceEvE5__fec
                0x00088fa0        0x4
 .bss._ZGVZN12_GLOBAL__N_126__future_category_instanceEvE5__fec
                0x00088fa0        0x4 /home/bseip/MentorGraphics/Sourcery_CodeBench_Lite_for_ARM_EABI/arm-none-eabi/lib/libstdc++.a(future.o)

.bss._ZZN9__gnu_cxx27__verbose_terminate_handlerEvE11terminating
                0x00088fa4        0x1
 .bss._ZZN9__gnu_cxx27__verbose_terminate_handlerEvE11terminating
                0x00088fa4        0x1 /home/bseip/MentorGraphics/Sourcery_CodeBench_Lite_for_ARM_EABI/arm-none-eabi/lib/libstdc++.a(vterminate.o)

.bss._ZN12_GLOBAL__N_1L24system_category_instanceE
                0x00088fa8        0x4
 .bss._ZN12_GLOBAL__N_1L24system_category_instanceE
                0x00088fa8        0x4 /home/bseip/MentorGraphics/Sourcery_CodeBench_Lite_for_ARM_EABI/arm-none-eabi/lib/libstdc++.a(system_error.o)

.bss._ZN12_GLOBAL__N_1L25generic_category_instanceE
                0x00088fac        0x4
 .bss._ZN12_GLOBAL__N_1L25generic_category_instanceE
                0x00088fac        0x4 /home/bseip/MentorGraphics/Sourcery_CodeBench_Lite_for_ARM_EABI/arm-none-eabi/lib/libstdc++.a(system_error.o)

.stack          0x00088fb0   0x100000
                0x00088fb0                _STACK_START_ = .
                0x00188fb0                . = (. + 0x100000)
 *fill*         0x00088fb0   0x100000 
                0x00188fb0                _STACK_END_ = .

.heap           0x00188fb0  0x4000000
                0x00188fb0                _HEAP_START_ = .
                0x04188fb0                . = (. + 0x4000000)
 *fill*         0x00188fb0  0x4000000 
                0x04188fb0                _HEAP_END_ = .
OUTPUT(build/output.elf elf32-littlearm)

.comment        0x00000000       0x30
 .comment       0x00000000       0x30 build/bcm2835.o
                                 0x31 (size before relaxing)
 .comment       0x00000000       0x31 build/main.o
 .comment       0x00000000       0x31 build/other.o
 .comment       0x00000000       0x31 build/uart.o
 .comment       0x00000000       0x31 build/gapi/binaries.o
 .comment       0x00000000       0x31 build/gapi/bitmap.o
 .comment       0x00000000       0x31 build/gapi/common.o
 .comment       0x00000000       0x31 build/gapi/controlbutton.o
 .comment       0x00000000       0x31 build/gapi/flipbook.o
 .comment       0x00000000       0x31 build/gapi/font.o
 .comment       0x00000000       0x31 build/gapi/memory_tracking.o
 .comment       0x00000000       0x31 build/gapi/rectangle.o
 .comment       0x00000000       0x31 build/gapi/screen.o
 .comment       0x00000000       0x31 build/gapi/screenraspi.o
 .comment       0x00000000       0x31 build/gapi/wconsole.o
 .comment       0x00000000       0x31 build/gapi/window.o
 .comment       0x00000000       0x31 build/syscalls.o
 .comment       0x00000000       0x31 build/fonts/6x8.o
 .comment       0x00000000       0x31 build/fonts/ComicSansMS10.o
 .comment       0x00000000       0x31 build/fonts/ComicSansMS10.height.o
 .comment       0x00000000       0x31 build/fonts/ComicSansMS10.width.o
 .comment       0x00000000       0x31 build/fonts/ComicSansMS12.o
 .comment       0x00000000       0x31 build/fonts/ComicSansMS12.height.o
 .comment       0x00000000       0x31 build/fonts/ComicSansMS12.width.o
 .comment       0x00000000       0x31 build/fonts/EGA_8x8.o
 .comment       0x00000000       0x31 build/fonts/font6x8.o
 .comment       0x00000000       0x31 build/fonts/font6x8_width.o
 .comment       0x00000000       0x31 build/fonts/LucidaConsole10.o
 .comment       0x00000000       0x31 build/fonts/LucidaConsole10.width.o
 .comment       0x00000000       0x31 build/fonts/Noritake5x5.o
 .comment       0x00000000       0x31 build/fonts/Noritake5x5.width.o
 .comment       0x00000000       0x31 build/fonts/VGA_16x16.o
 .comment       0x00000000       0x31 build/fatfs/diskio.o
 .comment       0x00000000       0x31 build/fatfs/ff.o
 .comment       0x00000000       0x31 build/mmc/block.o
 .comment       0x00000000       0x31 build/mmc/emmc.o
 .comment       0x00000000       0x31 build/mmc/mbox.o
 .comment       0x00000000       0x31 build/mmc/mmio.o
 .comment       0x00000000       0x31 build/mmc/timer.o

.ARM.attributes
                0x00000000       0x36
 .ARM.attributes
                0x00000000       0x38 build/bcm2835.o
 .ARM.attributes
                0x00000038       0x38 build/main.o
 .ARM.attributes
                0x00000070       0x38 build/other.o
 .ARM.attributes
                0x000000a8       0x38 build/uart.o
 .ARM.attributes
                0x000000e0       0x38 build/gapi/binaries.o
 .ARM.attributes
                0x00000118       0x38 build/gapi/bitmap.o
 .ARM.attributes
                0x00000150       0x38 build/gapi/common.o
 .ARM.attributes
                0x00000188       0x38 build/gapi/controlbutton.o
 .ARM.attributes
                0x000001c0       0x38 build/gapi/flipbook.o
 .ARM.attributes
                0x000001f8       0x38 build/gapi/font.o
 .ARM.attributes
                0x00000230       0x38 build/gapi/memory_tracking.o
 .ARM.attributes
                0x00000268       0x38 build/gapi/rectangle.o
 .ARM.attributes
                0x000002a0       0x38 build/gapi/screen.o
 .ARM.attributes
                0x000002d8       0x38 build/gapi/screenraspi.o
 .ARM.attributes
                0x00000310       0x38 build/gapi/wconsole.o
 .ARM.attributes
                0x00000348       0x38 build/gapi/window.o
 .ARM.attributes
                0x00000380       0x38 build/syscalls.o
 .ARM.attributes
                0x000003b8       0x38 build/fonts/6x8.o
 .ARM.attributes
                0x000003f0       0x38 build/fonts/ComicSansMS10.o
 .ARM.attributes
                0x00000428       0x38 build/fonts/ComicSansMS10.height.o
 .ARM.attributes
                0x00000460       0x38 build/fonts/ComicSansMS10.width.o
 .ARM.attributes
                0x00000498       0x38 build/fonts/ComicSansMS12.o
 .ARM.attributes
                0x000004d0       0x38 build/fonts/ComicSansMS12.height.o
 .ARM.attributes
                0x00000508       0x38 build/fonts/ComicSansMS12.width.o
 .ARM.attributes
                0x00000540       0x38 build/fonts/EGA_8x8.o
 .ARM.attributes
                0x00000578       0x38 build/fonts/font6x8.o
 .ARM.attributes
                0x000005b0       0x38 build/fonts/font6x8_width.o
 .ARM.attributes
                0x000005e8       0x38 build/fonts/LucidaConsole10.o
 .ARM.attributes
                0x00000620       0x38 build/fonts/LucidaConsole10.width.o
 .ARM.attributes
                0x00000658       0x38 build/fonts/Noritake5x5.o
 .ARM.attributes
                0x00000690       0x38 build/fonts/Noritake5x5.width.o
 .ARM.attributes
                0x000006c8       0x38 build/fonts/VGA_16x16.o
 .ARM.attributes
                0x00000700       0x38 build/fatfs/diskio.o
 .ARM.attributes
                0x00000738       0x38 build/fatfs/ff.o
 .ARM.attributes
                0x00000770       0x38 build/mmc/block.o
 .ARM.attributes
                0x000007a8       0x38 build/mmc/emmc.o
 .ARM.attributes
                0x000007e0       0x38 build/mmc/mbox.o
 .ARM.attributes
                0x00000818       0x38 build/mmc/mmio.o
 .ARM.attributes
                0x00000850       0x38 build/mmc/timer.o
 .ARM.attributes
                0x00000888       0x14 build/gpio.o
 .ARM.attributes
                0x0000089c       0x14 build/mailbox.o
 .ARM.attributes
                0x000008b0       0x14 build/screens.o
 .ARM.attributes
                0x000008c4       0x16 build/startup.o
 .ARM.attributes
                0x000008da       0x18 /home/bseip/MentorGraphics/Sourcery_CodeBench_Lite_for_ARM_EABI/lib/gcc/arm-none-eabi/4.8.1/libgcc.a(_udivsi3.o)
 .ARM.attributes
                0x000008f2       0x18 /home/bseip/MentorGraphics/Sourcery_CodeBench_Lite_for_ARM_EABI/lib/gcc/arm-none-eabi/4.8.1/libgcc.a(_divsi3.o)
 .ARM.attributes
                0x0000090a       0x18 /home/bseip/MentorGraphics/Sourcery_CodeBench_Lite_for_ARM_EABI/lib/gcc/arm-none-eabi/4.8.1/libgcc.a(_dvmd_tls.o)
 .ARM.attributes
                0x00000922       0x30 /home/bseip/MentorGraphics/Sourcery_CodeBench_Lite_for_ARM_EABI/lib/gcc/arm-none-eabi/4.8.1/libgcc.a(unwind-arm.o)
 .ARM.attributes
                0x00000952       0x1c /home/bseip/MentorGraphics/Sourcery_CodeBench_Lite_for_ARM_EABI/lib/gcc/arm-none-eabi/4.8.1/libgcc.a(libunwind.o)
 .ARM.attributes
                0x0000096e       0x30 /home/bseip/MentorGraphics/Sourcery_CodeBench_Lite_for_ARM_EABI/lib/gcc/arm-none-eabi/4.8.1/libgcc.a(pr-support.o)
 .ARM.attributes
                0x0000099e       0x30 /home/bseip/MentorGraphics/Sourcery_CodeBench_Lite_for_ARM_EABI/arm-none-eabi/lib/libc.a(lib_a-aeabi_atexit.o)
 .ARM.attributes
                0x000009ce       0x30 /home/bseip/MentorGraphics/Sourcery_CodeBench_Lite_for_ARM_EABI/arm-none-eabi/lib/libc.a(lib_a-assert.o)
 .ARM.attributes
                0x000009fe       0x30 /home/bseip/MentorGraphics/Sourcery_CodeBench_Lite_for_ARM_EABI/arm-none-eabi/lib/libc.a(lib_a-cxa_atexit.o)
 .ARM.attributes
                0x00000a2e       0x30 /home/bseip/MentorGraphics/Sourcery_CodeBench_Lite_for_ARM_EABI/arm-none-eabi/lib/libc.a(lib_a-fiprintf.o)
 .ARM.attributes
                0x00000a5e       0x30 /home/bseip/MentorGraphics/Sourcery_CodeBench_Lite_for_ARM_EABI/arm-none-eabi/lib/libc.a(lib_a-fprintf.o)
 .ARM.attributes
                0x00000a8e       0x30 /home/bseip/MentorGraphics/Sourcery_CodeBench_Lite_for_ARM_EABI/arm-none-eabi/lib/libc.a(lib_a-impure.o)
 .ARM.attributes
                0x00000abe       0x30 /home/bseip/MentorGraphics/Sourcery_CodeBench_Lite_for_ARM_EABI/arm-none-eabi/lib/libc.a(lib_a-malloc.o)
 .ARM.attributes
                0x00000aee       0x30 /home/bseip/MentorGraphics/Sourcery_CodeBench_Lite_for_ARM_EABI/arm-none-eabi/lib/libc.a(lib_a-mallocr.o)
 .ARM.attributes
                0x00000b1e       0x30 /home/bseip/MentorGraphics/Sourcery_CodeBench_Lite_for_ARM_EABI/arm-none-eabi/lib/libc.a(lib_a-memcpy-stub.o)
 .ARM.attributes
                0x00000b4e       0x30 /home/bseip/MentorGraphics/Sourcery_CodeBench_Lite_for_ARM_EABI/arm-none-eabi/lib/libc.a(lib_a-memmove.o)
 .ARM.attributes
                0x00000b7e       0x30 /home/bseip/MentorGraphics/Sourcery_CodeBench_Lite_for_ARM_EABI/arm-none-eabi/lib/libc.a(lib_a-memset.o)
 .ARM.attributes
                0x00000bae       0x30 /home/bseip/MentorGraphics/Sourcery_CodeBench_Lite_for_ARM_EABI/arm-none-eabi/lib/libc.a(lib_a-mlock.o)
 .ARM.attributes
                0x00000bde       0x30 /home/bseip/MentorGraphics/Sourcery_CodeBench_Lite_for_ARM_EABI/arm-none-eabi/lib/libc.a(lib_a-printf.o)
 .ARM.attributes
                0x00000c0e       0x30 /home/bseip/MentorGraphics/Sourcery_CodeBench_Lite_for_ARM_EABI/arm-none-eabi/lib/libc.a(lib_a-reent.o)
 .ARM.attributes
                0x00000c3e       0x30 /home/bseip/MentorGraphics/Sourcery_CodeBench_Lite_for_ARM_EABI/arm-none-eabi/lib/libc.a(lib_a-sbrkr.o)
 .ARM.attributes
                0x00000c6e       0x30 /home/bseip/MentorGraphics/Sourcery_CodeBench_Lite_for_ARM_EABI/arm-none-eabi/lib/libc.a(lib_a-sprintf.o)
 .ARM.attributes
                0x00000c9e       0x30 /home/bseip/MentorGraphics/Sourcery_CodeBench_Lite_for_ARM_EABI/arm-none-eabi/lib/libc.a(lib_a-sscanf.o)
 .ARM.attributes
                0x00000cce       0x30 /home/bseip/MentorGraphics/Sourcery_CodeBench_Lite_for_ARM_EABI/arm-none-eabi/lib/libc.a(lib_a-stdio.o)
 .ARM.attributes
                0x00000cfe       0x30 /home/bseip/MentorGraphics/Sourcery_CodeBench_Lite_for_ARM_EABI/arm-none-eabi/lib/libc.a(lib_a-strlen.o)
 .ARM.attributes
                0x00000d2e       0x30 /home/bseip/MentorGraphics/Sourcery_CodeBench_Lite_for_ARM_EABI/arm-none-eabi/lib/libc.a(lib_a-strncpy.o)
 .ARM.attributes
                0x00000d5e       0x30 /home/bseip/MentorGraphics/Sourcery_CodeBench_Lite_for_ARM_EABI/arm-none-eabi/lib/libc.a(lib_a-svfprintf.o)
 .ARM.attributes
                0x00000d8e       0x30 /home/bseip/MentorGraphics/Sourcery_CodeBench_Lite_for_ARM_EABI/arm-none-eabi/lib/libc.a(lib_a-svfscanf.o)
 .ARM.attributes
                0x00000dbe       0x30 /home/bseip/MentorGraphics/Sourcery_CodeBench_Lite_for_ARM_EABI/arm-none-eabi/lib/libc.a(lib_a-toupper.o)
 .ARM.attributes
                0x00000dee       0x30 /home/bseip/MentorGraphics/Sourcery_CodeBench_Lite_for_ARM_EABI/arm-none-eabi/lib/libc.a(lib_a-vfiprintf.o)
 .ARM.attributes
                0x00000e1e       0x30 /home/bseip/MentorGraphics/Sourcery_CodeBench_Lite_for_ARM_EABI/arm-none-eabi/lib/libc.a(lib_a-vfprintf.o)
 .ARM.attributes
                0x00000e4e       0x30 /home/bseip/MentorGraphics/Sourcery_CodeBench_Lite_for_ARM_EABI/arm-none-eabi/lib/libc.a(lib_a-writer.o)
 .ARM.attributes
                0x00000e7e       0x30 /home/bseip/MentorGraphics/Sourcery_CodeBench_Lite_for_ARM_EABI/arm-none-eabi/lib/libc.a(lib_a-wsetup.o)
 .ARM.attributes
                0x00000eae       0x30 /home/bseip/MentorGraphics/Sourcery_CodeBench_Lite_for_ARM_EABI/arm-none-eabi/lib/libc.a(lib_a-__atexit.o)
 .ARM.attributes
                0x00000ede       0x30 /home/bseip/MentorGraphics/Sourcery_CodeBench_Lite_for_ARM_EABI/arm-none-eabi/lib/libc.a(lib_a-closer.o)
 .ARM.attributes
                0x00000f0e       0x30 /home/bseip/MentorGraphics/Sourcery_CodeBench_Lite_for_ARM_EABI/arm-none-eabi/lib/libc.a(lib_a-ctype_.o)
 .ARM.attributes
                0x00000f3e       0x30 /home/bseip/MentorGraphics/Sourcery_CodeBench_Lite_for_ARM_EABI/arm-none-eabi/lib/libc.a(lib_a-dtoa.o)
 .ARM.attributes
                0x00000f6e       0x30 /home/bseip/MentorGraphics/Sourcery_CodeBench_Lite_for_ARM_EABI/arm-none-eabi/lib/libc.a(lib_a-fflush.o)
 .ARM.attributes
                0x00000f9e       0x30 /home/bseip/MentorGraphics/Sourcery_CodeBench_Lite_for_ARM_EABI/arm-none-eabi/lib/libc.a(lib_a-findfp.o)
 .ARM.attributes
                0x00000fce       0x30 /home/bseip/MentorGraphics/Sourcery_CodeBench_Lite_for_ARM_EABI/arm-none-eabi/lib/libc.a(lib_a-fputwc.o)
 .ARM.attributes
                0x00000ffe       0x30 /home/bseip/MentorGraphics/Sourcery_CodeBench_Lite_for_ARM_EABI/arm-none-eabi/lib/libc.a(lib_a-freer.o)
 .ARM.attributes
                0x0000102e       0x30 /home/bseip/MentorGraphics/Sourcery_CodeBench_Lite_for_ARM_EABI/arm-none-eabi/lib/libc.a(lib_a-fvwrite.o)
 .ARM.attributes
                0x0000105e       0x30 /home/bseip/MentorGraphics/Sourcery_CodeBench_Lite_for_ARM_EABI/arm-none-eabi/lib/libc.a(lib_a-fwalk.o)
 .ARM.attributes
                0x0000108e       0x30 /home/bseip/MentorGraphics/Sourcery_CodeBench_Lite_for_ARM_EABI/arm-none-eabi/lib/libc.a(lib_a-iswspace.o)
 .ARM.attributes
                0x000010be       0x30 /home/bseip/MentorGraphics/Sourcery_CodeBench_Lite_for_ARM_EABI/arm-none-eabi/lib/libc.a(lib_a-locale.o)
 .ARM.attributes
                0x000010ee       0x30 /home/bseip/MentorGraphics/Sourcery_CodeBench_Lite_for_ARM_EABI/arm-none-eabi/lib/libc.a(lib_a-lseekr.o)
 .ARM.attributes
                0x0000111e       0x30 /home/bseip/MentorGraphics/Sourcery_CodeBench_Lite_for_ARM_EABI/arm-none-eabi/lib/libc.a(lib_a-makebuf.o)
 .ARM.attributes
                0x0000114e       0x30 /home/bseip/MentorGraphics/Sourcery_CodeBench_Lite_for_ARM_EABI/arm-none-eabi/lib/libc.a(lib_a-mbrtowc.o)
 .ARM.attributes
                0x0000117e       0x30 /home/bseip/MentorGraphics/Sourcery_CodeBench_Lite_for_ARM_EABI/arm-none-eabi/lib/libc.a(lib_a-mbtowc_r.o)
 .ARM.attributes
                0x000011ae       0x30 /home/bseip/MentorGraphics/Sourcery_CodeBench_Lite_for_ARM_EABI/arm-none-eabi/lib/libc.a(lib_a-memchr-stub.o)
 .ARM.attributes
                0x000011de       0x30 /home/bseip/MentorGraphics/Sourcery_CodeBench_Lite_for_ARM_EABI/arm-none-eabi/lib/libc.a(lib_a-mprec.o)
 .ARM.attributes
                0x0000120e       0x30 /home/bseip/MentorGraphics/Sourcery_CodeBench_Lite_for_ARM_EABI/arm-none-eabi/lib/libc.a(lib_a-readr.o)
 .ARM.attributes
                0x0000123e       0x30 /home/bseip/MentorGraphics/Sourcery_CodeBench_Lite_for_ARM_EABI/arm-none-eabi/lib/libc.a(lib_a-reallocr.o)
 .ARM.attributes
                0x0000126e       0x30 /home/bseip/MentorGraphics/Sourcery_CodeBench_Lite_for_ARM_EABI/arm-none-eabi/lib/libc.a(lib_a-s_fpclassify.o)
 .ARM.attributes
                0x0000129e       0x30 /home/bseip/MentorGraphics/Sourcery_CodeBench_Lite_for_ARM_EABI/arm-none-eabi/lib/libc.a(lib_a-sccl.o)
 .ARM.attributes
                0x000012ce       0x30 /home/bseip/MentorGraphics/Sourcery_CodeBench_Lite_for_ARM_EABI/arm-none-eabi/lib/libc.a(lib_a-sf_nan.o)
 .ARM.attributes
                0x000012fe       0x16 /home/bseip/MentorGraphics/Sourcery_CodeBench_Lite_for_ARM_EABI/arm-none-eabi/lib/libc.a(lib_a-strcmp.o)
 .ARM.attributes
                0x00001314       0x30 /home/bseip/MentorGraphics/Sourcery_CodeBench_Lite_for_ARM_EABI/arm-none-eabi/lib/libc.a(lib_a-strtod.o)
 .ARM.attributes
                0x00001344       0x30 /home/bseip/MentorGraphics/Sourcery_CodeBench_Lite_for_ARM_EABI/arm-none-eabi/lib/libc.a(lib_a-strtol.o)
 .ARM.attributes
                0x00001374       0x30 /home/bseip/MentorGraphics/Sourcery_CodeBench_Lite_for_ARM_EABI/arm-none-eabi/lib/libc.a(lib_a-strtoll_r.o)
 .ARM.attributes
                0x000013a4       0x30 /home/bseip/MentorGraphics/Sourcery_CodeBench_Lite_for_ARM_EABI/arm-none-eabi/lib/libc.a(lib_a-strtoul.o)
 .ARM.attributes
                0x000013d4       0x30 /home/bseip/MentorGraphics/Sourcery_CodeBench_Lite_for_ARM_EABI/arm-none-eabi/lib/libc.a(lib_a-strtoull_r.o)
 .ARM.attributes
                0x00001404       0x30 /home/bseip/MentorGraphics/Sourcery_CodeBench_Lite_for_ARM_EABI/arm-none-eabi/lib/libc.a(lib_a-svfiprintf.o)
 .ARM.attributes
                0x00001434       0x30 /home/bseip/MentorGraphics/Sourcery_CodeBench_Lite_for_ARM_EABI/arm-none-eabi/lib/libc.a(lib_a-svfiscanf.o)
 .ARM.attributes
                0x00001464       0x30 /home/bseip/MentorGraphics/Sourcery_CodeBench_Lite_for_ARM_EABI/arm-none-eabi/lib/libc.a(lib_a-ungetc.o)
 .ARM.attributes
                0x00001494       0x30 /home/bseip/MentorGraphics/Sourcery_CodeBench_Lite_for_ARM_EABI/arm-none-eabi/lib/libc.a(lib_a-wbuf.o)
 .ARM.attributes
                0x000014c4       0x30 /home/bseip/MentorGraphics/Sourcery_CodeBench_Lite_for_ARM_EABI/arm-none-eabi/lib/libc.a(lib_a-wcrtomb.o)
 .ARM.attributes
                0x000014f4       0x30 /home/bseip/MentorGraphics/Sourcery_CodeBench_Lite_for_ARM_EABI/arm-none-eabi/lib/libc.a(lib_a-wctomb_r.o)
 .ARM.attributes
                0x00001524       0x30 /home/bseip/MentorGraphics/Sourcery_CodeBench_Lite_for_ARM_EABI/arm-none-eabi/lib/libc.a(lib_a-callocr.o)
 .ARM.attributes
                0x00001554       0x30 /home/bseip/MentorGraphics/Sourcery_CodeBench_Lite_for_ARM_EABI/arm-none-eabi/lib/libc.a(lib_a-fclose.o)
 .ARM.attributes
                0x00001584       0x30 /home/bseip/MentorGraphics/Sourcery_CodeBench_Lite_for_ARM_EABI/arm-none-eabi/lib/libc.a(lib_a-fstatr.o)
 .ARM.attributes
                0x000015b4       0x30 /home/bseip/MentorGraphics/Sourcery_CodeBench_Lite_for_ARM_EABI/arm-none-eabi/lib/libc.a(lib_a-gdtoa-gethex.o)
 .ARM.attributes
                0x000015e4       0x30 /home/bseip/MentorGraphics/Sourcery_CodeBench_Lite_for_ARM_EABI/arm-none-eabi/lib/libc.a(lib_a-gdtoa-hexnan.o)
 .ARM.attributes
                0x00001614       0x30 /home/bseip/MentorGraphics/Sourcery_CodeBench_Lite_for_ARM_EABI/arm-none-eabi/lib/libc.a(lib_a-isattyr.o)
 .ARM.attributes
                0x00001644       0x30 /home/bseip/MentorGraphics/Sourcery_CodeBench_Lite_for_ARM_EABI/arm-none-eabi/lib/libc.a(lib_a-strncmp.o)
 .ARM.attributes
                0x00001674       0x30 /home/bseip/MentorGraphics/Sourcery_CodeBench_Lite_for_ARM_EABI/arm-none-eabi/lib/libstdc++.a(eh_catch.o)
 .ARM.attributes
                0x000016a4       0x30 /home/bseip/MentorGraphics/Sourcery_CodeBench_Lite_for_ARM_EABI/arm-none-eabi/lib/libstdc++.a(si_class_type_info.o)
 .ARM.attributes
                0x000016d4       0x30 /home/bseip/MentorGraphics/Sourcery_CodeBench_Lite_for_ARM_EABI/arm-none-eabi/lib/libstdc++.a(eh_terminate.o)
 .ARM.attributes
                0x00001704       0x30 /home/bseip/MentorGraphics/Sourcery_CodeBench_Lite_for_ARM_EABI/arm-none-eabi/lib/libstdc++.a(tinfo.o)
 .ARM.attributes
                0x00001734       0x30 /home/bseip/MentorGraphics/Sourcery_CodeBench_Lite_for_ARM_EABI/arm-none-eabi/lib/libstdc++.a(eh_alloc.o)
 .ARM.attributes
                0x00001764       0x30 /home/bseip/MentorGraphics/Sourcery_CodeBench_Lite_for_ARM_EABI/arm-none-eabi/lib/libstdc++.a(eh_personality.o)
 .ARM.attributes
                0x00001794       0x30 /home/bseip/MentorGraphics/Sourcery_CodeBench_Lite_for_ARM_EABI/arm-none-eabi/lib/libstdc++.a(eh_arm.o)
 .ARM.attributes
                0x000017c4       0x30 /home/bseip/MentorGraphics/Sourcery_CodeBench_Lite_for_ARM_EABI/arm-none-eabi/lib/libstdc++.a(eh_exception.o)
 .ARM.attributes
                0x000017f4       0x30 /home/bseip/MentorGraphics/Sourcery_CodeBench_Lite_for_ARM_EABI/arm-none-eabi/lib/libstdc++.a(eh_globals.o)
 .ARM.attributes
                0x00001824       0x30 /home/bseip/MentorGraphics/Sourcery_CodeBench_Lite_for_ARM_EABI/arm-none-eabi/lib/libstdc++.a(eh_call.o)
 .ARM.attributes
                0x00001854       0x30 /home/bseip/MentorGraphics/Sourcery_CodeBench_Lite_for_ARM_EABI/arm-none-eabi/lib/libstdc++.a(eh_throw.o)
 .ARM.attributes
                0x00001884       0x30 /home/bseip/MentorGraphics/Sourcery_CodeBench_Lite_for_ARM_EABI/arm-none-eabi/lib/libstdc++.a(bad_alloc.o)
 .ARM.attributes
                0x000018b4       0x30 /home/bseip/MentorGraphics/Sourcery_CodeBench_Lite_for_ARM_EABI/arm-none-eabi/lib/libstdc++.a(eh_unex_handler.o)
 .ARM.attributes
                0x000018e4       0x30 /home/bseip/MentorGraphics/Sourcery_CodeBench_Lite_for_ARM_EABI/arm-none-eabi/lib/libstdc++.a(class_type_info.o)
 .ARM.attributes
                0x00001914       0x30 /home/bseip/MentorGraphics/Sourcery_CodeBench_Lite_for_ARM_EABI/arm-none-eabi/lib/libstdc++.a(eh_term_handler.o)
 .ARM.attributes
                0x00001944       0x30 /home/bseip/MentorGraphics/Sourcery_CodeBench_Lite_for_ARM_EABI/arm-none-eabi/lib/libstdc++.a(pure.o)
 .ARM.attributes
                0x00001974       0x30 /home/bseip/MentorGraphics/Sourcery_CodeBench_Lite_for_ARM_EABI/arm-none-eabi/lib/libstdc++.a(tree.o)
 .ARM.attributes
                0x000019a4       0x30 /home/bseip/MentorGraphics/Sourcery_CodeBench_Lite_for_ARM_EABI/arm-none-eabi/lib/libstdc++.a(functexcept.o)
 .ARM.attributes
                0x000019d4       0x30 /home/bseip/MentorGraphics/Sourcery_CodeBench_Lite_for_ARM_EABI/arm-none-eabi/lib/libstdc++.a(string-inst.o)
 .ARM.attributes
                0x00001a04       0x30 /home/bseip/MentorGraphics/Sourcery_CodeBench_Lite_for_ARM_EABI/arm-none-eabi/lib/libstdc++.a(future.o)
 .ARM.attributes
                0x00001a34       0x30 /home/bseip/MentorGraphics/Sourcery_CodeBench_Lite_for_ARM_EABI/arm-none-eabi/lib/libstdc++.a(functional.o)
 .ARM.attributes
                0x00001a64       0x30 /home/bseip/MentorGraphics/Sourcery_CodeBench_Lite_for_ARM_EABI/arm-none-eabi/lib/libstdc++.a(regex.o)
 .ARM.attributes
                0x00001a94       0x30 /home/bseip/MentorGraphics/Sourcery_CodeBench_Lite_for_ARM_EABI/arm-none-eabi/lib/libstdc++.a(bad_cast.o)
 .ARM.attributes
                0x00001ac4       0x30 /home/bseip/MentorGraphics/Sourcery_CodeBench_Lite_for_ARM_EABI/arm-none-eabi/lib/libstdc++.a(bad_typeid.o)
 .ARM.attributes
                0x00001af4       0x30 /home/bseip/MentorGraphics/Sourcery_CodeBench_Lite_for_ARM_EABI/arm-none-eabi/lib/libstdc++.a(guard.o)
 .ARM.attributes
                0x00001b24       0x30 /home/bseip/MentorGraphics/Sourcery_CodeBench_Lite_for_ARM_EABI/arm-none-eabi/lib/libstdc++.a(vterminate.o)
 .ARM.attributes
                0x00001b54       0x30 /home/bseip/MentorGraphics/Sourcery_CodeBench_Lite_for_ARM_EABI/arm-none-eabi/lib/libstdc++.a(cp-demangle.o)
 .ARM.attributes
                0x00001b84       0x30 /home/bseip/MentorGraphics/Sourcery_CodeBench_Lite_for_ARM_EABI/arm-none-eabi/lib/libstdc++.a(eh_type.o)
 .ARM.attributes
                0x00001bb4       0x30 /home/bseip/MentorGraphics/Sourcery_CodeBench_Lite_for_ARM_EABI/arm-none-eabi/lib/libstdc++.a(ios_failure.o)
 .ARM.attributes
                0x00001be4       0x30 /home/bseip/MentorGraphics/Sourcery_CodeBench_Lite_for_ARM_EABI/arm-none-eabi/lib/libstdc++.a(stdexcept.o)
 .ARM.attributes
                0x00001c14       0x30 /home/bseip/MentorGraphics/Sourcery_CodeBench_Lite_for_ARM_EABI/arm-none-eabi/lib/libstdc++.a(system_error.o)
 .ARM.attributes
                0x00001c44       0x30 /home/bseip/MentorGraphics/Sourcery_CodeBench_Lite_for_ARM_EABI/arm-none-eabi/lib/libstdc++.a(guard_error.o)
 .ARM.attributes
                0x00001c74       0x16 /home/bseip/MentorGraphics/Sourcery_CodeBench_Lite_for_ARM_EABI/lib/gcc/arm-none-eabi/4.8.1/crti.o
 .ARM.attributes
                0x00001c8a       0x30 /home/bseip/MentorGraphics/Sourcery_CodeBench_Lite_for_ARM_EABI/lib/gcc/arm-none-eabi/4.8.1/crtbegin.o
 .ARM.attributes
                0x00001cba       0x30 /home/bseip/MentorGraphics/Sourcery_CodeBench_Lite_for_ARM_EABI/lib/gcc/arm-none-eabi/4.8.1/crtend.o
 .ARM.attributes
                0x00001cea       0x18 /home/bseip/MentorGraphics/Sourcery_CodeBench_Lite_for_ARM_EABI/lib/gcc/arm-none-eabi/4.8.1/libgcc.a(_arm_addsubdf3.o)
 .ARM.attributes
                0x00001d02       0x18 /home/bseip/MentorGraphics/Sourcery_CodeBench_Lite_for_ARM_EABI/lib/gcc/arm-none-eabi/4.8.1/libgcc.a(_arm_muldivdf3.o)
 .ARM.attributes
                0x00001d1a       0x18 /home/bseip/MentorGraphics/Sourcery_CodeBench_Lite_for_ARM_EABI/lib/gcc/arm-none-eabi/4.8.1/libgcc.a(_arm_cmpdf2.o)
 .ARM.attributes
                0x00001d32       0x18 /home/bseip/MentorGraphics/Sourcery_CodeBench_Lite_for_ARM_EABI/lib/gcc/arm-none-eabi/4.8.1/libgcc.a(_arm_fixdfsi.o)
 .ARM.attributes
                0x00001d4a       0x18 /home/bseip/MentorGraphics/Sourcery_CodeBench_Lite_for_ARM_EABI/lib/gcc/arm-none-eabi/4.8.1/libgcc.a(_arm_fixunsdfsi.o)
 .ARM.attributes
                0x00001d62       0x18 /home/bseip/MentorGraphics/Sourcery_CodeBench_Lite_for_ARM_EABI/lib/gcc/arm-none-eabi/4.8.1/libgcc.a(_arm_truncdfsf2.o)
 .ARM.attributes
                0x00001d7a       0x18 /home/bseip/MentorGraphics/Sourcery_CodeBench_Lite_for_ARM_EABI/lib/gcc/arm-none-eabi/4.8.1/libgcc.a(_arm_cmpsf2.o)
 .ARM.attributes
                0x00001d92       0x18 /home/bseip/MentorGraphics/Sourcery_CodeBench_Lite_for_ARM_EABI/lib/gcc/arm-none-eabi/4.8.1/libgcc.a(_aeabi_uldivmod.o)
 .ARM.attributes
                0x00001daa       0x30 /home/bseip/MentorGraphics/Sourcery_CodeBench_Lite_for_ARM_EABI/lib/gcc/arm-none-eabi/4.8.1/libgcc.a(bpabi.o)
 .ARM.attributes
                0x00001dda       0x30 /home/bseip/MentorGraphics/Sourcery_CodeBench_Lite_for_ARM_EABI/lib/gcc/arm-none-eabi/4.8.1/libgcc.a(_divdi3.o)
 .ARM.attributes
                0x00001e0a       0x30 /home/bseip/MentorGraphics/Sourcery_CodeBench_Lite_for_ARM_EABI/lib/gcc/arm-none-eabi/4.8.1/libgcc.a(_udivdi3.o)
 .ARM.attributes
                0x00001e3a       0x18 /home/bseip/MentorGraphics/Sourcery_CodeBench_Lite_for_ARM_EABI/lib/gcc/arm-none-eabi/4.8.1/libgcc.a(_clzsi2.o)
 .ARM.attributes
                0x00001e52       0x30 /home/bseip/MentorGraphics/Sourcery_CodeBench_Lite_for_ARM_EABI/arm-none-eabi/lib/libc.a(lib_a-fputc.o)
 .ARM.attributes
                0x00001e82       0x30 /home/bseip/MentorGraphics/Sourcery_CodeBench_Lite_for_ARM_EABI/arm-none-eabi/lib/libc.a(lib_a-fputs.o)
 .ARM.attributes
                0x00001eb2       0x30 /home/bseip/MentorGraphics/Sourcery_CodeBench_Lite_for_ARM_EABI/arm-none-eabi/lib/libc.a(lib_a-fwrite.o)
 .ARM.attributes
                0x00001ee2       0x30 /home/bseip/MentorGraphics/Sourcery_CodeBench_Lite_for_ARM_EABI/arm-none-eabi/lib/libc.a(lib_a-memcmp.o)
 .ARM.attributes
                0x00001f12       0x30 /home/bseip/MentorGraphics/Sourcery_CodeBench_Lite_for_ARM_EABI/arm-none-eabi/lib/libc.a(lib_a-putc.o)
 .ARM.attributes
                0x00001f42       0x30 /home/bseip/MentorGraphics/Sourcery_CodeBench_Lite_for_ARM_EABI/arm-none-eabi/lib/libc.a(lib_a-realloc.o)
 .ARM.attributes
                0x00001f72       0x30 /home/bseip/MentorGraphics/Sourcery_CodeBench_Lite_for_ARM_EABI/arm-none-eabi/lib/libc.a(lib_a-strerror.o)
 .ARM.attributes
                0x00001fa2       0x30 /home/bseip/MentorGraphics/Sourcery_CodeBench_Lite_for_ARM_EABI/arm-none-eabi/lib/libc.a(lib_a-syswrite.o)
 .ARM.attributes
                0x00001fd2       0x30 /home/bseip/MentorGraphics/Sourcery_CodeBench_Lite_for_ARM_EABI/arm-none-eabi/lib/libc.a(lib_a-u_strerr.o)

.debug_frame    0x00000000     0x4240
 .debug_frame   0x00000000       0x20 /home/bseip/MentorGraphics/Sourcery_CodeBench_Lite_for_ARM_EABI/lib/gcc/arm-none-eabi/4.8.1/libgcc.a(_udivsi3.o)
 .debug_frame   0x00000020       0x20 /home/bseip/MentorGraphics/Sourcery_CodeBench_Lite_for_ARM_EABI/lib/gcc/arm-none-eabi/4.8.1/libgcc.a(_divsi3.o)
 .debug_frame   0x00000040      0x288 /home/bseip/MentorGraphics/Sourcery_CodeBench_Lite_for_ARM_EABI/lib/gcc/arm-none-eabi/4.8.1/libgcc.a(unwind-arm.o)
 .debug_frame   0x000002c8       0xe4 /home/bseip/MentorGraphics/Sourcery_CodeBench_Lite_for_ARM_EABI/lib/gcc/arm-none-eabi/4.8.1/libgcc.a(pr-support.o)
 .debug_frame   0x000003ac       0x28 /home/bseip/MentorGraphics/Sourcery_CodeBench_Lite_for_ARM_EABI/arm-none-eabi/lib/libc.a(lib_a-aeabi_atexit.o)
 .debug_frame   0x000003d4       0x40 /home/bseip/MentorGraphics/Sourcery_CodeBench_Lite_for_ARM_EABI/arm-none-eabi/lib/libc.a(lib_a-assert.o)
 .debug_frame   0x00000414       0x28 /home/bseip/MentorGraphics/Sourcery_CodeBench_Lite_for_ARM_EABI/arm-none-eabi/lib/libc.a(lib_a-cxa_atexit.o)
 .debug_frame   0x0000043c       0x54 /home/bseip/MentorGraphics/Sourcery_CodeBench_Lite_for_ARM_EABI/arm-none-eabi/lib/libc.a(lib_a-fiprintf.o)
 .debug_frame   0x00000490       0x54 /home/bseip/MentorGraphics/Sourcery_CodeBench_Lite_for_ARM_EABI/arm-none-eabi/lib/libc.a(lib_a-fprintf.o)
 .debug_frame   0x000004e4       0x40 /home/bseip/MentorGraphics/Sourcery_CodeBench_Lite_for_ARM_EABI/arm-none-eabi/lib/libc.a(lib_a-malloc.o)
 .debug_frame   0x00000524       0x38 /home/bseip/MentorGraphics/Sourcery_CodeBench_Lite_for_ARM_EABI/arm-none-eabi/lib/libc.a(lib_a-mallocr.o)
 .debug_frame   0x0000055c       0x2c /home/bseip/MentorGraphics/Sourcery_CodeBench_Lite_for_ARM_EABI/arm-none-eabi/lib/libc.a(lib_a-memcpy-stub.o)
 .debug_frame   0x00000588       0x2c /home/bseip/MentorGraphics/Sourcery_CodeBench_Lite_for_ARM_EABI/arm-none-eabi/lib/libc.a(lib_a-memmove.o)
 .debug_frame   0x000005b4       0x2c /home/bseip/MentorGraphics/Sourcery_CodeBench_Lite_for_ARM_EABI/arm-none-eabi/lib/libc.a(lib_a-memset.o)
 .debug_frame   0x000005e0       0x30 /home/bseip/MentorGraphics/Sourcery_CodeBench_Lite_for_ARM_EABI/arm-none-eabi/lib/libc.a(lib_a-mlock.o)
 .debug_frame   0x00000610       0x58 /home/bseip/MentorGraphics/Sourcery_CodeBench_Lite_for_ARM_EABI/arm-none-eabi/lib/libc.a(lib_a-printf.o)
 .debug_frame   0x00000668       0x48 /home/bseip/MentorGraphics/Sourcery_CodeBench_Lite_for_ARM_EABI/arm-none-eabi/lib/libc.a(lib_a-reent.o)
 .debug_frame   0x000006b0       0x2c /home/bseip/MentorGraphics/Sourcery_CodeBench_Lite_for_ARM_EABI/arm-none-eabi/lib/libc.a(lib_a-sbrkr.o)
 .debug_frame   0x000006dc       0x60 /home/bseip/MentorGraphics/Sourcery_CodeBench_Lite_for_ARM_EABI/arm-none-eabi/lib/libc.a(lib_a-sprintf.o)
 .debug_frame   0x0000073c       0x60 /home/bseip/MentorGraphics/Sourcery_CodeBench_Lite_for_ARM_EABI/arm-none-eabi/lib/libc.a(lib_a-sscanf.o)
 .debug_frame   0x0000079c       0x88 /home/bseip/MentorGraphics/Sourcery_CodeBench_Lite_for_ARM_EABI/arm-none-eabi/lib/libc.a(lib_a-stdio.o)
 .debug_frame   0x00000824       0x20 /home/bseip/MentorGraphics/Sourcery_CodeBench_Lite_for_ARM_EABI/arm-none-eabi/lib/libc.a(lib_a-strlen.o)
 .debug_frame   0x00000844       0x2c /home/bseip/MentorGraphics/Sourcery_CodeBench_Lite_for_ARM_EABI/arm-none-eabi/lib/libc.a(lib_a-strncpy.o)
 .debug_frame   0x00000870       0x3c /home/bseip/MentorGraphics/Sourcery_CodeBench_Lite_for_ARM_EABI/arm-none-eabi/lib/libc.a(lib_a-svfprintf.o)
 .debug_frame   0x000008ac       0x3c /home/bseip/MentorGraphics/Sourcery_CodeBench_Lite_for_ARM_EABI/arm-none-eabi/lib/libc.a(lib_a-svfscanf.o)
 .debug_frame   0x000008e8       0x20 /home/bseip/MentorGraphics/Sourcery_CodeBench_Lite_for_ARM_EABI/arm-none-eabi/lib/libc.a(lib_a-toupper.o)
 .debug_frame   0x00000908       0xb8 /home/bseip/MentorGraphics/Sourcery_CodeBench_Lite_for_ARM_EABI/arm-none-eabi/lib/libc.a(lib_a-vfiprintf.o)
 .debug_frame   0x000009c0       0x84 /home/bseip/MentorGraphics/Sourcery_CodeBench_Lite_for_ARM_EABI/arm-none-eabi/lib/libc.a(lib_a-vfprintf.o)
 .debug_frame   0x00000a44       0x2c /home/bseip/MentorGraphics/Sourcery_CodeBench_Lite_for_ARM_EABI/arm-none-eabi/lib/libc.a(lib_a-writer.o)
 .debug_frame   0x00000a70       0x2c /home/bseip/MentorGraphics/Sourcery_CodeBench_Lite_for_ARM_EABI/arm-none-eabi/lib/libc.a(lib_a-wsetup.o)
 .debug_frame   0x00000a9c       0x30 /home/bseip/MentorGraphics/Sourcery_CodeBench_Lite_for_ARM_EABI/arm-none-eabi/lib/libc.a(lib_a-__atexit.o)
 .debug_frame   0x00000acc       0x2c /home/bseip/MentorGraphics/Sourcery_CodeBench_Lite_for_ARM_EABI/arm-none-eabi/lib/libc.a(lib_a-closer.o)
 .debug_frame   0x00000af8       0x64 /home/bseip/MentorGraphics/Sourcery_CodeBench_Lite_for_ARM_EABI/arm-none-eabi/lib/libc.a(lib_a-dtoa.o)
 .debug_frame   0x00000b5c       0x64 /home/bseip/MentorGraphics/Sourcery_CodeBench_Lite_for_ARM_EABI/arm-none-eabi/lib/libc.a(lib_a-fflush.o)
 .debug_frame   0x00000bc0      0x130 /home/bseip/MentorGraphics/Sourcery_CodeBench_Lite_for_ARM_EABI/arm-none-eabi/lib/libc.a(lib_a-findfp.o)
 .debug_frame   0x00000cf0       0x50 /home/bseip/MentorGraphics/Sourcery_CodeBench_Lite_for_ARM_EABI/arm-none-eabi/lib/libc.a(lib_a-fputwc.o)
 .debug_frame   0x00000d40       0x50 /home/bseip/MentorGraphics/Sourcery_CodeBench_Lite_for_ARM_EABI/arm-none-eabi/lib/libc.a(lib_a-freer.o)
 .debug_frame   0x00000d90       0x38 /home/bseip/MentorGraphics/Sourcery_CodeBench_Lite_for_ARM_EABI/arm-none-eabi/lib/libc.a(lib_a-fvwrite.o)
 .debug_frame   0x00000dc8       0x54 /home/bseip/MentorGraphics/Sourcery_CodeBench_Lite_for_ARM_EABI/arm-none-eabi/lib/libc.a(lib_a-fwalk.o)
 .debug_frame   0x00000e1c       0x20 /home/bseip/MentorGraphics/Sourcery_CodeBench_Lite_for_ARM_EABI/arm-none-eabi/lib/libc.a(lib_a-iswspace.o)
 .debug_frame   0x00000e3c       0x98 /home/bseip/MentorGraphics/Sourcery_CodeBench_Lite_for_ARM_EABI/arm-none-eabi/lib/libc.a(lib_a-locale.o)
 .debug_frame   0x00000ed4       0x2c /home/bseip/MentorGraphics/Sourcery_CodeBench_Lite_for_ARM_EABI/arm-none-eabi/lib/libc.a(lib_a-lseekr.o)
 .debug_frame   0x00000f00       0x30 /home/bseip/MentorGraphics/Sourcery_CodeBench_Lite_for_ARM_EABI/arm-none-eabi/lib/libc.a(lib_a-makebuf.o)
 .debug_frame   0x00000f30       0x58 /home/bseip/MentorGraphics/Sourcery_CodeBench_Lite_for_ARM_EABI/arm-none-eabi/lib/libc.a(lib_a-mbrtowc.o)
 .debug_frame   0x00000f88       0x48 /home/bseip/MentorGraphics/Sourcery_CodeBench_Lite_for_ARM_EABI/arm-none-eabi/lib/libc.a(lib_a-mbtowc_r.o)
 .debug_frame   0x00000fd0       0x2c /home/bseip/MentorGraphics/Sourcery_CodeBench_Lite_for_ARM_EABI/arm-none-eabi/lib/libc.a(lib_a-memchr-stub.o)
 .debug_frame   0x00000ffc      0x20c /home/bseip/MentorGraphics/Sourcery_CodeBench_Lite_for_ARM_EABI/arm-none-eabi/lib/libc.a(lib_a-mprec.o)
 .debug_frame   0x00001208       0x2c /home/bseip/MentorGraphics/Sourcery_CodeBench_Lite_for_ARM_EABI/arm-none-eabi/lib/libc.a(lib_a-readr.o)
 .debug_frame   0x00001234       0x38 /home/bseip/MentorGraphics/Sourcery_CodeBench_Lite_for_ARM_EABI/arm-none-eabi/lib/libc.a(lib_a-reallocr.o)
 .debug_frame   0x0000126c       0x20 /home/bseip/MentorGraphics/Sourcery_CodeBench_Lite_for_ARM_EABI/arm-none-eabi/lib/libc.a(lib_a-s_fpclassify.o)
 .debug_frame   0x0000128c       0x2c /home/bseip/MentorGraphics/Sourcery_CodeBench_Lite_for_ARM_EABI/arm-none-eabi/lib/libc.a(lib_a-sccl.o)
 .debug_frame   0x000012b8       0x20 /home/bseip/MentorGraphics/Sourcery_CodeBench_Lite_for_ARM_EABI/arm-none-eabi/lib/libc.a(lib_a-sf_nan.o)
 .debug_frame   0x000012d8       0x8c /home/bseip/MentorGraphics/Sourcery_CodeBench_Lite_for_ARM_EABI/arm-none-eabi/lib/libc.a(lib_a-strtod.o)
 .debug_frame   0x00001364       0x50 /home/bseip/MentorGraphics/Sourcery_CodeBench_Lite_for_ARM_EABI/arm-none-eabi/lib/libc.a(lib_a-strtol.o)
 .debug_frame   0x000013b4       0x38 /home/bseip/MentorGraphics/Sourcery_CodeBench_Lite_for_ARM_EABI/arm-none-eabi/lib/libc.a(lib_a-strtoll_r.o)
 .debug_frame   0x000013ec       0x50 /home/bseip/MentorGraphics/Sourcery_CodeBench_Lite_for_ARM_EABI/arm-none-eabi/lib/libc.a(lib_a-strtoul.o)
 .debug_frame   0x0000143c       0x38 /home/bseip/MentorGraphics/Sourcery_CodeBench_Lite_for_ARM_EABI/arm-none-eabi/lib/libc.a(lib_a-strtoull_r.o)
 .debug_frame   0x00001474       0x64 /home/bseip/MentorGraphics/Sourcery_CodeBench_Lite_for_ARM_EABI/arm-none-eabi/lib/libc.a(lib_a-svfiprintf.o)
 .debug_frame   0x000014d8       0x98 /home/bseip/MentorGraphics/Sourcery_CodeBench_Lite_for_ARM_EABI/arm-none-eabi/lib/libc.a(lib_a-svfiscanf.o)
 .debug_frame   0x00001570       0x5c /home/bseip/MentorGraphics/Sourcery_CodeBench_Lite_for_ARM_EABI/arm-none-eabi/lib/libc.a(lib_a-ungetc.o)
 .debug_frame   0x000015cc       0x3c /home/bseip/MentorGraphics/Sourcery_CodeBench_Lite_for_ARM_EABI/arm-none-eabi/lib/libc.a(lib_a-wbuf.o)
 .debug_frame   0x00001608       0x58 /home/bseip/MentorGraphics/Sourcery_CodeBench_Lite_for_ARM_EABI/arm-none-eabi/lib/libc.a(lib_a-wcrtomb.o)
 .debug_frame   0x00001660       0x44 /home/bseip/MentorGraphics/Sourcery_CodeBench_Lite_for_ARM_EABI/arm-none-eabi/lib/libc.a(lib_a-wctomb_r.o)
 .debug_frame   0x000016a4       0x28 /home/bseip/MentorGraphics/Sourcery_CodeBench_Lite_for_ARM_EABI/arm-none-eabi/lib/libc.a(lib_a-callocr.o)
 .debug_frame   0x000016cc       0x3c /home/bseip/MentorGraphics/Sourcery_CodeBench_Lite_for_ARM_EABI/arm-none-eabi/lib/libc.a(lib_a-fclose.o)
 .debug_frame   0x00001708       0x2c /home/bseip/MentorGraphics/Sourcery_CodeBench_Lite_for_ARM_EABI/arm-none-eabi/lib/libc.a(lib_a-fstatr.o)
 .debug_frame   0x00001734       0x58 /home/bseip/MentorGraphics/Sourcery_CodeBench_Lite_for_ARM_EABI/arm-none-eabi/lib/libc.a(lib_a-gdtoa-gethex.o)
 .debug_frame   0x0000178c       0x38 /home/bseip/MentorGraphics/Sourcery_CodeBench_Lite_for_ARM_EABI/arm-none-eabi/lib/libc.a(lib_a-gdtoa-hexnan.o)
 .debug_frame   0x000017c4       0x2c /home/bseip/MentorGraphics/Sourcery_CodeBench_Lite_for_ARM_EABI/arm-none-eabi/lib/libc.a(lib_a-isattyr.o)
 .debug_frame   0x000017f0       0x28 /home/bseip/MentorGraphics/Sourcery_CodeBench_Lite_for_ARM_EABI/arm-none-eabi/lib/libc.a(lib_a-strncmp.o)
 .debug_frame   0x00001818       0x68 /home/bseip/MentorGraphics/Sourcery_CodeBench_Lite_for_ARM_EABI/arm-none-eabi/lib/libstdc++.a(eh_catch.o)
 .debug_frame   0x00001880       0xa8 /home/bseip/MentorGraphics/Sourcery_CodeBench_Lite_for_ARM_EABI/arm-none-eabi/lib/libstdc++.a(si_class_type_info.o)
 .debug_frame   0x00001928       0x90 /home/bseip/MentorGraphics/Sourcery_CodeBench_Lite_for_ARM_EABI/arm-none-eabi/lib/libstdc++.a(eh_terminate.o)
 .debug_frame   0x000019b8       0x90 /home/bseip/MentorGraphics/Sourcery_CodeBench_Lite_for_ARM_EABI/arm-none-eabi/lib/libstdc++.a(tinfo.o)
 .debug_frame   0x00001a48       0x74 /home/bseip/MentorGraphics/Sourcery_CodeBench_Lite_for_ARM_EABI/arm-none-eabi/lib/libstdc++.a(eh_alloc.o)
 .debug_frame   0x00001abc       0xa8 /home/bseip/MentorGraphics/Sourcery_CodeBench_Lite_for_ARM_EABI/arm-none-eabi/lib/libstdc++.a(eh_personality.o)
 .debug_frame   0x00001b64       0x60 /home/bseip/MentorGraphics/Sourcery_CodeBench_Lite_for_ARM_EABI/arm-none-eabi/lib/libstdc++.a(eh_arm.o)
 .debug_frame   0x00001bc4       0xd0 /home/bseip/MentorGraphics/Sourcery_CodeBench_Lite_for_ARM_EABI/arm-none-eabi/lib/libstdc++.a(eh_exception.o)
 .debug_frame   0x00001c94       0x30 /home/bseip/MentorGraphics/Sourcery_CodeBench_Lite_for_ARM_EABI/arm-none-eabi/lib/libstdc++.a(eh_globals.o)
 .debug_frame   0x00001cc4       0x60 /home/bseip/MentorGraphics/Sourcery_CodeBench_Lite_for_ARM_EABI/arm-none-eabi/lib/libstdc++.a(eh_call.o)
 .debug_frame   0x00001d24       0x68 /home/bseip/MentorGraphics/Sourcery_CodeBench_Lite_for_ARM_EABI/arm-none-eabi/lib/libstdc++.a(eh_throw.o)
 .debug_frame   0x00001d8c       0x50 /home/bseip/MentorGraphics/Sourcery_CodeBench_Lite_for_ARM_EABI/arm-none-eabi/lib/libstdc++.a(bad_alloc.o)
 .debug_frame   0x00001ddc       0xc8 /home/bseip/MentorGraphics/Sourcery_CodeBench_Lite_for_ARM_EABI/arm-none-eabi/lib/libstdc++.a(class_type_info.o)
 .debug_frame   0x00001ea4       0x40 /home/bseip/MentorGraphics/Sourcery_CodeBench_Lite_for_ARM_EABI/arm-none-eabi/lib/libstdc++.a(pure.o)
 .debug_frame   0x00001ee4       0xf8 /home/bseip/MentorGraphics/Sourcery_CodeBench_Lite_for_ARM_EABI/arm-none-eabi/lib/libstdc++.a(tree.o)
 .debug_frame   0x00001fdc      0x1fc /home/bseip/MentorGraphics/Sourcery_CodeBench_Lite_for_ARM_EABI/arm-none-eabi/lib/libstdc++.a(functexcept.o)
 .debug_frame   0x000021d8     0x10b4 /home/bseip/MentorGraphics/Sourcery_CodeBench_Lite_for_ARM_EABI/arm-none-eabi/lib/libstdc++.a(string-inst.o)
 .debug_frame   0x0000328c       0xd4 /home/bseip/MentorGraphics/Sourcery_CodeBench_Lite_for_ARM_EABI/arm-none-eabi/lib/libstdc++.a(future.o)
 .debug_frame   0x00003360       0x50 /home/bseip/MentorGraphics/Sourcery_CodeBench_Lite_for_ARM_EABI/arm-none-eabi/lib/libstdc++.a(functional.o)
 .debug_frame   0x000033b0       0x5c /home/bseip/MentorGraphics/Sourcery_CodeBench_Lite_for_ARM_EABI/arm-none-eabi/lib/libstdc++.a(regex.o)
 .debug_frame   0x0000340c       0x50 /home/bseip/MentorGraphics/Sourcery_CodeBench_Lite_for_ARM_EABI/arm-none-eabi/lib/libstdc++.a(bad_cast.o)
 .debug_frame   0x0000345c       0x50 /home/bseip/MentorGraphics/Sourcery_CodeBench_Lite_for_ARM_EABI/arm-none-eabi/lib/libstdc++.a(bad_typeid.o)
 .debug_frame   0x000034ac       0x48 /home/bseip/MentorGraphics/Sourcery_CodeBench_Lite_for_ARM_EABI/arm-none-eabi/lib/libstdc++.a(guard.o)
 .debug_frame   0x000034f4       0x30 /home/bseip/MentorGraphics/Sourcery_CodeBench_Lite_for_ARM_EABI/arm-none-eabi/lib/libstdc++.a(vterminate.o)
 .debug_frame   0x00003524      0x4fc /home/bseip/MentorGraphics/Sourcery_CodeBench_Lite_for_ARM_EABI/arm-none-eabi/lib/libstdc++.a(cp-demangle.o)
 .debug_frame   0x00003a20       0x28 /home/bseip/MentorGraphics/Sourcery_CodeBench_Lite_for_ARM_EABI/arm-none-eabi/lib/libstdc++.a(eh_type.o)
 .debug_frame   0x00003a48       0x70 /home/bseip/MentorGraphics/Sourcery_CodeBench_Lite_for_ARM_EABI/arm-none-eabi/lib/libstdc++.a(ios_failure.o)
 .debug_frame   0x00003ab8      0x2c0 /home/bseip/MentorGraphics/Sourcery_CodeBench_Lite_for_ARM_EABI/arm-none-eabi/lib/libstdc++.a(stdexcept.o)
 .debug_frame   0x00003d78      0x1ac /home/bseip/MentorGraphics/Sourcery_CodeBench_Lite_for_ARM_EABI/arm-none-eabi/lib/libstdc++.a(system_error.o)
 .debug_frame   0x00003f24       0x40 /home/bseip/MentorGraphics/Sourcery_CodeBench_Lite_for_ARM_EABI/arm-none-eabi/lib/libstdc++.a(guard_error.o)
 .debug_frame   0x00003f64       0x28 /home/bseip/MentorGraphics/Sourcery_CodeBench_Lite_for_ARM_EABI/lib/gcc/arm-none-eabi/4.8.1/libgcc.a(_aeabi_uldivmod.o)
 .debug_frame   0x00003f8c       0x58 /home/bseip/MentorGraphics/Sourcery_CodeBench_Lite_for_ARM_EABI/lib/gcc/arm-none-eabi/4.8.1/libgcc.a(bpabi.o)
 .debug_frame   0x00003fe4       0x38 /home/bseip/MentorGraphics/Sourcery_CodeBench_Lite_for_ARM_EABI/lib/gcc/arm-none-eabi/4.8.1/libgcc.a(_divdi3.o)
 .debug_frame   0x0000401c       0x38 /home/bseip/MentorGraphics/Sourcery_CodeBench_Lite_for_ARM_EABI/lib/gcc/arm-none-eabi/4.8.1/libgcc.a(_udivdi3.o)
 .debug_frame   0x00004054       0x48 /home/bseip/MentorGraphics/Sourcery_CodeBench_Lite_for_ARM_EABI/arm-none-eabi/lib/libc.a(lib_a-fputc.o)
 .debug_frame   0x0000409c       0x3c /home/bseip/MentorGraphics/Sourcery_CodeBench_Lite_for_ARM_EABI/arm-none-eabi/lib/libc.a(lib_a-fputs.o)
 .debug_frame   0x000040d8       0x50 /home/bseip/MentorGraphics/Sourcery_CodeBench_Lite_for_ARM_EABI/arm-none-eabi/lib/libc.a(lib_a-fwrite.o)
 .debug_frame   0x00004128       0x28 /home/bseip/MentorGraphics/Sourcery_CodeBench_Lite_for_ARM_EABI/arm-none-eabi/lib/libc.a(lib_a-memcmp.o)
 .debug_frame   0x00004150       0x48 /home/bseip/MentorGraphics/Sourcery_CodeBench_Lite_for_ARM_EABI/arm-none-eabi/lib/libc.a(lib_a-putc.o)
 .debug_frame   0x00004198       0x28 /home/bseip/MentorGraphics/Sourcery_CodeBench_Lite_for_ARM_EABI/arm-none-eabi/lib/libc.a(lib_a-realloc.o)
 .debug_frame   0x000041c0       0x38 /home/bseip/MentorGraphics/Sourcery_CodeBench_Lite_for_ARM_EABI/arm-none-eabi/lib/libc.a(lib_a-strerror.o)
 .debug_frame   0x000041f8       0x28 /home/bseip/MentorGraphics/Sourcery_CodeBench_Lite_for_ARM_EABI/arm-none-eabi/lib/libc.a(lib_a-syswrite.o)
 .debug_frame   0x00004220       0x20 /home/bseip/MentorGraphics/Sourcery_CodeBench_Lite_for_ARM_EABI/arm-none-eabi/lib/libc.a(lib_a-u_strerr.o)
